ARM GAS  C:\Users\vvman\AppData\Local\Temp\cc3w57EK.s 			page 1


   1              		.cpu cortex-m4
   2              		.arch armv7e-m
   3              		.fpu fpv4-sp-d16
   4              		.eabi_attribute 27, 1
   5              		.eabi_attribute 28, 1
   6              		.eabi_attribute 20, 1
   7              		.eabi_attribute 21, 1
   8              		.eabi_attribute 23, 3
   9              		.eabi_attribute 24, 1
  10              		.eabi_attribute 25, 1
  11              		.eabi_attribute 26, 1
  12              		.eabi_attribute 30, 1
  13              		.eabi_attribute 34, 1
  14              		.eabi_attribute 18, 4
  15              		.file	"init.c"
  16              		.text
  17              	.Ltext0:
  18              		.cfi_sections	.debug_frame
  19              		.file 1 "Core/Src/init.c"
  20              		.section	.text.GPIO_Ini,"ax",%progbits
  21              		.align	1
  22              		.global	GPIO_Ini
  23              		.syntax unified
  24              		.thumb
  25              		.thumb_func
  27              	GPIO_Ini:
  28              	.LFB130:
   1:Core/Src/init.c **** #include "init.h"
   2:Core/Src/init.c **** 
   3:Core/Src/init.c **** 
   4:Core/Src/init.c **** void GPIO_Ini(void){
  29              		.loc 1 4 20 view -0
  30              		.cfi_startproc
  31              		@ args = 0, pretend = 0, frame = 0
  32              		@ frame_needed = 0, uses_anonymous_args = 0
  33              		@ link register save eliminated.
   5:Core/Src/init.c ****     SET_BIT(RCC->AHB1ENR, RCC_AHB1ENR_GPIOBEN | RCC_AHB1ENR_GPIOCEN| RCC_AHB1ENR_GPIODEN);
  34              		.loc 1 5 5 view .LVU1
  35 0000 344A     		ldr	r2, .L2
  36 0002 136B     		ldr	r3, [r2, #48]
  37 0004 43F00E03 		orr	r3, r3, #14
  38 0008 1363     		str	r3, [r2, #48]
   6:Core/Src/init.c **** 
   7:Core/Src/init.c ****     /*SET_BIT(GPIOB->MODER, GPIO_MODER_MODE7_0);
   8:Core/Src/init.c ****     CLEAR_BIT(GPIOB->OTYPER, GPIO_OTYPER_OT_7);
   9:Core/Src/init.c ****     SET_BIT(GPIOB->OSPEEDR, GPIO_OSPEEDER_OSPEEDR7_0);
  10:Core/Src/init.c ****     CLEAR_BIT(GPIOB->PUPDR, GPIO_PUPDR_PUPDR7_0);*/
  11:Core/Src/init.c **** 
  12:Core/Src/init.c ****     //VARIANT 2
  13:Core/Src/init.c ****     
  14:Core/Src/init.c ****     SET_BIT(GPIOB->MODER, GPIO_MODER_MODE13_0);
  39              		.loc 1 14 5 view .LVU2
  40 000a 334B     		ldr	r3, .L2+4
  41 000c 1A68     		ldr	r2, [r3]
  42 000e 42F08062 		orr	r2, r2, #67108864
  43 0012 1A60     		str	r2, [r3]
  15:Core/Src/init.c ****     CLEAR_BIT(GPIOB->OTYPER, GPIO_OTYPER_OT_13);
ARM GAS  C:\Users\vvman\AppData\Local\Temp\cc3w57EK.s 			page 2


  44              		.loc 1 15 5 view .LVU3
  45 0014 5A68     		ldr	r2, [r3, #4]
  46 0016 22F40052 		bic	r2, r2, #8192
  47 001a 5A60     		str	r2, [r3, #4]
  16:Core/Src/init.c ****     SET_BIT(GPIOB->OSPEEDR, GPIO_OSPEEDER_OSPEEDR13_0);
  48              		.loc 1 16 5 view .LVU4
  49 001c 9A68     		ldr	r2, [r3, #8]
  50 001e 42F08062 		orr	r2, r2, #67108864
  51 0022 9A60     		str	r2, [r3, #8]
  17:Core/Src/init.c ****     CLEAR_BIT(GPIOB->PUPDR, GPIO_PUPDR_PUPDR13_0);
  52              		.loc 1 17 5 view .LVU5
  53 0024 DA68     		ldr	r2, [r3, #12]
  54 0026 22F08062 		bic	r2, r2, #67108864
  55 002a DA60     		str	r2, [r3, #12]
  18:Core/Src/init.c **** 
  19:Core/Src/init.c ****     SET_BIT(GPIOB->MODER, GPIO_MODER_MODE12_0);
  56              		.loc 1 19 5 view .LVU6
  57 002c 1A68     		ldr	r2, [r3]
  58 002e 42F08072 		orr	r2, r2, #16777216
  59 0032 1A60     		str	r2, [r3]
  20:Core/Src/init.c ****     CLEAR_BIT(GPIOB->OTYPER, GPIO_OTYPER_OT_12);
  60              		.loc 1 20 5 view .LVU7
  61 0034 5A68     		ldr	r2, [r3, #4]
  62 0036 22F48052 		bic	r2, r2, #4096
  63 003a 5A60     		str	r2, [r3, #4]
  21:Core/Src/init.c ****     SET_BIT(GPIOB->OSPEEDR, GPIO_OSPEEDER_OSPEEDR12_0);
  64              		.loc 1 21 5 view .LVU8
  65 003c 9A68     		ldr	r2, [r3, #8]
  66 003e 42F08072 		orr	r2, r2, #16777216
  67 0042 9A60     		str	r2, [r3, #8]
  22:Core/Src/init.c ****     CLEAR_BIT(GPIOB->PUPDR, GPIO_PUPDR_PUPDR12_0);
  68              		.loc 1 22 5 view .LVU9
  69 0044 DA68     		ldr	r2, [r3, #12]
  70 0046 22F08072 		bic	r2, r2, #16777216
  71 004a DA60     		str	r2, [r3, #12]
  23:Core/Src/init.c **** 
  24:Core/Src/init.c ****     SET_BIT(GPIOB->MODER, GPIO_MODER_MODE15_0);
  72              		.loc 1 24 5 view .LVU10
  73 004c 1A68     		ldr	r2, [r3]
  74 004e 42F08042 		orr	r2, r2, #1073741824
  75 0052 1A60     		str	r2, [r3]
  25:Core/Src/init.c ****     CLEAR_BIT(GPIOB->OTYPER, GPIO_OTYPER_OT_15);
  76              		.loc 1 25 5 view .LVU11
  77 0054 5A68     		ldr	r2, [r3, #4]
  78 0056 22F40042 		bic	r2, r2, #32768
  79 005a 5A60     		str	r2, [r3, #4]
  26:Core/Src/init.c ****     SET_BIT(GPIOB->OSPEEDR, GPIO_OSPEEDER_OSPEEDR15_0);
  80              		.loc 1 26 5 view .LVU12
  81 005c 9A68     		ldr	r2, [r3, #8]
  82 005e 42F08042 		orr	r2, r2, #1073741824
  83 0062 9A60     		str	r2, [r3, #8]
  27:Core/Src/init.c ****     CLEAR_BIT(GPIOB->PUPDR, GPIO_PUPDR_PUPDR15_0);
  84              		.loc 1 27 5 view .LVU13
  85 0064 DA68     		ldr	r2, [r3, #12]
  86 0066 22F08042 		bic	r2, r2, #1073741824
  87 006a DA60     		str	r2, [r3, #12]
  28:Core/Src/init.c **** 
ARM GAS  C:\Users\vvman\AppData\Local\Temp\cc3w57EK.s 			page 3


  29:Core/Src/init.c ****    /* SET_BIT(GPIOB->MODER, GPIO_MODER_MODE3_0);
  30:Core/Src/init.c ****     CLEAR_BIT(GPIOB->OTYPER, GPIO_OTYPER_OT_3);
  31:Core/Src/init.c ****     SET_BIT(GPIOB->OSPEEDR, GPIO_OSPEEDER_OSPEEDR3_0);
  32:Core/Src/init.c ****     CLEAR_BIT(GPIOB->PUPDR, GPIO_PUPDR_PUPDR3_0);
  33:Core/Src/init.c **** 
  34:Core/Src/init.c ****     SET_BIT(GPIOB->MODER, GPIO_MODER_MODE4_0);
  35:Core/Src/init.c ****     CLEAR_BIT(GPIOB->OTYPER, GPIO_OTYPER_OT_4);
  36:Core/Src/init.c ****     SET_BIT(GPIOB->OSPEEDR, GPIO_OSPEEDER_OSPEEDR4_0);
  37:Core/Src/init.c ****     CLEAR_BIT(GPIOB->PUPDR, GPIO_PUPDR_PUPDR4_0);*/
  38:Core/Src/init.c ****     SET_BIT(GPIOD->MODER, GPIO_MODER_MODE3_0);
  88              		.loc 1 38 5 view .LVU14
  89 006c 03F50063 		add	r3, r3, #2048
  90 0070 1A68     		ldr	r2, [r3]
  91 0072 42F04002 		orr	r2, r2, #64
  92 0076 1A60     		str	r2, [r3]
  39:Core/Src/init.c ****     CLEAR_BIT(GPIOD->OTYPER, GPIO_OTYPER_OT_3);
  93              		.loc 1 39 5 view .LVU15
  94 0078 5A68     		ldr	r2, [r3, #4]
  95 007a 22F00802 		bic	r2, r2, #8
  96 007e 5A60     		str	r2, [r3, #4]
  40:Core/Src/init.c ****     SET_BIT(GPIOD->OSPEEDR, GPIO_OSPEEDER_OSPEEDR3_0);
  97              		.loc 1 40 5 view .LVU16
  98 0080 9A68     		ldr	r2, [r3, #8]
  99 0082 42F04002 		orr	r2, r2, #64
 100 0086 9A60     		str	r2, [r3, #8]
  41:Core/Src/init.c ****     CLEAR_BIT(GPIOD->PUPDR, GPIO_PUPDR_PUPDR3_0);
 101              		.loc 1 41 5 view .LVU17
 102 0088 DA68     		ldr	r2, [r3, #12]
 103 008a 22F04002 		bic	r2, r2, #64
 104 008e DA60     		str	r2, [r3, #12]
  42:Core/Src/init.c **** 
  43:Core/Src/init.c ****     SET_BIT(GPIOD->MODER, GPIO_MODER_MODE4_0);
 105              		.loc 1 43 5 view .LVU18
 106 0090 1A68     		ldr	r2, [r3]
 107 0092 42F48072 		orr	r2, r2, #256
 108 0096 1A60     		str	r2, [r3]
  44:Core/Src/init.c ****     CLEAR_BIT(GPIOD->OTYPER, GPIO_OTYPER_OT_4);
 109              		.loc 1 44 5 view .LVU19
 110 0098 5A68     		ldr	r2, [r3, #4]
 111 009a 22F01002 		bic	r2, r2, #16
 112 009e 5A60     		str	r2, [r3, #4]
  45:Core/Src/init.c ****     SET_BIT(GPIOD->OSPEEDR, GPIO_OSPEEDER_OSPEEDR4_0);
 113              		.loc 1 45 5 view .LVU20
 114 00a0 9A68     		ldr	r2, [r3, #8]
 115 00a2 42F48072 		orr	r2, r2, #256
 116 00a6 9A60     		str	r2, [r3, #8]
  46:Core/Src/init.c ****     CLEAR_BIT(GPIOD->PUPDR, GPIO_PUPDR_PUPDR4_0);
 117              		.loc 1 46 5 view .LVU21
 118 00a8 DA68     		ldr	r2, [r3, #12]
 119 00aa 22F48072 		bic	r2, r2, #256
 120 00ae DA60     		str	r2, [r3, #12]
  47:Core/Src/init.c **** 
  48:Core/Src/init.c ****     SET_BIT(GPIOD->MODER, GPIO_MODER_MODE5_0);
 121              		.loc 1 48 5 view .LVU22
 122 00b0 1A68     		ldr	r2, [r3]
 123 00b2 42F48062 		orr	r2, r2, #1024
 124 00b6 1A60     		str	r2, [r3]
ARM GAS  C:\Users\vvman\AppData\Local\Temp\cc3w57EK.s 			page 4


  49:Core/Src/init.c ****     CLEAR_BIT(GPIOD->OTYPER, GPIO_OTYPER_OT_5);
 125              		.loc 1 49 5 view .LVU23
 126 00b8 5A68     		ldr	r2, [r3, #4]
 127 00ba 22F02002 		bic	r2, r2, #32
 128 00be 5A60     		str	r2, [r3, #4]
  50:Core/Src/init.c ****     SET_BIT(GPIOD->OSPEEDR, GPIO_OSPEEDER_OSPEEDR5_0);
 129              		.loc 1 50 5 view .LVU24
 130 00c0 9A68     		ldr	r2, [r3, #8]
 131 00c2 42F48062 		orr	r2, r2, #1024
 132 00c6 9A60     		str	r2, [r3, #8]
  51:Core/Src/init.c ****     CLEAR_BIT(GPIOD->PUPDR, GPIO_PUPDR_PUPDR5_0);
 133              		.loc 1 51 5 view .LVU25
 134 00c8 DA68     		ldr	r2, [r3, #12]
 135 00ca 22F48062 		bic	r2, r2, #1024
 136 00ce DA60     		str	r2, [r3, #12]
  52:Core/Src/init.c **** }...
 137              		.loc 1 52 1 is_stmt 0 view .LVU26
 138 00d0 7047     		bx	lr
 139              	.L3:
 140 00d2 00BF     		.align	2
 141              	.L2:
 142 00d4 00380240 		.word	1073887232
 143 00d8 00040240 		.word	1073873920
 144              		.cfi_endproc
 145              	.LFE130:
 147              		.text
 148              	.Letext0:
 149              		.file 2 "C:/LB_Np/Tools/xpack-arm-none-eabi-gcc-13.2.1-1.1/arm-none-eabi/include/machine/_default_
 150              		.file 3 "C:/LB_Np/Tools/xpack-arm-none-eabi-gcc-13.2.1-1.1/arm-none-eabi/include/sys/_stdint.h"
 151              		.file 4 "Core/Inc/../../CMSIS/Devices/stm32f429xx.h"
ARM GAS  C:\Users\vvman\AppData\Local\Temp\cc3w57EK.s 			page 5


DEFINED SYMBOLS
                            *ABS*:00000000 init.c
C:\Users\vvman\AppData\Local\Temp\cc3w57EK.s:21     .text.GPIO_Ini:00000000 $t
C:\Users\vvman\AppData\Local\Temp\cc3w57EK.s:27     .text.GPIO_Ini:00000000 GPIO_Ini
C:\Users\vvman\AppData\Local\Temp\cc3w57EK.s:142    .text.GPIO_Ini:000000d4 $d

NO UNDEFINED SYMBOLS
