ARM GAS  C:\Users\Admin\AppData\Local\Temp\ccAmzsAp.s 			page 1


   1              		.cpu cortex-m4
   2              		.arch armv7e-m
   3              		.fpu fpv4-sp-d16
   4              		.eabi_attribute 27, 1
   5              		.eabi_attribute 28, 1
   6              		.eabi_attribute 20, 1
   7              		.eabi_attribute 21, 1
   8              		.eabi_attribute 23, 3
   9              		.eabi_attribute 24, 1
  10              		.eabi_attribute 25, 1
  11              		.eabi_attribute 26, 1
  12              		.eabi_attribute 30, 1
  13              		.eabi_attribute 34, 1
  14              		.eabi_attribute 18, 4
  15              		.file	"init.c"
  16              		.text
  17              	.Ltext0:
  18              		.cfi_sections	.debug_frame
  19              		.file 1 "Core/Src/init.c"
  20              		.section	.text.GPIO_Ini,"ax",%progbits
  21              		.align	1
  22              		.global	GPIO_Ini
  23              		.syntax unified
  24              		.thumb
  25              		.thumb_func
  27              	GPIO_Ini:
  28              	.LFB130:
   1:Core/Src/init.c **** #include "init.h"
   2:Core/Src/init.c **** 
   3:Core/Src/init.c **** void GPIO_Ini(void)
   4:Core/Src/init.c **** {
  29              		.loc 1 4 1 view -0
  30              		.cfi_startproc
  31              		@ args = 0, pretend = 0, frame = 0
  32              		@ frame_needed = 0, uses_anonymous_args = 0
  33              		@ link register save eliminated.
   5:Core/Src/init.c ****     SET_BIT(RCC->AHB1ENR, RCC_AHB1ENR_GPIOBEN | RCC_AHB1ENR_GPIOCEN); // –í–∫–ª—é—á–µ–Ω–∏–µ —Ç–∞–∫—
  34              		.loc 1 5 5 view .LVU1
  35 0000 1B4A     		ldr	r2, .L2
  36 0002 136B     		ldr	r3, [r2, #48]
  37 0004 43F00603 		orr	r3, r3, #6
  38 0008 1363     		str	r3, [r2, #48]
   6:Core/Src/init.c **** 
   7:Core/Src/init.c ****     SET_BIT(GPIOB->MODER, GPIO_MODER_MODER7_0);        // –ù–∞—Å—Ç—Ä–æ–π–∫–∞ —Ä–∞–±–æ—Ç—ã 7-–≥–æ –ø
  39              		.loc 1 7 5 view .LVU2
  40 000a 1A4B     		ldr	r3, .L2+4
  41 000c 1A68     		ldr	r2, [r3]
  42 000e 42F48042 		orr	r2, r2, #16384
  43 0012 1A60     		str	r2, [r3]
   8:Core/Src/init.c ****     CLEAR_BIT(GPIOB->OTYPER, GPIO_OTYPER_OT_7);        // –ù–∞—Å—Ç—Ä–æ–π–∫–∞ –Ω–∞ Push-Pull —Ä–∞–±–
  44              		.loc 1 8 5 view .LVU3
  45 0014 5A68     		ldr	r2, [r3, #4]
  46 0016 22F08002 		bic	r2, r2, #128
  47 001a 5A60     		str	r2, [r3, #4]
   9:Core/Src/init.c ****     SET_BIT(GPIOB->OSPEEDR, GPIO_OSPEEDER_OSPEEDR7_0); // –ù–∞—Å—Ç—Ä–æ–π–∫–∞ —Å–∫–æ—Ä–æ—Å—Ç–∏ —Ä–∞–
  48              		.loc 1 9 5 view .LVU4
  49 001c 9A68     		ldr	r2, [r3, #8]
ARM GAS  C:\Users\Admin\AppData\Local\Temp\ccAmzsAp.s 			page 2


  50 001e 42F48042 		orr	r2, r2, #16384
  51 0022 9A60     		str	r2, [r3, #8]
  10:Core/Src/init.c ****     CLEAR_BIT(GPIOB->PUPDR, GPIO_PUPDR_PUPD7_0);       // –û—Ç–∫–ª—é—á–µ–Ω–∏–µ PU/PD —Ä–µ–∑–∏—Å—Ç–æ
  52              		.loc 1 10 5 view .LVU5
  53 0024 DA68     		ldr	r2, [r3, #12]
  54 0026 22F48042 		bic	r2, r2, #16384
  55 002a DA60     		str	r2, [r3, #12]
  11:Core/Src/init.c **** 
  12:Core/Src/init.c ****     SET_BIT(GPIOB->MODER, GPIO_MODER_MODER14_0);        // –ù–∞—Å—Ç—Ä–æ–π–∫–∞ —Ä–∞–±–æ—Ç—ã 14-–≥–æ 
  56              		.loc 1 12 5 view .LVU6
  57 002c 1A68     		ldr	r2, [r3]
  58 002e 42F08052 		orr	r2, r2, #268435456
  59 0032 1A60     		str	r2, [r3]
  13:Core/Src/init.c ****     CLEAR_BIT(GPIOB->OTYPER, GPIO_OTYPER_OT_14);        // –ù–∞—Å—Ç—Ä–æ–π–∫–∞ –Ω–∞ Push-Pull —Ä–∞–±
  60              		.loc 1 13 5 view .LVU7
  61 0034 5A68     		ldr	r2, [r3, #4]
  62 0036 22F48042 		bic	r2, r2, #16384
  63 003a 5A60     		str	r2, [r3, #4]
  14:Core/Src/init.c ****     SET_BIT(GPIOB->OSPEEDR, GPIO_OSPEEDER_OSPEEDR14_0); // –ù–∞—Å—Ç—Ä–æ–π–∫–∞ —Å–∫–æ—Ä–æ—Å—Ç–∏ —Ä–∞
  64              		.loc 1 14 5 view .LVU8
  65 003c 9A68     		ldr	r2, [r3, #8]
  66 003e 42F08052 		orr	r2, r2, #268435456
  67 0042 9A60     		str	r2, [r3, #8]
  15:Core/Src/init.c ****     CLEAR_BIT(GPIOB->PUPDR, GPIO_PUPDR_PUPD14_0);       // –û—Ç–∫–ª—é—á–µ–Ω–∏–µ PU/PD —Ä–µ–∑–∏—Å—Ç–
  68              		.loc 1 15 5 view .LVU9
  69 0044 DA68     		ldr	r2, [r3, #12]
  70 0046 22F08052 		bic	r2, r2, #268435456
  71 004a DA60     		str	r2, [r3, #12]
  16:Core/Src/init.c **** 
  17:Core/Src/init.c ****     SET_BIT(GPIOB->MODER, GPIO_MODER_MODER0_0);        // –ù–∞—Å—Ç—Ä–æ–π–∫–∞ —Ä–∞–±–æ—Ç—ã 0-–≥–æ –ø
  72              		.loc 1 17 5 view .LVU10
  73 004c 1A68     		ldr	r2, [r3]
  74 004e 42F00102 		orr	r2, r2, #1
  75 0052 1A60     		str	r2, [r3]
  18:Core/Src/init.c ****     CLEAR_BIT(GPIOB->OTYPER, GPIO_OTYPER_OT_0);        // –ù–∞—Å—Ç—Ä–æ–π–∫–∞ –Ω–∞ Push-Pull —Ä–∞–±–
  76              		.loc 1 18 5 view .LVU11
  77 0054 5A68     		ldr	r2, [r3, #4]
  78 0056 22F00102 		bic	r2, r2, #1
  79 005a 5A60     		str	r2, [r3, #4]
  19:Core/Src/init.c ****     SET_BIT(GPIOB->OSPEEDR, GPIO_OSPEEDER_OSPEEDR0_0); // –ù–∞—Å—Ç—Ä–æ–π–∫–∞ —Å–∫–æ—Ä–æ—Å—Ç–∏ —Ä–∞–
  80              		.loc 1 19 5 view .LVU12
  81 005c 9A68     		ldr	r2, [r3, #8]
  82 005e 42F00102 		orr	r2, r2, #1
  83 0062 9A60     		str	r2, [r3, #8]
  20:Core/Src/init.c ****     CLEAR_BIT(GPIOB->PUPDR, GPIO_PUPDR_PUPD0_0);       // –û—Ç–∫–ª—é—á–µ–Ω–∏–µ PU/PD —Ä–µ–∑–∏—Å—Ç–æ
  84              		.loc 1 20 5 view .LVU13
  85 0064 DA68     		ldr	r2, [r3, #12]
  86 0066 22F00102 		bic	r2, r2, #1
  87 006a DA60     		str	r2, [r3, #12]
  21:Core/Src/init.c **** }...
  88              		.loc 1 21 1 is_stmt 0 view .LVU14
  89 006c 7047     		bx	lr
  90              	.L3:
  91 006e 00BF     		.align	2
  92              	.L2:
  93 0070 00380240 		.word	1073887232
  94 0074 00040240 		.word	1073873920
ARM GAS  C:\Users\Admin\AppData\Local\Temp\ccAmzsAp.s 			page 3


  95              		.cfi_endproc
  96              	.LFE130:
  98              		.text
  99              	.Letext0:
 100              		.file 2 "C:/Users/Admin/Desktop/StudioCode_Files/STM_files/xpack-arm-none-eabi-gcc-13.2.1-1.1/arm-
 101              		.file 3 "C:/Users/Admin/Desktop/StudioCode_Files/STM_files/xpack-arm-none-eabi-gcc-13.2.1-1.1/arm-
 102              		.file 4 "Core/Inc/../../CMSIS/Devices/stm32f429xx.h"
ARM GAS  C:\Users\Admin\AppData\Local\Temp\ccAmzsAp.s 			page 4


DEFINED SYMBOLS
                            *ABS*:00000000 init.c
C:\Users\Admin\AppData\Local\Temp\ccAmzsAp.s:21     .text.GPIO_Ini:00000000 $t
C:\Users\Admin\AppData\Local\Temp\ccAmzsAp.s:27     .text.GPIO_Ini:00000000 GPIO_Ini
C:\Users\Admin\AppData\Local\Temp\ccAmzsAp.s:93     .text.GPIO_Ini:00000070 $d

NO UNDEFINED SYMBOLS
