ARM GAS  C:\Users\∑∂\AppData\Local\Temp\cceuIqt4.s 			page 1


   1              		.cpu cortex-m4
   2              		.arch armv7e-m
   3              		.fpu fpv4-sp-d16
   4              		.eabi_attribute 27, 1
   5              		.eabi_attribute 28, 1
   6              		.eabi_attribute 20, 1
   7              		.eabi_attribute 21, 1
   8              		.eabi_attribute 23, 3
   9              		.eabi_attribute 24, 1
  10              		.eabi_attribute 25, 1
  11              		.eabi_attribute 26, 1
  12              		.eabi_attribute 30, 1
  13              		.eabi_attribute 34, 1
  14              		.eabi_attribute 18, 4
  15              		.file	"init.c"
  16              		.text
  17              	.Ltext0:
  18              		.cfi_sections	.debug_frame
  19              		.file 1 "Core/Src/init.c"
  20              		.section	.text.GPIO_Init,"ax",%progbits
  21              		.align	1
  22              		.global	GPIO_Init
  23              		.syntax unified
  24              		.thumb
  25              		.thumb_func
  27              	GPIO_Init:
  28              	.LFB130:
   1:Core/Src/init.c **** #include "init.h"
   2:Core/Src/init.c **** 
   3:Core/Src/init.c **** void GPIO_Init(void)
   4:Core/Src/init.c **** {
  29              		.loc 1 4 1 view -0
  30              		.cfi_startproc
  31              		@ args = 0, pretend = 0, frame = 0
  32              		@ frame_needed = 0, uses_anonymous_args = 0
  33              		@ link register save eliminated.
   5:Core/Src/init.c ****     // 1. ‰ΩøËÉΩ GPIOB„ÄÅGPIOC Êó∂Èíü
   6:Core/Src/init.c ****     RCC->AHB1ENR |= (RCC_AHB1ENR_GPIOB_EN | RCC_AHB1ENR_GPIOC_EN);
  34              		.loc 1 6 5 view .LVU1
  35              		.loc 1 6 8 is_stmt 0 view .LVU2
  36 0000 164A     		ldr	r2, .L2
  37 0002 136B     		ldr	r3, [r2, #48]
  38              		.loc 1 6 18 view .LVU3
  39 0004 43F00603 		orr	r3, r3, #6
  40 0008 1363     		str	r3, [r2, #48]
   7:Core/Src/init.c ****     
   8:Core/Src/init.c ****     // 2. ÈÖçÁΩÆ GPIOB ÁöÑ PB0/1/2/6/7/14 ‰∏∫ÈÄöÁî®ËæìÂá∫Ê®°Âºè (MODER=01)
   9:Core/Src/init.c ****     //    ÂÖàÊääÁõ∏Â∫î‰ΩçÊ∏ÖÈõ∂ÔºåÁÑ∂ÂêéÂÜçÁΩÆ1„ÄÇ
  10:Core/Src/init.c ****     //    ÊØè‰∏™ÂºïËÑöÂç† 2 bitÔºåÊØîÂ¶Ç PB0 ÂØπÂ∫î MODER0[1:0], PB1 ÂØπÂ∫îMODER1[1:0], ‰ª•Ê≠§Á±ªÊé
  11:Core/Src/init.c ****     
  12:Core/Src/init.c ****     // Ê∏ÖÈõ∂ PB0/1/2/6/7/14
  13:Core/Src/init.c ****     GPIOB->MODER &= ~(
  41              		.loc 1 13 5 is_stmt 1 view .LVU4
  42              		.loc 1 13 10 is_stmt 0 view .LVU5
  43 000a 154B     		ldr	r3, .L2+4
  44 000c 1A68     		ldr	r2, [r3]
  45              		.loc 1 13 18 view .LVU6
ARM GAS  C:\Users\∑∂\AppData\Local\Temp\cceuIqt4.s 			page 2


  46 000e 1549     		ldr	r1, .L2+8
  47 0010 0A40     		ands	r2, r2, r1
  48 0012 1A60     		str	r2, [r3]
  14:Core/Src/init.c ****         (3 << (LED_GREEN_PIN * 2)) |
  15:Core/Src/init.c ****         (3 << (LED_MODE1_PIN  * 2)) |
  16:Core/Src/init.c ****         (3 << (LED_MODE2_PIN  * 2)) |
  17:Core/Src/init.c ****         (3 << (LED_MODE3_PIN  * 2)) |
  18:Core/Src/init.c ****         (3 << (LED_BLUE_PIN   * 2)) |
  19:Core/Src/init.c ****         (3 << (LED_RED_PIN    * 2))
  20:Core/Src/init.c ****     );
  21:Core/Src/init.c ****     // ÁΩÆ‰∏∫ 01 (ÈÄöÁî®ËæìÂá∫)
  22:Core/Src/init.c ****     GPIOB->MODER |= (
  49              		.loc 1 22 5 is_stmt 1 view .LVU7
  50              		.loc 1 22 10 is_stmt 0 view .LVU8
  51 0014 1A68     		ldr	r2, [r3]
  52              		.loc 1 22 18 view .LVU9
  53 0016 1448     		ldr	r0, .L2+12
  54 0018 0243     		orrs	r2, r2, r0
  55 001a 1A60     		str	r2, [r3]
  23:Core/Src/init.c ****         (1 << (LED_GREEN_PIN * 2)) |
  24:Core/Src/init.c ****         (1 << (LED_MODE1_PIN  * 2)) |
  25:Core/Src/init.c ****         (1 << (LED_MODE2_PIN  * 2)) |
  26:Core/Src/init.c ****         (1 << (LED_MODE3_PIN  * 2)) |
  27:Core/Src/init.c ****         (1 << (LED_BLUE_PIN   * 2)) |
  28:Core/Src/init.c ****         (1 << (LED_RED_PIN    * 2))
  29:Core/Src/init.c ****     );
  30:Core/Src/init.c ****     
  31:Core/Src/init.c ****     // ËæìÂá∫Ê®°Âºè‰∏ÄËà¨‰ΩøÁî® Push-Pull(OTYPER=0), ‰∏çÈúÄË¶ÅÈ¢ùÂ§ñËÆæÁΩÆÊó∂ÂèØÈªòËÆ§0
  32:Core/Src/init.c ****     GPIOB->OTYPER &= ~(
  56              		.loc 1 32 5 is_stmt 1 view .LVU10
  57              		.loc 1 32 10 is_stmt 0 view .LVU11
  58 001c 5A68     		ldr	r2, [r3, #4]
  59              		.loc 1 32 19 view .LVU12
  60 001e 22F48142 		bic	r2, r2, #16512
  61 0022 22F04702 		bic	r2, r2, #71
  62 0026 5A60     		str	r2, [r3, #4]
  33:Core/Src/init.c ****         (1 << LED_GREEN_PIN) |
  34:Core/Src/init.c ****         (1 << LED_MODE1_PIN) |
  35:Core/Src/init.c ****         (1 << LED_MODE2_PIN) |
  36:Core/Src/init.c ****         (1 << LED_MODE3_PIN) |
  37:Core/Src/init.c ****         (1 << LED_BLUE_PIN)  |
  38:Core/Src/init.c ****         (1 << LED_RED_PIN)
  39:Core/Src/init.c ****     );
  40:Core/Src/init.c ****     
  41:Core/Src/init.c ****     // ÈÄüÂ∫¶ÂèØËÆæÁΩÆ‰∏∫‰∏≠ÈÄüÊàñ‰ΩéÈÄüÔºåËøôÈáåÁ§∫‰æãËÆæ‰∏∫‰∏≠ÈÄü(01)
  42:Core/Src/init.c ****     // ‰ª• PB0 ‰∏∫‰æãÔºåÂØπÂ∫î OSPEEDR0[1:0] = 01
  43:Core/Src/init.c ****     GPIOB->OSPEEDR &= ~(
  63              		.loc 1 43 5 is_stmt 1 view .LVU13
  64              		.loc 1 43 10 is_stmt 0 view .LVU14
  65 0028 9A68     		ldr	r2, [r3, #8]
  66              		.loc 1 43 20 view .LVU15
  67 002a 0A40     		ands	r2, r2, r1
  68 002c 9A60     		str	r2, [r3, #8]
  44:Core/Src/init.c ****         (3 << (LED_GREEN_PIN * 2)) |
  45:Core/Src/init.c ****         (3 << (LED_MODE1_PIN  * 2)) |
  46:Core/Src/init.c ****         (3 << (LED_MODE2_PIN  * 2)) |
  47:Core/Src/init.c ****         (3 << (LED_MODE3_PIN  * 2)) |
ARM GAS  C:\Users\∑∂\AppData\Local\Temp\cceuIqt4.s 			page 3


  48:Core/Src/init.c ****         (3 << (LED_BLUE_PIN   * 2)) |
  49:Core/Src/init.c ****         (3 << (LED_RED_PIN    * 2))
  50:Core/Src/init.c ****     );
  51:Core/Src/init.c ****     GPIOB->OSPEEDR |= (
  69              		.loc 1 51 5 is_stmt 1 view .LVU16
  70              		.loc 1 51 10 is_stmt 0 view .LVU17
  71 002e 9A68     		ldr	r2, [r3, #8]
  72              		.loc 1 51 20 view .LVU18
  73 0030 0243     		orrs	r2, r2, r0
  74 0032 9A60     		str	r2, [r3, #8]
  52:Core/Src/init.c ****         (1 << (LED_GREEN_PIN * 2)) |
  53:Core/Src/init.c ****         (1 << (LED_MODE1_PIN  * 2)) |
  54:Core/Src/init.c ****         (1 << (LED_MODE2_PIN  * 2)) |
  55:Core/Src/init.c ****         (1 << (LED_MODE3_PIN  * 2)) |
  56:Core/Src/init.c ****         (1 << (LED_BLUE_PIN   * 2)) |
  57:Core/Src/init.c ****         (1 << (LED_RED_PIN    * 2))
  58:Core/Src/init.c ****     );
  59:Core/Src/init.c ****     
  60:Core/Src/init.c ****     // Êó†ÈúÄ‰∏ä‰∏ãÊãâ
  61:Core/Src/init.c ****     GPIOB->PUPDR &= ~(
  75              		.loc 1 61 5 is_stmt 1 view .LVU19
  76              		.loc 1 61 10 is_stmt 0 view .LVU20
  77 0034 DA68     		ldr	r2, [r3, #12]
  78              		.loc 1 61 18 view .LVU21
  79 0036 0A40     		ands	r2, r2, r1
  80 0038 DA60     		str	r2, [r3, #12]
  62:Core/Src/init.c ****         (3 << (LED_GREEN_PIN * 2)) |
  63:Core/Src/init.c ****         (3 << (LED_MODE1_PIN  * 2)) |
  64:Core/Src/init.c ****         (3 << (LED_MODE2_PIN  * 2)) |
  65:Core/Src/init.c ****         (3 << (LED_MODE3_PIN  * 2)) |
  66:Core/Src/init.c ****         (3 << (LED_BLUE_PIN   * 2)) |
  67:Core/Src/init.c ****         (3 << (LED_RED_PIN    * 2))
  68:Core/Src/init.c ****     );
  69:Core/Src/init.c ****     
  70:Core/Src/init.c ****     // 3. ÈÖçÁΩÆ GPIOC ÁöÑ PC13/8/9/10 ‰∏∫ËæìÂÖ•Ê®°Âºè (MODER=00)
  71:Core/Src/init.c ****     GPIOC->MODER &= ~(
  81              		.loc 1 71 5 is_stmt 1 view .LVU22
  82              		.loc 1 71 10 is_stmt 0 view .LVU23
  83 003a 0C49     		ldr	r1, .L2+16
  84 003c 0A68     		ldr	r2, [r1]
  85              		.loc 1 71 18 view .LVU24
  86 003e 22F04362 		bic	r2, r2, #204472320
  87 0042 22F47022 		bic	r2, r2, #983040
  88 0046 0A60     		str	r2, [r1]
  72:Core/Src/init.c ****         (3 << (BTN_MODE_PIN * 2)) |
  73:Core/Src/init.c ****         (3 << (BTN1_PIN * 2)) |
  74:Core/Src/init.c ****         (3 << (BTN2_PIN * 2)) |
  75:Core/Src/init.c ****         (3 << (BTN3_PIN * 2))
  76:Core/Src/init.c ****     );
  77:Core/Src/init.c ****     
  78:Core/Src/init.c ****     // Â¶ÇÊûúÊåâÈîÆÈúÄË¶Å‰∏äÊãâ/‰∏ãÊãâÔºåÂàôÂú® PUPDR ËÆæÁΩÆ
  79:Core/Src/init.c ****     // ‰æãÂ¶ÇÔºåÂ¶ÇÊûúÂ§ñÈÉ®Á∫øË∑ØÊòØ‚ÄúÊåâ‰∏ãÊé•Âú∞‚ÄùÔºåÂàôÂèØ‰ª•ÂÜÖÈÉ®‰∏äÊãâÔºö
  80:Core/Src/init.c ****     GPIOC->PUPDR &= ~(
  89              		.loc 1 80 5 is_stmt 1 view .LVU25
  90              		.loc 1 80 10 is_stmt 0 view .LVU26
  91 0048 CA68     		ldr	r2, [r1, #12]
  92              		.loc 1 80 18 view .LVU27
ARM GAS  C:\Users\∑∂\AppData\Local\Temp\cceuIqt4.s 			page 4


  93 004a 22F04362 		bic	r2, r2, #204472320
  94 004e 22F47022 		bic	r2, r2, #983040
  95 0052 CA60     		str	r2, [r1, #12]
  81:Core/Src/init.c ****         (3 << (BTN_MODE_PIN * 2)) |
  82:Core/Src/init.c ****         (3 << (BTN1_PIN * 2)) |
  83:Core/Src/init.c ****         (3 << (BTN2_PIN * 2)) |
  84:Core/Src/init.c ****         (3 << (BTN3_PIN * 2))
  85:Core/Src/init.c ****     );
  86:Core/Src/init.c ****     // Â¶ÇÊûúË¶ÅÂÜÖÈÉ®‰∏äÊãâ:
  87:Core/Src/init.c ****     // GPIOC->PUPDR |= (
  88:Core/Src/init.c ****     //    (1 << (BTN_MODE_PIN * 2)) | 
  89:Core/Src/init.c ****     //    (1 << (BTN1_PIN * 2)) |
  90:Core/Src/init.c ****     //    (1 << (BTN2_PIN * 2)) |
  91:Core/Src/init.c ****     //    (1 << (BTN3_PIN * 2))
  92:Core/Src/init.c ****     // );
  93:Core/Src/init.c ****     
  94:Core/Src/init.c ****     // ÂàùÂßãÊó∂ÔºåÂÖàÂ∞ÜÊâÄÊúâLEDÈÉΩÁÜÑÁÅ≠
  95:Core/Src/init.c ****     // ÂèØ‰ª•ÈÄöËøá BSRR ÁöÑÂ§ç‰ΩçÊÆµÔºàÈ´ò16‰ΩçÔºâÊù•Ê∏ÖÈõ∂
  96:Core/Src/init.c ****     GPIOB->BSRR = (
  96              		.loc 1 96 5 is_stmt 1 view .LVU28
  97              		.loc 1 96 17 is_stmt 0 view .LVU29
  98 0054 064A     		ldr	r2, .L2+20
  99 0056 9A61     		str	r2, [r3, #24]
  97:Core/Src/init.c ****         (1 << (LED_GREEN_PIN + 16)) |
  98:Core/Src/init.c ****         (1 << (LED_BLUE_PIN  + 16)) |
  99:Core/Src/init.c ****         (1 << (LED_RED_PIN   + 16)) |
 100:Core/Src/init.c ****         (1 << (LED_MODE1_PIN + 16)) |
 101:Core/Src/init.c ****         (1 << (LED_MODE2_PIN + 16)) |
 102:Core/Src/init.c ****         (1 << (LED_MODE3_PIN + 16))
 103:Core/Src/init.c ****     );
 104:Core/Src/init.c **** }
 100              		.loc 1 104 1 view .LVU30
 101 0058 7047     		bx	lr
 102              	.L3:
 103 005a 00BF     		.align	2
 104              	.L2:
 105 005c 00380240 		.word	1073887232
 106 0060 00040240 		.word	1073873920
 107 0064 C00FFFCF 		.word	-805367872
 108 0068 15500010 		.word	268455957
 109 006c 00080240 		.word	1073874944
 110 0070 0000C740 		.word	1086783488
 111              		.cfi_endproc
 112              	.LFE130:
 114              		.section	.text.delay_ms,"ax",%progbits
 115              		.align	1
 116              		.global	delay_ms
 117              		.syntax unified
 118              		.thumb
 119              		.thumb_func
 121              	delay_ms:
 122              	.LVL0:
 123              	.LFB131:
 105:Core/Src/init.c **** 
 106:Core/Src/init.c **** /**
 107:Core/Src/init.c ****  * ÁÆÄÊòìÂª∂Êó∂ÂáΩÊï∞(ËΩØ‰ª∂ÊñπÂºè)Ôºå‰ªÖ‰ΩúÊºîÁ§∫
 108:Core/Src/init.c ****  * ÂÆûÈôÖ‰∏≠ÂèØÁî®SysTickÊàñÁ°¨‰ª∂ÂÆöÊó∂Âô®
ARM GAS  C:\Users\∑∂\AppData\Local\Temp\cceuIqt4.s 			page 5


 109:Core/Src/init.c ****  */
 110:Core/Src/init.c **** void delay_ms(volatile uint32_t ms)
 111:Core/Src/init.c **** {
 124              		.loc 1 111 1 is_stmt 1 view -0
 125              		.cfi_startproc
 126              		@ args = 0, pretend = 0, frame = 16
 127              		@ frame_needed = 0, uses_anonymous_args = 0
 128              		@ link register save eliminated.
 129              		.loc 1 111 1 is_stmt 0 view .LVU32
 130 0000 84B0     		sub	sp, sp, #16
 131              	.LCFI0:
 132              		.cfi_def_cfa_offset 16
 133 0002 0190     		str	r0, [sp, #4]
 112:Core/Src/init.c ****     for(; ms>0; ms--){
 134              		.loc 1 112 5 is_stmt 1 view .LVU33
 135 0004 0AE0     		b	.L5
 136              	.L7:
 137              	.LBB2:
 113:Core/Src/init.c ****         // ËøôÊÆµÂæ™ÁéØÁöÑÂÖ∑‰ΩìÂ∏∏Êï∞ÈúÄÊ†πÊçÆÁºñËØëÂô®Âíå‰∏ªÈ¢ëÂæÆË∞É
 114:Core/Src/init.c ****         // Âè™‰∏∫Á§∫ÊÑèÔºå‰∏çÂÅöÁ≤æÂáÜÂª∂Êó∂
 115:Core/Src/init.c ****         for(volatile uint32_t i=0; i<18000; i++);
 138              		.loc 1 115 46 discriminator 3 view .LVU34
 139 0006 039B     		ldr	r3, [sp, #12]
 140 0008 0133     		adds	r3, r3, #1
 141 000a 0393     		str	r3, [sp, #12]
 142              	.L6:
 143              		.loc 1 115 37 discriminator 1 view .LVU35
 144 000c 039A     		ldr	r2, [sp, #12]
 145 000e 44F24F63 		movw	r3, #17999
 146 0012 9A42     		cmp	r2, r3
 147 0014 F7D9     		bls	.L7
 148              	.LBE2:
 112:Core/Src/init.c ****     for(; ms>0; ms--){
 149              		.loc 1 112 19 view .LVU36
 150 0016 019B     		ldr	r3, [sp, #4]
 151 0018 013B     		subs	r3, r3, #1
 152 001a 0193     		str	r3, [sp, #4]
 153              	.L5:
 112:Core/Src/init.c ****     for(; ms>0; ms--){
 154              		.loc 1 112 13 discriminator 1 view .LVU37
 155 001c 019B     		ldr	r3, [sp, #4]
 156 001e 13B1     		cbz	r3, .L10
 157              		.loc 1 115 9 view .LVU38
 158              	.LBB3:
 159              		.loc 1 115 13 view .LVU39
 160              		.loc 1 115 31 is_stmt 0 view .LVU40
 161 0020 0023     		movs	r3, #0
 162 0022 0393     		str	r3, [sp, #12]
 163              		.loc 1 115 9 view .LVU41
 164 0024 F2E7     		b	.L6
 165              	.L10:
 166              	.LBE3:
 116:Core/Src/init.c ****     }
 117:Core/Src/init.c **** }...
 167              		.loc 1 117 1 view .LVU42
 168 0026 04B0     		add	sp, sp, #16
 169              	.LCFI1:
ARM GAS  C:\Users\∑∂\AppData\Local\Temp\cceuIqt4.s 			page 6


 170              		.cfi_def_cfa_offset 0
 171              		@ sp needed
 172 0028 7047     		bx	lr
 173              		.cfi_endproc
 174              	.LFE131:
 176              		.text
 177              	.Letext0:
 178              		.file 2 "F:/STM32Tools/SysGCC/arm-none-eabi/include/machine/_default_types.h"
 179              		.file 3 "F:/STM32Tools/SysGCC/arm-none-eabi/include/sys/_stdint.h"
 180              		.file 4 "CMSIS/Devices/stm32f429xx.h"
ARM GAS  C:\Users\∑∂\AppData\Local\Temp\cceuIqt4.s 			page 7


DEFINED SYMBOLS
                            *ABS*:00000000 init.c
C:\Users\∑∂\AppData\Local\Temp\cceuIqt4.s:21     .text.GPIO_Init:00000000 $t
C:\Users\∑∂\AppData\Local\Temp\cceuIqt4.s:27     .text.GPIO_Init:00000000 GPIO_Init
C:\Users\∑∂\AppData\Local\Temp\cceuIqt4.s:105    .text.GPIO_Init:0000005c $d
C:\Users\∑∂\AppData\Local\Temp\cceuIqt4.s:115    .text.delay_ms:00000000 $t
C:\Users\∑∂\AppData\Local\Temp\cceuIqt4.s:121    .text.delay_ms:00000000 delay_ms

NO UNDEFINED SYMBOLS
