ARM GAS  C:\Users\rpong\AppData\Local\Temp\ccMiWiI4.s 			page 1


   1              		.cpu cortex-m4
   2              		.arch armv7e-m
   3              		.fpu fpv4-sp-d16
   4              		.eabi_attribute 27, 1
   5              		.eabi_attribute 28, 1
   6              		.eabi_attribute 20, 1
   7              		.eabi_attribute 21, 1
   8              		.eabi_attribute 23, 3
   9              		.eabi_attribute 24, 1
  10              		.eabi_attribute 25, 1
  11              		.eabi_attribute 26, 1
  12              		.eabi_attribute 30, 1
  13              		.eabi_attribute 34, 1
  14              		.eabi_attribute 18, 4
  15              		.file	"init.c"
  16              		.text
  17              	.Ltext0:
  18              		.cfi_sections	.debug_frame
  19              		.file 1 "Core/Src/init.c"
  20              		.section	.text.GPIO_Ini_Self,"ax",%progbits
  21              		.align	1
  22              		.global	GPIO_Ini_Self
  23              		.syntax unified
  24              		.thumb
  25              		.thumb_func
  27              	GPIO_Ini_Self:
  28              	.LFB130:
   1:Core/Src/init.c **** #include "../Inc/init.h"
   2:Core/Src/init.c **** 
   3:Core/Src/init.c **** //–ø—Ä–æ–≤–µ—Ä–∏—Ç—å –∏ –ø–µ—Ä–µ–¥–µ–ª–∞—Ç—å
   4:Core/Src/init.c **** void GPIO_Ini_Self(void)
   5:Core/Src/init.c **** {
  29              		.loc 1 5 1 view -0
  30              		.cfi_startproc
  31              		@ args = 0, pretend = 0, frame = 0
  32              		@ frame_needed = 0, uses_anonymous_args = 0
  33              		@ link register save eliminated.
   6:Core/Src/init.c ****     //set LED 2 (pin0)
   7:Core/Src/init.c ****     RCC_AHB1ENR |= RCC_GPIOB_EN | RCC_GPIOC_EN; //–í–∫–ª—é—á–µ–Ω–∏–µ —Ç–∞–∫—Ç–∏—Ä–æ–≤–∞–Ω–∏—è –ø–æ—
  34              		.loc 1 7 5 view .LVU1
  35 0000 0A4A     		ldr	r2, .L2
  36 0002 D2F83038 		ldr	r3, [r2, #2096]
  37              		.loc 1 7 17 is_stmt 0 view .LVU2
  38 0006 43F00603 		orr	r3, r3, #6
  39 000a C2F83038 		str	r3, [r2, #2096]
   8:Core/Src/init.c ****     GPIOB_MODER |= GPIOB_MODE_PIN0_OUT; //–ù–∞—Å—Ç—Ä–æ–π–∫–∞ —Ä–∞–±–æ—Ç—ã 0-–≥–æ –ø–∏–Ω–∞ GPIOB –≤ 
  40              		.loc 1 8 5 is_stmt 1 view .LVU3
  41 000e 084B     		ldr	r3, .L2+4
  42 0010 D3F80024 		ldr	r2, [r3, #1024]
  43              		.loc 1 8 17 is_stmt 0 view .LVU4
  44 0014 42F00102 		orr	r2, r2, #1
  45 0018 C3F80024 		str	r2, [r3, #1024]
   9:Core/Src/init.c ****     GPIOB_OTYPER |= GPIOB_OTYPE_PIN0_PP; //–ù–∞—Å—Ç—Ä–æ–π–∫–∞ –Ω–∞ Push-Pull —Ä–∞–±–æ—Ç—É 0-–≥–æ –ø
  46              		.loc 1 9 5 is_stmt 1 view .LVU5
  10:Core/Src/init.c ****     GPIOB_OSPEEDR |= GPIOB_OSPEED_PIN0_MID; //–ù–∞—Å—Ç—Ä–æ–π–∫–∞ —Å–∫–æ—Ä–æ—Å—Ç–∏ —Ä–∞–±–æ—Ç—ã 0-–≥
  47              		.loc 1 10 5 view .LVU6
  48 001c D3F80824 		ldr	r2, [r3, #1032]
ARM GAS  C:\Users\rpong\AppData\Local\Temp\ccMiWiI4.s 			page 2


  49              		.loc 1 10 19 is_stmt 0 view .LVU7
  50 0020 42F00102 		orr	r2, r2, #1
  51 0024 C3F80824 		str	r2, [r3, #1032]
  11:Core/Src/init.c ****     GPIOB_PUPDR |= GPIOB_PUPDR_PIN0_NOPUPD; //–û—Ç–∫–ª—é—á–µ–Ω–∏–µ PU/PD —Ä–µ–∑–∏—Å—Ç–æ—Ä–æ–≤ –¥–ª—
  52              		.loc 1 11 5 is_stmt 1 view .LVU8
  12:Core/Src/init.c **** }
  53              		.loc 1 12 1 is_stmt 0 view .LVU9
  54 0028 7047     		bx	lr
  55              	.L3:
  56 002a 00BF     		.align	2
  57              	.L2:
  58 002c 00300240 		.word	1073885184
  59 0030 00000240 		.word	1073872896
  60              		.cfi_endproc
  61              	.LFE130:
  63              		.section	.text.GPIO_Ini_CMSIS,"ax",%progbits
  64              		.align	1
  65              		.global	GPIO_Ini_CMSIS
  66              		.syntax unified
  67              		.thumb
  68              		.thumb_func
  70              	GPIO_Ini_CMSIS:
  71              	.LFB131:
  13:Core/Src/init.c **** void GPIO_Ini_CMSIS(void)
  14:Core/Src/init.c **** {
  72              		.loc 1 14 1 is_stmt 1 view -0
  73              		.cfi_startproc
  74              		@ args = 0, pretend = 0, frame = 0
  75              		@ frame_needed = 0, uses_anonymous_args = 0
  76              		@ link register save eliminated.
  15:Core/Src/init.c ****     SET_BIT(RCC->AHB1ENR, RCC_AHB1ENR_GPIOBEN | RCC_AHB1ENR_GPIOCEN); //–í–∫–ª—é—á–µ–Ω–∏–µ —Ç–∞–∫—Ç
  77              		.loc 1 15 5 view .LVU11
  78 0000 0D4A     		ldr	r2, .L5
  79 0002 136B     		ldr	r3, [r2, #48]
  80 0004 43F00603 		orr	r3, r3, #6
  81 0008 1363     		str	r3, [r2, #48]
  16:Core/Src/init.c ****     //set LED 3 (pin7)
  17:Core/Src/init.c ****     SET_BIT(GPIOB->MODER, GPIO_MODER_MODE7_0); //–ù–∞—Å—Ç—Ä–æ–π–∫–∞ —Ä–∞–±–æ—Ç—ã 7-–≥–æ –ø–∏–Ω–∞ GP
  82              		.loc 1 17 5 view .LVU12
  83 000a 0C4B     		ldr	r3, .L5+4
  84 000c 1A68     		ldr	r2, [r3]
  85 000e 42F48042 		orr	r2, r2, #16384
  86 0012 1A60     		str	r2, [r3]
  18:Core/Src/init.c ****     CLEAR_BIT(GPIOB->OTYPER, GPIO_OTYPER_OT7);//–ù–∞—Å—Ç—Ä–æ–π–∫–∞ –Ω–∞ Push-Pull —Ä–∞–±–æ—Ç—É 0-–≥
  87              		.loc 1 18 5 view .LVU13
  88 0014 5A68     		ldr	r2, [r3, #4]
  89 0016 22F08002 		bic	r2, r2, #128
  90 001a 5A60     		str	r2, [r3, #4]
  19:Core/Src/init.c ****     SET_BIT(GPIOB->OSPEEDR, GPIO_OSPEEDER_OSPEEDR7_0);//–ù–∞—Å—Ç—Ä–æ–π–∫–∞ —Å–∫–æ—Ä–æ—Å—Ç–∏ —Ä–∞–±–
  91              		.loc 1 19 5 view .LVU14
  92 001c 9A68     		ldr	r2, [r3, #8]
  93 001e 42F48042 		orr	r2, r2, #16384
  94 0022 9A60     		str	r2, [r3, #8]
  20:Core/Src/init.c ****     CLEAR_BIT(GPIOB->PUPDR, GPIO_PUPDR_PUPD7);//–û—Ç–∫–ª—é—á–µ–Ω–∏–µ PU/PD —Ä–µ–∑–∏—Å—Ç–æ—Ä–æ–≤ –¥–
  95              		.loc 1 20 5 view .LVU15
  96 0024 DA68     		ldr	r2, [r3, #12]
  97 0026 22F44042 		bic	r2, r2, #49152
ARM GAS  C:\Users\rpong\AppData\Local\Temp\ccMiWiI4.s 			page 3


  98 002a DA60     		str	r2, [r3, #12]
  21:Core/Src/init.c ****     CLEAR_BIT(GPIOB->BSRR, GPIO_BSRR_BR7);//—Å–±—Ä–æ—Å BSRR
  99              		.loc 1 21 5 view .LVU16
 100 002c 9A69     		ldr	r2, [r3, #24]
 101 002e 22F40002 		bic	r2, r2, #8388608
 102 0032 9A61     		str	r2, [r3, #24]
  22:Core/Src/init.c **** }...
 103              		.loc 1 22 1 is_stmt 0 view .LVU17
 104 0034 7047     		bx	lr
 105              	.L6:
 106 0036 00BF     		.align	2
 107              	.L5:
 108 0038 00380240 		.word	1073887232
 109 003c 00040240 		.word	1073873920
 110              		.cfi_endproc
 111              	.LFE131:
 113              		.text
 114              	.Letext0:
 115              		.file 2 "D:/DMPT/xpack-arm-none-eabi-gcc-13.2.1-1.1/arm-none-eabi/include/machine/_default_types.h
 116              		.file 3 "D:/DMPT/xpack-arm-none-eabi-gcc-13.2.1-1.1/arm-none-eabi/include/sys/_stdint.h"
 117              		.file 4 "Core/Src/../Inc/../../CMSIS/Devices/stm32f429xx.h"
ARM GAS  C:\Users\rpong\AppData\Local\Temp\ccMiWiI4.s 			page 4


DEFINED SYMBOLS
                            *ABS*:00000000 init.c
C:\Users\rpong\AppData\Local\Temp\ccMiWiI4.s:21     .text.GPIO_Ini_Self:00000000 $t
C:\Users\rpong\AppData\Local\Temp\ccMiWiI4.s:27     .text.GPIO_Ini_Self:00000000 GPIO_Ini_Self
C:\Users\rpong\AppData\Local\Temp\ccMiWiI4.s:58     .text.GPIO_Ini_Self:0000002c $d
C:\Users\rpong\AppData\Local\Temp\ccMiWiI4.s:64     .text.GPIO_Ini_CMSIS:00000000 $t
C:\Users\rpong\AppData\Local\Temp\ccMiWiI4.s:70     .text.GPIO_Ini_CMSIS:00000000 GPIO_Ini_CMSIS
C:\Users\rpong\AppData\Local\Temp\ccMiWiI4.s:108    .text.GPIO_Ini_CMSIS:00000038 $d

NO UNDEFINED SYMBOLS
