ARM GAS  C:\Users\25084\AppData\Local\Temp\ccbC2LtA.s 			page 1


   1              		.cpu cortex-m4
   2              		.arch armv7e-m
   3              		.fpu softvfp
   4              		.eabi_attribute 20, 1
   5              		.eabi_attribute 21, 1
   6              		.eabi_attribute 23, 3
   7              		.eabi_attribute 24, 1
   8              		.eabi_attribute 25, 1
   9              		.eabi_attribute 26, 1
  10              		.eabi_attribute 30, 1
  11              		.eabi_attribute 34, 1
  12              		.eabi_attribute 18, 4
  13              		.file	"init.c"
  14              		.text
  15              	.Ltext0:
  16              		.cfi_sections	.debug_frame
  17              		.file 1 "Core/Src/init.c"
  18              		.section	.text.GPIO_Ini,"ax",%progbits
  19              		.align	1
  20              		.global	GPIO_Ini
  21              		.syntax unified
  22              		.thumb
  23              		.thumb_func
  25              	GPIO_Ini:
  26              	.LFB130:
   1:Core/Src/init.c **** // #include "../Inc/init.h"
   2:Core/Src/init.c **** 
   3:Core/Src/init.c **** // void GPIO_Init(void)
   4:Core/Src/init.c **** // {
   5:Core/Src/init.c **** //     // ÂºÄÂêØ GPIOB Âíå GPIOC ÁöÑÊó∂Èíü
   6:Core/Src/init.c **** //     SET_BIT(RCC->AHB1ENR, RCC_AHB1ENR_GPIOBEN | RCC_AHB1ENR_GPIOCEN);
   7:Core/Src/init.c **** //     SET_BIT(GPIOB->MODER, GPIO_MODER_MODE0_0);  // ËÆæÁΩÆGPIOB 0Âè∑ÂºïËÑö‰∏∫ËæìÂá∫
   8:Core/Src/init.c **** //     SET_BIT(GPIOB->MODER, GPIO_MODER_MODE7_0);  // ËÆæÁΩÆGPIOB 7Âè∑ÂºïËÑö‰∏∫ËæìÂá∫
   9:Core/Src/init.c **** //     SET_BIT(GPIOB->MODER, GPIO_MODER_MODE14_0); // ËÆæÁΩÆGPIOB 14Âè∑ÂºïËÑö‰∏∫ËæìÂá∫
  10:Core/Src/init.c **** //     SET_BIT(GPIOB->MODER, GPIO_MODER_MODE8_0);  // ËÆæÁΩÆGPIOB 8Âè∑ÂºïËÑö‰∏∫ËæìÂá∫
  11:Core/Src/init.c **** //     SET_BIT(GPIOB->MODER, GPIO_MODER_MODE9_0);  // ËÆæÁΩÆGPIOB 9Âè∑ÂºïËÑö‰∏∫ËæìÂá∫
  12:Core/Src/init.c **** //     SET_BIT(GPIOB->MODER, GPIO_MODER_MODE10_0); // ËÆæÁΩÆGPIOB 10Âè∑ÂºïËÑö‰∏∫ËæìÂá∫
  13:Core/Src/init.c **** 
  14:Core/Src/init.c **** //     // ËÆæÁΩÆËæìÂá∫Á±ªÂûã‰∏∫Êé®ÊåΩÊ®°Âºè
  15:Core/Src/init.c **** //     CLEAR_BIT(GPIOB->OTYPER, GPIO_OTYPER_OT_0); 
  16:Core/Src/init.c **** //     CLEAR_BIT(GPIOB->OTYPER, GPIO_OTYPER_OT_7); 
  17:Core/Src/init.c **** //     CLEAR_BIT(GPIOB->OTYPER, GPIO_OTYPER_OT_14); 
  18:Core/Src/init.c **** //     CLEAR_BIT(GPIOB->OTYPER, GPIO_OTYPER_OT_8); 
  19:Core/Src/init.c **** //     CLEAR_BIT(GPIOB->OTYPER, GPIO_OTYPER_OT_9); 
  20:Core/Src/init.c **** //     CLEAR_BIT(GPIOB->OTYPER, GPIO_OTYPER_OT_10);
  21:Core/Src/init.c **** 
  22:Core/Src/init.c **** //     // ËÆæÁΩÆËæìÂá∫ÈÄüÂ∫¶‰∏∫ÊúÄÈ´ò
  23:Core/Src/init.c **** //     SET_BIT(GPIOB->OSPEEDR, GPIO_OSPEEDER_OSPEEDR0_0);
  24:Core/Src/init.c **** //     SET_BIT(GPIOB->OSPEEDR, GPIO_OSPEEDER_OSPEEDR7_0);
  25:Core/Src/init.c **** //     SET_BIT(GPIOB->OSPEEDR, GPIO_OSPEEDER_OSPEEDR14_0);
  26:Core/Src/init.c **** //     SET_BIT(GPIOB->OSPEEDR, GPIO_OSPEEDER_OSPEEDR8_0);
  27:Core/Src/init.c **** //     SET_BIT(GPIOB->OSPEEDR, GPIO_OSPEEDER_OSPEEDR9_0);
  28:Core/Src/init.c **** //     SET_BIT(GPIOB->OSPEEDR, GPIO_OSPEEDER_OSPEEDR10_0);
  29:Core/Src/init.c **** 
  30:Core/Src/init.c **** //     // ËÆæÁΩÆËæìÂÖ•ÂºïËÑö‰∏∫‰∏ãÊãâÊ®°Âºè
  31:Core/Src/init.c **** //     CLEAR_BIT(GPIOB->PUPDR, GPIO_PUPDR_PUPDR0_0);
  32:Core/Src/init.c **** //     CLEAR_BIT(GPIOB->PUPDR, GPIO_PUPDR_PUPDR7_0);
ARM GAS  C:\Users\25084\AppData\Local\Temp\ccbC2LtA.s 			page 2


  33:Core/Src/init.c **** //     CLEAR_BIT(GPIOB->PUPDR, GPIO_PUPDR_PUPDR14_0);
  34:Core/Src/init.c **** //     CLEAR_BIT(GPIOB->PUPDR, GPIO_PUPDR_PUPDR8_0);
  35:Core/Src/init.c **** //     CLEAR_BIT(GPIOB->PUPDR, GPIO_PUPDR_PUPDR9_0);
  36:Core/Src/init.c **** //     CLEAR_BIT(GPIOB->PUPDR, GPIO_PUPDR_PUPDR10_0);
  37:Core/Src/init.c **** 
  38:Core/Src/init.c **** //     // ÈÖçÁΩÆ GPIOC ÁöÑ PC6 Âíå PC13 ‰∏∫ËæìÂÖ•Ê®°ÂºèÔºåÂ∏¶‰∏ãÊãâÁîµÈòª
  39:Core/Src/init.c **** //    SET_BIT(GPIOC->PUPDR, GPIO_PUPDR_PUPD6_1); // PC6 ‰∏ãÊãâ
  40:Core/Src/init.c **** //    SET_BIT(GPIOC->PUPDR, GPIO_PUPDR_PUPD13_1); // PC13 ‰∏ãÊãâ
  41:Core/Src/init.c **** // }
  42:Core/Src/init.c **** 
  43:Core/Src/init.c **** 
  44:Core/Src/init.c **** // // RCCÂàùÂßãÂåñÂáΩÊï∞
  45:Core/Src/init.c **** // void RCC_Init(void){
  46:Core/Src/init.c **** //     // Ê∏ÖÈô§ÊâÄÊúâÈÖçÁΩÆÁõ∏ÂÖ≥ÁöÑ‰Ωç
  47:Core/Src/init.c **** //     MODIFY_REG(RCC->CR, RCC_CR_HSITRIM, 0x80U);
  48:Core/Src/init.c **** //     CLEAR_REG(RCC->CFGR);
  49:Core/Src/init.c **** //     while(READ_BIT(RCC->CFGR, RCC_CFGR_SWS) != RESET);  // Á≠âÂæÖÁ≥ªÁªüÊó∂ÈíüÊ∫êÂàáÊç¢ÂÆåÊàê
  50:Core/Src/init.c **** //     CLEAR_BIT(RCC->CR, RCC_CR_PLLON); // ÂÖ≥Èó≠PLL
  51:Core/Src/init.c **** //     while (READ_BIT(RCC->CR, RCC_CR_PLLRDY) != RESET); // Á≠âÂæÖPLLÂÖ≥Èó≠
  52:Core/Src/init.c **** //     CLEAR_BIT(RCC->CR, RCC_CR_HSEON | RCC_CR_CSSON); // ÂÖ≥Èó≠HSEÂíåÊó∂ÈíüÂÆâÂÖ®Á≥ªÁªü
  53:Core/Src/init.c **** //     while (READ_BIT(RCC->CR, RCC_CR_HSERDY) != RESET); // Á≠âÂæÖHSEÁ®≥ÂÆö
  54:Core/Src/init.c **** //     CLEAR_BIT(RCC->CR, RCC_CR_HSEBYP);
  55:Core/Src/init.c **** 
  56:Core/Src/init.c **** //     // ÂêØÂä®Â§ñÈÉ®HSEÊô∂‰ΩìÊåØËç°Âô®
  57:Core/Src/init.c **** //     SET_BIT(RCC->CR, RCC_CR_HSEON); 
  58:Core/Src/init.c **** //     while(READ_BIT(RCC->CR, RCC_CR_HSERDY) == RESET);  // Á≠âÂæÖHSEÁ®≥ÂÆö
  59:Core/Src/init.c **** //     CLEAR_BIT(RCC->CR, RCC_CR_HSEBYP); // ÂÖ≥Èó≠HSEÊóÅË∑Ø
  60:Core/Src/init.c **** //     SET_BIT(RCC->CR, RCC_CR_CSSON); // ÂêØÂä®Êó∂ÈíüÂÆâÂÖ®Á≥ªÁªü
  61:Core/Src/init.c **** 
  62:Core/Src/init.c **** //     // ÈÖçÁΩÆPLLÊó∂ÈíüÊ∫ê‰∏∫HSEÂπ∂ËÆæÁΩÆÁõ∏ÂÖ≥ÂèÇÊï∞
  63:Core/Src/init.c **** //     CLEAR_REG(RCC->PLLCFGR);
  64:Core/Src/init.c **** //     SET_BIT(RCC->PLLCFGR, RCC_PLLCFGR_PLLSRC_HSE);
  65:Core/Src/init.c **** //     MODIFY_REG(RCC->PLLCFGR, RCC_PLLCFGR_PLLM, RCC_PLLCFGR_PLLM_2); // ËÆæÁΩÆPLLËæìÂÖ•ÂàÜÈ¢ë
  66:Core/Src/init.c **** //     MODIFY_REG(RCC->PLLCFGR, RCC_PLLCFGR_PLLN_Msk, RCC_PLLCFGR_PLLN_2 | RCC_PLLCFGR_PLLN_4 | RCC
  67:Core/Src/init.c **** //     CLEAR_BIT(RCC->PLLCFGR, RCC_PLLCFGR_PLLP_Msk); // ËÆæÁΩÆPLLËæìÂá∫ÂàÜÈ¢ë
  68:Core/Src/init.c **** //     SET_BIT(RCC->CR, RCC_CR_PLLON); // ÂêØÂä®PLL
  69:Core/Src/init.c **** //     while(READ_BIT(RCC->CR, RCC_CR_PLLRDY)); // Á≠âÂæÖPLLÁ®≥ÂÆö
  70:Core/Src/init.c **** 
  71:Core/Src/init.c **** //     // ÈÖçÁΩÆÁ≥ªÁªüÊó∂ÈíüÊ∫ê‰∏∫PLL
  72:Core/Src/init.c **** //     MODIFY_REG(RCC->CFGR, RCC_CFGR_SW, RCC_CFGR_SW_PLL); 
  73:Core/Src/init.c **** //     MODIFY_REG(RCC->CFGR, RCC_CFGR_HPRE, RCC_CFGR_HPRE_DIV1); // AHBÊó∂ÈíüÊó†ÂàÜÈ¢ë
  74:Core/Src/init.c **** //     MODIFY_REG(RCC->CFGR, RCC_CFGR_PPRE1, RCC_CFGR_PPRE1_DIV4); // APB1Êó∂ÈíüÂàÜÈ¢ë4
  75:Core/Src/init.c **** //     MODIFY_REG(RCC->CFGR, RCC_CFGR_PPRE2, RCC_CFGR_PPRE2_DIV2); // APB2Êó∂ÈíüÂàÜÈ¢ë2
  76:Core/Src/init.c **** //     CLEAR_BIT(RCC->CFGR, RCC_CFGR_MCO2); // ÂèñÊ∂àMCO2ËæìÂá∫ËÆæÁΩÆ
  77:Core/Src/init.c **** //     MODIFY_REG(RCC->CFGR, RCC_CFGR_MCO2PRE, RCC_CFGR_MCO2PRE_Msk); // ËÆæÁΩÆMCO2ËæìÂá∫È¢ëÁéá‰∏∫5
  78:Core/Src/init.c **** //     MODIFY_REG(FLASH->ACR, FLASH_ACR_LATENCY, FLASH_ACR_LATENCY_5WS); // ËÆæÁΩÆFlashÁ≠âÂæÖÂë®Êúü
  79:Core/Src/init.c **** // }
  80:Core/Src/init.c **** 
  81:Core/Src/init.c **** // void EXTI_ITR_Init(void){ 
  82:Core/Src/init.c **** //     SET_BIT(RCC->APB2ENR, RCC_APB2ENR_SYSCFGEN); // ‰ΩøËÉΩ SYSCFG Êó∂Èíü
  83:Core/Src/init.c **** //     NVIC_SetPriorityGrouping(0);
  84:Core/Src/init.c **** 
  85:Core/Src/init.c **** //     // ÈÖçÁΩÆ PC13 ‰Ωú‰∏∫ EXTI13
  86:Core/Src/init.c **** //     MODIFY_REG(SYSCFG->EXTICR[3], SYSCFG_EXTICR4_EXTI13_Msk, SYSCFG_EXTICR4_EXTI13_PC);
  87:Core/Src/init.c **** //     SET_BIT(EXTI->IMR, EXTI_IMR_MR13);
  88:Core/Src/init.c **** //     SET_BIT(EXTI->RTSR, EXTI_RTSR_TR13);
  89:Core/Src/init.c **** //     SET_BIT(EXTI->FTSR, EXTI_FTSR_TR13);
ARM GAS  C:\Users\25084\AppData\Local\Temp\ccbC2LtA.s 			page 3


  90:Core/Src/init.c **** //     NVIC_SetPriority(EXTI15_10_IRQn, NVIC_EncodePriority(NVIC_GetPriorityGrouping(), 2, 0));
  91:Core/Src/init.c **** //     NVIC_EnableIRQ(EXTI15_10_IRQn); 
  92:Core/Src/init.c **** 
  93:Core/Src/init.c **** //     /* ÈÖçÁΩÆ EXTI ‰∏≠Êñ≠Á∫ø PC6 */
  94:Core/Src/init.c **** //     MODIFY_REG(SYSCFG->EXTICR[1], SYSCFG_EXTICR2_EXTI6_Msk, SYSCFG_EXTICR2_EXTI6_PC); // ÈÄâÊã© 
  95:Core/Src/init.c **** //     SET_BIT(EXTI->IMR, EXTI_IMR_MR6);           // ‰ΩøËÉΩ EXTI6 ‰∏≠Êñ≠
  96:Core/Src/init.c **** //     SET_BIT(EXTI->RTSR, EXTI_RTSR_TR6);         // ÈÖçÁΩÆ‰∏∫‰∏äÂçáÊ≤øËß¶Âèë
  97:Core/Src/init.c **** //     SET_BIT(EXTI->FTSR, EXTI_FTSR_TR6);         // ÈÖçÁΩÆ‰∏∫‰∏ãÈôçÊ≤øËß¶Âèë
  98:Core/Src/init.c **** //     NVIC_SetPriority(EXTI9_5_IRQn, NVIC_EncodePriority(NVIC_GetPriorityGrouping(), 2, 0)); // ËÆ
  99:Core/Src/init.c **** //     NVIC_EnableIRQ(EXTI9_5_IRQn);               // ‰ΩøËÉΩ EXTI9_5 ‰∏≠Êñ≠
 100:Core/Src/init.c **** // }
 101:Core/Src/init.c **** 
 102:Core/Src/init.c **** // void SysTick_Init(void)
 103:Core/Src/init.c **** // {
 104:Core/Src/init.c **** //     /* ÈÖçÁΩÆ SysTick Á≥ªÁªüÂÆöÊó∂Âô® */
 105:Core/Src/init.c **** //     CLEAR_BIT(SysTick->CTRL, SysTick_CTRL_ENABLE_Msk);          // Á¶ÅÁî® SysTick
 106:Core/Src/init.c **** //     SET_BIT(SysTick->CTRL, SysTick_CTRL_TICKINT_Msk);           // ÂÖÅËÆ∏ SysTick ‰∏≠Êñ≠
 107:Core/Src/init.c **** //     SET_BIT(SysTick->CTRL, SysTick_CTRL_CLKSOURCE_Msk);         // ‰ΩøÁî® AHB Êó∂Èíü‰Ωú‰∏∫ SysTi
 108:Core/Src/init.c **** //     MODIFY_REG(SysTick->LOAD, SysTick_LOAD_RELOAD_Msk, 179999); // ËÆæÁΩÆÈáçËΩΩÂÄº‰ª•Ëé∑Âæó 1kHz
 109:Core/Src/init.c **** //     MODIFY_REG(SysTick->VAL, SysTick_VAL_CURRENT_Msk, 179999);  // ËÆæÁΩÆÂΩìÂâçÂÄº
 110:Core/Src/init.c **** //     SET_BIT(SysTick->CTRL, SysTick_CTRL_ENABLE_Msk);            // ÂêØÁî® SysTick
 111:Core/Src/init.c **** // }
 112:Core/Src/init.c **** 
 113:Core/Src/init.c **** 
 114:Core/Src/init.c **** #include <init.h>
 115:Core/Src/init.c **** 
 116:Core/Src/init.c **** // GPIO ÂàùÂßãÂåñ
 117:Core/Src/init.c **** void GPIO_Ini(void) {
  27              		.loc 1 117 21 view -0
  28              		.cfi_startproc
  29              		@ args = 0, pretend = 0, frame = 0
  30              		@ frame_needed = 0, uses_anonymous_args = 0
  31              		@ link register save eliminated.
 118:Core/Src/init.c ****     SET_BIT(*(volatile uint32_t *)RCC_GPIO_EN, RCC_GPIOB_EN | RCC_GPIOC_EN);
  32              		.loc 1 118 5 view .LVU1
  33 0000 074A     		ldr	r2, .L2
  34 0002 D2F83038 		ldr	r3, [r2, #2096]
  35 0006 43F00603 		orr	r3, r3, #6
  36 000a C2F83038 		str	r3, [r2, #2096]
 119:Core/Src/init.c ****     *(volatile uint32_t *)GPIOB_MODER |= GPIOB_MODE_PIN0_OUT | GPIOB_MODE_PIN7_OUT | GPIOB_MODE_PIN
  37              		.loc 1 119 5 view .LVU2
  38 000e A2F54052 		sub	r2, r2, #12288
  39 0012 D2F80014 		ldr	r1, [r2, #1024]
  40              		.loc 1 119 39 is_stmt 0 view .LVU3
  41 0016 034B     		ldr	r3, .L2+4
  42 0018 0B43     		orrs	r3, r3, r1
  43 001a C2F80034 		str	r3, [r2, #1024]
 120:Core/Src/init.c **** }
  44              		.loc 1 120 1 view .LVU4
  45 001e 7047     		bx	lr
  46              	.L3:
  47              		.align	2
  48              	.L2:
  49 0020 00300240 		.word	1073885184
  50 0024 01401010 		.word	269500417
  51              		.cfi_endproc
  52              	.LFE130:
ARM GAS  C:\Users\25084\AppData\Local\Temp\ccbC2LtA.s 			page 4


  54              		.section	.text.ToggleLED,"ax",%progbits
  55              		.align	1
  56              		.global	ToggleLED
  57              		.syntax unified
  58              		.thumb
  59              		.thumb_func
  61              	ToggleLED:
  62              	.LVL0:
  63              	.LFB131:
 121:Core/Src/init.c **** 
 122:Core/Src/init.c **** // ÂàáÊç¢ LED Áä∂ÊÄÅ
 123:Core/Src/init.c **** void ToggleLED(uint8_t led_index, uint8_t state) {
  64              		.loc 1 123 50 is_stmt 1 view -0
  65              		.cfi_startproc
  66              		@ args = 0, pretend = 0, frame = 0
  67              		@ frame_needed = 0, uses_anonymous_args = 0
  68              		@ link register save eliminated.
 124:Core/Src/init.c ****     switch (led_index) {
  69              		.loc 1 124 5 view .LVU6
  70 0000 0138     		subs	r0, r0, #1
  71              	.LVL1:
  72              		.loc 1 124 5 is_stmt 0 view .LVU7
  73 0002 0328     		cmp	r0, #3
  74 0004 25D8     		bhi	.L4
  75 0006 DFE800F0 		tbb	[pc, r0]
  76              	.L7:
  77 000a 02       		.byte	(.L10-.L7)/2
  78 000b 0B       		.byte	(.L9-.L7)/2
  79 000c 14       		.byte	(.L8-.L7)/2
  80 000d 1E       		.byte	(.L6-.L7)/2
  81              		.p2align 1
  82              	.L10:
 125:Core/Src/init.c ****         case 1:
 126:Core/Src/init.c ****             *(volatile uint32_t *)GPIOB_BSRR = state ? GPIOB_BSRR_PIN0_SET : GPIOB_BSRR_PIN0_RESET;
  83              		.loc 1 126 13 is_stmt 1 view .LVU8
  84              		.loc 1 126 76 is_stmt 0 view .LVU9
  85 000e 21B1     		cbz	r1, .L15
  86              		.loc 1 126 76 discriminator 1 view .LVU10
  87 0010 0122     		movs	r2, #1
  88              	.L11:
  89              		.loc 1 126 46 discriminator 4 view .LVU11
  90 0012 124B     		ldr	r3, .L20
  91 0014 C3F81824 		str	r2, [r3, #1048]
 127:Core/Src/init.c ****             break;
  92              		.loc 1 127 13 is_stmt 1 view .LVU12
  93 0018 7047     		bx	lr
  94              	.L15:
 126:Core/Src/init.c ****             break;
  95              		.loc 1 126 76 is_stmt 0 discriminator 2 view .LVU13
  96 001a 4FF48032 		mov	r2, #65536
  97 001e F8E7     		b	.L11
  98              	.L9:
 128:Core/Src/init.c ****         case 2:
 129:Core/Src/init.c ****             *(volatile uint32_t *)GPIOB_BSRR = state ? GPIOB_BSRR_PIN7_SET : GPIOB_BSRR_PIN7_RESET;
  99              		.loc 1 129 13 is_stmt 1 view .LVU14
 100              		.loc 1 129 76 is_stmt 0 view .LVU15
 101 0020 21B1     		cbz	r1, .L16
ARM GAS  C:\Users\25084\AppData\Local\Temp\ccbC2LtA.s 			page 5


 102              		.loc 1 129 76 discriminator 1 view .LVU16
 103 0022 8022     		movs	r2, #128
 104              	.L12:
 105              		.loc 1 129 46 discriminator 4 view .LVU17
 106 0024 0D4B     		ldr	r3, .L20
 107 0026 C3F81824 		str	r2, [r3, #1048]
 130:Core/Src/init.c ****             break;
 108              		.loc 1 130 13 is_stmt 1 view .LVU18
 109 002a 7047     		bx	lr
 110              	.L16:
 129:Core/Src/init.c ****             break;
 111              		.loc 1 129 76 is_stmt 0 discriminator 2 view .LVU19
 112 002c 4FF40002 		mov	r2, #8388608
 113 0030 F8E7     		b	.L12
 114              	.L8:
 131:Core/Src/init.c ****         case 3:
 132:Core/Src/init.c ****             *(volatile uint32_t *)GPIOB_BSRR = state ? GPIOB_BSRR_PIN14_SET : GPIOB_BSRR_PIN14_RESE
 115              		.loc 1 132 13 is_stmt 1 view .LVU20
 116              		.loc 1 132 77 is_stmt 0 view .LVU21
 117 0032 29B1     		cbz	r1, .L17
 118              		.loc 1 132 77 discriminator 1 view .LVU22
 119 0034 4FF48042 		mov	r2, #16384
 120              	.L13:
 121              		.loc 1 132 46 discriminator 4 view .LVU23
 122 0038 084B     		ldr	r3, .L20
 123 003a C3F81824 		str	r2, [r3, #1048]
 133:Core/Src/init.c ****             break;
 124              		.loc 1 133 13 is_stmt 1 view .LVU24
 125 003e 7047     		bx	lr
 126              	.L17:
 132:Core/Src/init.c ****             break;
 127              		.loc 1 132 77 is_stmt 0 discriminator 2 view .LVU25
 128 0040 4FF08042 		mov	r2, #1073741824
 129 0044 F8E7     		b	.L13
 130              	.L6:
 134:Core/Src/init.c ****         case 4:
 135:Core/Src/init.c ****             *(volatile uint32_t *)GPIOB_BSRR = state ? GPIOB_BSRR_PIN10_SET : GPIOB_BSRR_PIN10_RESE
 131              		.loc 1 135 13 is_stmt 1 view .LVU26
 132              		.loc 1 135 77 is_stmt 0 view .LVU27
 133 0046 29B1     		cbz	r1, .L18
 134              		.loc 1 135 77 discriminator 1 view .LVU28
 135 0048 4FF48062 		mov	r2, #1024
 136              	.L14:
 137              		.loc 1 135 46 discriminator 4 view .LVU29
 138 004c 034B     		ldr	r3, .L20
 139 004e C3F81824 		str	r2, [r3, #1048]
 136:Core/Src/init.c ****             break;
 140              		.loc 1 136 13 is_stmt 1 view .LVU30
 141              	.L4:
 137:Core/Src/init.c ****     }
 138:Core/Src/init.c **** }
 142              		.loc 1 138 1 is_stmt 0 view .LVU31
 143 0052 7047     		bx	lr
 144              	.L18:
 135:Core/Src/init.c ****             break;
 145              		.loc 1 135 77 discriminator 2 view .LVU32
 146 0054 4FF08062 		mov	r2, #67108864
ARM GAS  C:\Users\25084\AppData\Local\Temp\ccbC2LtA.s 			page 6


 147 0058 F8E7     		b	.L14
 148              	.L21:
 149 005a 00BF     		.align	2
 150              	.L20:
 151 005c 00000240 		.word	1073872896
 152              		.cfi_endproc
 153              	.LFE131:
 155              		.section	.text.TurnOffAllLEDs,"ax",%progbits
 156              		.align	1
 157              		.global	TurnOffAllLEDs
 158              		.syntax unified
 159              		.thumb
 160              		.thumb_func
 162              	TurnOffAllLEDs:
 163              	.LFB132:
 139:Core/Src/init.c **** 
 140:Core/Src/init.c **** // ÂÖ≥Èó≠ÊâÄÊúâ LED
 141:Core/Src/init.c **** void TurnOffAllLEDs(void) {
 164              		.loc 1 141 27 is_stmt 1 view -0
 165              		.cfi_startproc
 166              		@ args = 0, pretend = 0, frame = 0
 167              		@ frame_needed = 0, uses_anonymous_args = 0
 168              		@ link register save eliminated.
 142:Core/Src/init.c ****     *(volatile uint32_t *)GPIOB_BSRR = GPIOB_BSRR_PIN0_RESET | GPIOB_BSRR_PIN7_RESET | GPIOB_BSRR_P
 169              		.loc 1 142 5 view .LVU34
 170              		.loc 1 142 38 is_stmt 0 view .LVU35
 171 0000 024B     		ldr	r3, .L23
 172 0002 034A     		ldr	r2, .L23+4
 173 0004 C3F81824 		str	r2, [r3, #1048]
 143:Core/Src/init.c **** }
 174              		.loc 1 143 1 view .LVU36
 175 0008 7047     		bx	lr
 176              	.L24:
 177 000a 00BF     		.align	2
 178              	.L23:
 179 000c 00000240 		.word	1073872896
 180 0010 00008144 		.word	1149304832
 181              		.cfi_endproc
 182              	.LFE132:
 184              		.section	.text.TurnOnAllLEDs,"ax",%progbits
 185              		.align	1
 186              		.global	TurnOnAllLEDs
 187              		.syntax unified
 188              		.thumb
 189              		.thumb_func
 191              	TurnOnAllLEDs:
 192              	.LFB133:
 144:Core/Src/init.c **** 
 145:Core/Src/init.c **** // ÁÇπ‰∫ÆÊâÄÊúâ LED
 146:Core/Src/init.c **** void TurnOnAllLEDs(void) {
 193              		.loc 1 146 26 is_stmt 1 view -0
 194              		.cfi_startproc
 195              		@ args = 0, pretend = 0, frame = 0
 196              		@ frame_needed = 0, uses_anonymous_args = 0
 197              		@ link register save eliminated.
 147:Core/Src/init.c ****     *(volatile uint32_t *)GPIOB_BSRR = GPIOB_BSRR_PIN0_SET | GPIOB_BSRR_PIN7_SET | GPIOB_BSRR_PIN14
 198              		.loc 1 147 5 view .LVU38
ARM GAS  C:\Users\25084\AppData\Local\Temp\ccbC2LtA.s 			page 7


 199              		.loc 1 147 38 is_stmt 0 view .LVU39
 200 0000 024B     		ldr	r3, .L26
 201 0002 44F28142 		movw	r2, #17537
 202 0006 C3F81824 		str	r2, [r3, #1048]
 148:Core/Src/init.c **** }
 203              		.loc 1 148 1 view .LVU40
 204 000a 7047     		bx	lr
 205              	.L27:
 206              		.align	2
 207              	.L26:
 208 000c 00000240 		.word	1073872896
 209              		.cfi_endproc
 210              	.LFE133:
 212              		.text
 213              	.Letext0:
 214              		.file 2 "C:/dog/xpack-arm-none-eabi-gcc-13.2.1-1.1-win32-x64/xpack-arm-none-eabi-gcc-13.2.1-1.1/ar
 215              		.file 3 "C:/dog/xpack-arm-none-eabi-gcc-13.2.1-1.1-win32-x64/xpack-arm-none-eabi-gcc-13.2.1-1.1/ar
ARM GAS  C:\Users\25084\AppData\Local\Temp\ccbC2LtA.s 			page 8


DEFINED SYMBOLS
                            *ABS*:00000000 init.c
C:\Users\25084\AppData\Local\Temp\ccbC2LtA.s:19     .text.GPIO_Ini:00000000 $t
C:\Users\25084\AppData\Local\Temp\ccbC2LtA.s:25     .text.GPIO_Ini:00000000 GPIO_Ini
C:\Users\25084\AppData\Local\Temp\ccbC2LtA.s:49     .text.GPIO_Ini:00000020 $d
C:\Users\25084\AppData\Local\Temp\ccbC2LtA.s:55     .text.ToggleLED:00000000 $t
C:\Users\25084\AppData\Local\Temp\ccbC2LtA.s:61     .text.ToggleLED:00000000 ToggleLED
C:\Users\25084\AppData\Local\Temp\ccbC2LtA.s:77     .text.ToggleLED:0000000a $d
C:\Users\25084\AppData\Local\Temp\ccbC2LtA.s:81     .text.ToggleLED:0000000e $t
C:\Users\25084\AppData\Local\Temp\ccbC2LtA.s:151    .text.ToggleLED:0000005c $d
C:\Users\25084\AppData\Local\Temp\ccbC2LtA.s:156    .text.TurnOffAllLEDs:00000000 $t
C:\Users\25084\AppData\Local\Temp\ccbC2LtA.s:162    .text.TurnOffAllLEDs:00000000 TurnOffAllLEDs
C:\Users\25084\AppData\Local\Temp\ccbC2LtA.s:179    .text.TurnOffAllLEDs:0000000c $d
C:\Users\25084\AppData\Local\Temp\ccbC2LtA.s:185    .text.TurnOnAllLEDs:00000000 $t
C:\Users\25084\AppData\Local\Temp\ccbC2LtA.s:191    .text.TurnOnAllLEDs:00000000 TurnOnAllLEDs
C:\Users\25084\AppData\Local\Temp\ccbC2LtA.s:208    .text.TurnOnAllLEDs:0000000c $d

NO UNDEFINED SYMBOLS
