ARM GAS  C:\Users\LIUYIM~1\AppData\Local\Temp\ccLqTV5v.s 			page 1


   1              		.cpu cortex-m4
   2              		.arch armv7e-m
   3              		.fpu fpv4-sp-d16
   4              		.eabi_attribute 27, 1
   5              		.eabi_attribute 28, 1
   6              		.eabi_attribute 20, 1
   7              		.eabi_attribute 21, 1
   8              		.eabi_attribute 23, 3
   9              		.eabi_attribute 24, 1
  10              		.eabi_attribute 25, 1
  11              		.eabi_attribute 26, 1
  12              		.eabi_attribute 30, 1
  13              		.eabi_attribute 34, 1
  14              		.eabi_attribute 18, 4
  15              		.file	"init.c"
  16              		.text
  17              	.Ltext0:
  18              		.cfi_sections	.debug_frame
  19              		.file 1 "Core/Src/init.c"
  20              		.section	.text.GPIO_Ini_1,"ax",%progbits
  21              		.align	1
  22              		.global	GPIO_Ini_1
  23              		.syntax unified
  24              		.thumb
  25              		.thumb_func
  27              	GPIO_Ini_1:
  28              	.LFB130:
   1:Core/Src/init.c **** 
   2:Core/Src/init.c **** #include "../Inc/init.h"
   3:Core/Src/init.c **** 
   4:Core/Src/init.c **** // GPIO初始化1：初始化GPIOB（LED控制引脚）
   5:Core/Src/init.c **** void GPIO_Ini_1(void) {
  29              		.loc 1 5 23 view -0
  30              		.cfi_startproc
  31              		@ args = 0, pretend = 0, frame = 0
  32              		@ frame_needed = 0, uses_anonymous_args = 0
  33              		@ link register save eliminated.
   6:Core/Src/init.c ****     // 使能GPIOB时钟
   7:Core/Src/init.c ****     RCC_GPIO_EN |= RCC_GPIOB_EN;
  34              		.loc 1 7 5 view .LVU1
  35 0000 094A     		ldr	r2, .L2
  36 0002 D2F83038 		ldr	r3, [r2, #2096]
  37              		.loc 1 7 17 is_stmt 0 view .LVU2
  38 0006 43F00203 		orr	r3, r3, #2
  39 000a C2F83038 		str	r3, [r2, #2096]
   8:Core/Src/init.c **** 
   9:Core/Src/init.c ****     // 配置GPIOB引脚0、7、14、8为输出模式
  10:Core/Src/init.c ****     GPIOB_MODER |= GPIOB_MODE_PIN0_OUT | GPIOB_MODE_PIN7_OUT | GPIOB_MODE_PIN14_OUT | GPIOB_MODE_PI
  40              		.loc 1 10 5 is_stmt 1 view .LVU3
  41 000e 074B     		ldr	r3, .L2+4
  42 0010 D3F80024 		ldr	r2, [r3, #1024]
  43              		.loc 1 10 17 is_stmt 0 view .LVU4
  44 0014 0649     		ldr	r1, .L2+8
  45 0016 0A43     		orrs	r2, r2, r1
  46 0018 C3F80024 		str	r2, [r3, #1024]
  11:Core/Src/init.c **** 
  12:Core/Src/init.c ****     // 配置推挽输出
ARM GAS  C:\Users\LIUYIM~1\AppData\Local\Temp\ccLqTV5v.s 			page 2


  13:Core/Src/init.c ****     GPIOB_OTYPER &= ~(GPIOB_OTYPE_PIN0_PP | GPIOB_OTYPE_PIN7_PP | GPIOB_OTYPE_PIN14_PP | GPIOB_OTYP
  47              		.loc 1 13 5 is_stmt 1 view .LVU5
  14:Core/Src/init.c **** 
  15:Core/Src/init.c ****     // 配置中速输出
  16:Core/Src/init.c ****     GPIOB_OSPEEDR |= GPIOB_OSPEED_PIN0_MID | GPIOB_OSPEED_PIN7_MID | GPIOB_OSPEED_PIN14_MID | GPIOB
  48              		.loc 1 16 5 view .LVU6
  49 001c D3F80824 		ldr	r2, [r3, #1032]
  50              		.loc 1 16 19 is_stmt 0 view .LVU7
  51 0020 0A43     		orrs	r2, r2, r1
  52 0022 C3F80824 		str	r2, [r3, #1032]
  17:Core/Src/init.c **** 
  18:Core/Src/init.c ****     // 配置无上拉/下拉电阻
  19:Core/Src/init.c ****     GPIOB_PUPDR &= ~(GPIOB_PUPDR_PIN0_NOPUPD | GPIOB_PUPDR_PIN7_NOPUPD | GPIOB_PUPDR_PIN14_NOPUPD |
  53              		.loc 1 19 5 is_stmt 1 view .LVU8
  20:Core/Src/init.c **** }
  54              		.loc 1 20 1 is_stmt 0 view .LVU9
  55 0026 7047     		bx	lr
  56              	.L3:
  57              		.align	2
  58              	.L2:
  59 0028 00300240 		.word	1073885184
  60 002c 00000240 		.word	1073872896
  61 0030 01400110 		.word	268517377
  62              		.cfi_endproc
  63              	.LFE130:
  65              		.section	.text.GPIO_Ini_2,"ax",%progbits
  66              		.align	1
  67              		.global	GPIO_Ini_2
  68              		.syntax unified
  69              		.thumb
  70              		.thumb_func
  72              	GPIO_Ini_2:
  73              	.LFB131:
  21:Core/Src/init.c **** 
  22:Core/Src/init.c **** // GPIO初始化2：初始化GPIOC（按钮输入引脚）
  23:Core/Src/init.c **** void GPIO_Ini_2(void) {
  74              		.loc 1 23 23 is_stmt 1 view -0
  75              		.cfi_startproc
  76              		@ args = 0, pretend = 0, frame = 0
  77              		@ frame_needed = 0, uses_anonymous_args = 0
  78              		@ link register save eliminated.
  24:Core/Src/init.c ****     // 使能GPIOC时钟
  25:Core/Src/init.c ****     RCC_GPIO_EN |= RCC_GPIOC_EN;
  79              		.loc 1 25 5 view .LVU11
  80 0000 074A     		ldr	r2, .L5
  81 0002 D2F83038 		ldr	r3, [r2, #2096]
  82              		.loc 1 25 17 is_stmt 0 view .LVU12
  83 0006 43F00403 		orr	r3, r3, #4
  84 000a C2F83038 		str	r3, [r2, #2096]
  26:Core/Src/init.c **** 
  27:Core/Src/init.c ****     // 配置GPIOC引脚12和13为输入模式
  28:Core/Src/init.c ****     GPIOC_IDR |= GPIOC_IDR_PIN12 | GPIOC_IDR_PIN13;
  85              		.loc 1 28 5 is_stmt 1 view .LVU13
  86 000e A2F54052 		sub	r2, r2, #12288
  87 0012 D2F81038 		ldr	r3, [r2, #2064]
  88              		.loc 1 28 15 is_stmt 0 view .LVU14
  89 0016 43F44053 		orr	r3, r3, #12288
ARM GAS  C:\Users\LIUYIM~1\AppData\Local\Temp\ccLqTV5v.s 			page 3


  90 001a C2F81038 		str	r3, [r2, #2064]
  29:Core/Src/init.c **** }
  91              		.loc 1 29 1 view .LVU15
  92 001e 7047     		bx	lr
  93              	.L6:
  94              		.align	2
  95              	.L5:
  96 0020 00300240 		.word	1073885184
  97              		.cfi_endproc
  98              	.LFE131:
 100              		.section	.text.LED_On,"ax",%progbits
 101              		.align	1
 102              		.global	LED_On
 103              		.syntax unified
 104              		.thumb
 105              		.thumb_func
 107              	LED_On:
 108              	.LVL0:
 109              	.LFB132:
  30:Core/Src/init.c **** 
  31:Core/Src/init.c **** // 点亮LED
  32:Core/Src/init.c **** void LED_On(uint32_t pin) {
 110              		.loc 1 32 27 is_stmt 1 view -0
 111              		.cfi_startproc
 112              		@ args = 0, pretend = 0, frame = 0
 113              		@ frame_needed = 0, uses_anonymous_args = 0
 114              		@ link register save eliminated.
  33:Core/Src/init.c ****     GPIOB_BSRR |= pin;  // 设置对应的引脚为高电平，点亮LED
 115              		.loc 1 33 5 view .LVU17
 116 0000 034A     		ldr	r2, .L8
 117 0002 D2F81834 		ldr	r3, [r2, #1048]
 118              		.loc 1 33 16 is_stmt 0 view .LVU18
 119 0006 0343     		orrs	r3, r3, r0
 120 0008 C2F81834 		str	r3, [r2, #1048]
  34:Core/Src/init.c **** }
 121              		.loc 1 34 1 view .LVU19
 122 000c 7047     		bx	lr
 123              	.L9:
 124 000e 00BF     		.align	2
 125              	.L8:
 126 0010 00000240 		.word	1073872896
 127              		.cfi_endproc
 128              	.LFE132:
 130              		.section	.text.LED_Off,"ax",%progbits
 131              		.align	1
 132              		.global	LED_Off
 133              		.syntax unified
 134              		.thumb
 135              		.thumb_func
 137              	LED_Off:
 138              	.LVL1:
 139              	.LFB133:
  35:Core/Src/init.c **** 
  36:Core/Src/init.c **** // 熄灭LED
  37:Core/Src/init.c **** void LED_Off(uint32_t pin) {
 140              		.loc 1 37 28 is_stmt 1 view -0
 141              		.cfi_startproc
ARM GAS  C:\Users\LIUYIM~1\AppData\Local\Temp\ccLqTV5v.s 			page 4


 142              		@ args = 0, pretend = 0, frame = 0
 143              		@ frame_needed = 0, uses_anonymous_args = 0
 144              		@ link register save eliminated.
  38:Core/Src/init.c ****     GPIOB_BSRR |= (pin << 16);  // 设置对应的引脚为低电平，熄灭LED
 145              		.loc 1 38 5 view .LVU21
 146 0000 034A     		ldr	r2, .L11
 147 0002 D2F81834 		ldr	r3, [r2, #1048]
 148              		.loc 1 38 16 is_stmt 0 view .LVU22
 149 0006 43EA0043 		orr	r3, r3, r0, lsl #16
 150 000a C2F81834 		str	r3, [r2, #1048]
  39:Core/Src/init.c **** }
 151              		.loc 1 39 1 view .LVU23
 152 000e 7047     		bx	lr
 153              	.L12:
 154              		.align	2
 155              	.L11:
 156 0010 00000240 		.word	1073872896
 157              		.cfi_endproc
 158              	.LFE133:
 160              		.text
 161              	.Letext0:
 162              		.file 2 "D:/Tools/xpack-arm-none-eabi-gcc-13.2.1-1.1/arm-none-eabi/include/machine/_default_types.
 163              		.file 3 "D:/Tools/xpack-arm-none-eabi-gcc-13.2.1-1.1/arm-none-eabi/include/sys/_stdint.h"
ARM GAS  C:\Users\LIUYIM~1\AppData\Local\Temp\ccLqTV5v.s 			page 5


DEFINED SYMBOLS
                            *ABS*:00000000 init.c
C:\Users\LIUYIM~1\AppData\Local\Temp\ccLqTV5v.s:21     .text.GPIO_Ini_1:00000000 $t
C:\Users\LIUYIM~1\AppData\Local\Temp\ccLqTV5v.s:27     .text.GPIO_Ini_1:00000000 GPIO_Ini_1
C:\Users\LIUYIM~1\AppData\Local\Temp\ccLqTV5v.s:59     .text.GPIO_Ini_1:00000028 $d
C:\Users\LIUYIM~1\AppData\Local\Temp\ccLqTV5v.s:66     .text.GPIO_Ini_2:00000000 $t
C:\Users\LIUYIM~1\AppData\Local\Temp\ccLqTV5v.s:72     .text.GPIO_Ini_2:00000000 GPIO_Ini_2
C:\Users\LIUYIM~1\AppData\Local\Temp\ccLqTV5v.s:96     .text.GPIO_Ini_2:00000020 $d
C:\Users\LIUYIM~1\AppData\Local\Temp\ccLqTV5v.s:101    .text.LED_On:00000000 $t
C:\Users\LIUYIM~1\AppData\Local\Temp\ccLqTV5v.s:107    .text.LED_On:00000000 LED_On
C:\Users\LIUYIM~1\AppData\Local\Temp\ccLqTV5v.s:126    .text.LED_On:00000010 $d
C:\Users\LIUYIM~1\AppData\Local\Temp\ccLqTV5v.s:131    .text.LED_Off:00000000 $t
C:\Users\LIUYIM~1\AppData\Local\Temp\ccLqTV5v.s:137    .text.LED_Off:00000000 LED_Off
C:\Users\LIUYIM~1\AppData\Local\Temp\ccLqTV5v.s:156    .text.LED_Off:00000010 $d

NO UNDEFINED SYMBOLS
