ARM GAS  C:\Users\∑∂\AppData\Local\Temp\cctc6sIj.s 			page 1


   1              		.cpu cortex-m4
   2              		.arch armv7e-m
   3              		.fpu fpv4-sp-d16
   4              		.eabi_attribute 27, 1
   5              		.eabi_attribute 28, 1
   6              		.eabi_attribute 20, 1
   7              		.eabi_attribute 21, 1
   8              		.eabi_attribute 23, 3
   9              		.eabi_attribute 24, 1
  10              		.eabi_attribute 25, 1
  11              		.eabi_attribute 26, 1
  12              		.eabi_attribute 30, 1
  13              		.eabi_attribute 34, 1
  14              		.eabi_attribute 18, 4
  15              		.file	"it_handlers.c"
  16              		.text
  17              	.Ltext0:
  18              		.cfi_sections	.debug_frame
  19              		.file 1 "Core/Src/it_handlers.c"
  20              		.section	.text.SysTick_Handler,"ax",%progbits
  21              		.align	1
  22              		.global	SysTick_Handler
  23              		.syntax unified
  24              		.thumb
  25              		.thumb_func
  27              	SysTick_Handler:
  28              	.LFB130:
   1:Core/Src/it_handlers.c **** #include "it_handlers.h"
   2:Core/Src/it_handlers.c **** 
   3:Core/Src/it_handlers.c **** // ÂèÇËÄÉÁ§∫‰æã‰∏≠ÁöÑÂÖ®Â±ÄÂèòÈáèÂëΩÂêçÊñπÂºè
   4:Core/Src/it_handlers.c **** extern volatile uint32_t g_systickCount; // 1msÂÖ®Â±ÄËÆ°Êï∞
   5:Core/Src/it_handlers.c **** // ‰∏ãÊñáÊàë‰ª¨Âú® main.c ÈáåÂÆö‰πâ
   6:Core/Src/it_handlers.c **** 
   7:Core/Src/it_handlers.c **** static uint32_t btn1_lastPress = 0;  // PC13
   8:Core/Src/it_handlers.c **** static uint32_t btn2_lastPress = 0;  // PC6
   9:Core/Src/it_handlers.c **** static uint32_t btn3_lastPress = 0;  // PC7
  10:Core/Src/it_handlers.c **** 
  11:Core/Src/it_handlers.c **** void SysTick_Handler(void)
  12:Core/Src/it_handlers.c **** {
  29              		.loc 1 12 1 view -0
  30              		.cfi_startproc
  31              		@ args = 0, pretend = 0, frame = 0
  32              		@ frame_needed = 0, uses_anonymous_args = 0
  33              		@ link register save eliminated.
  13:Core/Src/it_handlers.c ****     g_systickCount++; 
  34              		.loc 1 13 5 view .LVU1
  35              		.loc 1 13 19 is_stmt 0 view .LVU2
  36 0000 024A     		ldr	r2, .L2
  37 0002 1368     		ldr	r3, [r2]
  38 0004 0133     		adds	r3, r3, #1
  39 0006 1360     		str	r3, [r2]
  14:Core/Src/it_handlers.c **** }
  40              		.loc 1 14 1 view .LVU3
  41 0008 7047     		bx	lr
  42              	.L3:
  43 000a 00BF     		.align	2
  44              	.L2:
ARM GAS  C:\Users\∑∂\AppData\Local\Temp\cctc6sIj.s 			page 2


  45 000c 00000000 		.word	g_systickCount
  46              		.cfi_endproc
  47              	.LFE130:
  49              		.section	.text.EXTI15_10_IRQHandler,"ax",%progbits
  50              		.align	1
  51              		.global	EXTI15_10_IRQHandler
  52              		.syntax unified
  53              		.thumb
  54              		.thumb_func
  56              	EXTI15_10_IRQHandler:
  57              	.LFB131:
  15:Core/Src/it_handlers.c **** 
  16:Core/Src/it_handlers.c **** // -------------------- PC13 => EXTI15_10_IRQHandler --------------------
  17:Core/Src/it_handlers.c **** void EXTI15_10_IRQHandler(void)
  18:Core/Src/it_handlers.c **** {
  58              		.loc 1 18 1 is_stmt 1 view -0
  59              		.cfi_startproc
  60              		@ args = 0, pretend = 0, frame = 0
  61              		@ frame_needed = 0, uses_anonymous_args = 0
  62              		@ link register save eliminated.
  19:Core/Src/it_handlers.c ****     // Ê£ÄÊü•ÊòØÂê¶ÊòØ line13 Ëß¶Âèë
  20:Core/Src/it_handlers.c ****     if (READ_BIT(EXTI->PR, EXTI_PR_PR13) != 0)
  63              		.loc 1 20 5 view .LVU5
  64              		.loc 1 20 9 is_stmt 0 view .LVU6
  65 0000 134B     		ldr	r3, .L10
  66 0002 5B69     		ldr	r3, [r3, #20]
  67              		.loc 1 20 8 view .LVU7
  68 0004 13F4005F 		tst	r3, #8192
  69 0008 1BD0     		beq	.L4
  21:Core/Src/it_handlers.c ****     {
  22:Core/Src/it_handlers.c ****         // Ê∏ÖÈô§‰∏≠Êñ≠Ê†áÂøó
  23:Core/Src/it_handlers.c ****         SET_BIT(EXTI->PR, EXTI_PR_PR13);
  70              		.loc 1 23 9 is_stmt 1 view .LVU8
  71 000a 114A     		ldr	r2, .L10
  72 000c 5369     		ldr	r3, [r2, #20]
  73 000e 43F40053 		orr	r3, r3, #8192
  74 0012 5361     		str	r3, [r2, #20]
  24:Core/Src/it_handlers.c **** 
  25:Core/Src/it_handlers.c ****         // Ê∂àÊäñÂà§Êñ≠
  26:Core/Src/it_handlers.c ****         if ( (g_systickCount - btn1_lastPress) >= DELAY_BUTTON_FILTER )
  75              		.loc 1 26 9 view .LVU9
  76              		.loc 1 26 30 is_stmt 0 view .LVU10
  77 0014 0F4B     		ldr	r3, .L10+4
  78 0016 1B68     		ldr	r3, [r3]
  79 0018 0F4A     		ldr	r2, .L10+8
  80 001a 1268     		ldr	r2, [r2]
  81 001c 9B1A     		subs	r3, r3, r2
  82              		.loc 1 26 12 view .LVU11
  83 001e C72B     		cmp	r3, #199
  84 0020 0FD9     		bls	.L4
  85              	.LBB2:
  27:Core/Src/it_handlers.c ****         {
  28:Core/Src/it_handlers.c ****             btn1_lastPress = g_systickCount;
  86              		.loc 1 28 13 is_stmt 1 view .LVU12
  87              		.loc 1 28 28 is_stmt 0 view .LVU13
  88 0022 0C4B     		ldr	r3, .L10+4
  89 0024 1A68     		ldr	r2, [r3]
ARM GAS  C:\Users\∑∂\AppData\Local\Temp\cctc6sIj.s 			page 3


  90 0026 0C4B     		ldr	r3, .L10+8
  91 0028 1A60     		str	r2, [r3]
  29:Core/Src/it_handlers.c ****             // ÊåâÈîÆ1ÂäüËÉΩÔºöÂàáÊç¢Ê®°Âºè1 <-> Ê®°Âºè2
  30:Core/Src/it_handlers.c ****             extern volatile uint8_t g_workMode;
  92              		.loc 1 30 13 is_stmt 1 view .LVU14
  31:Core/Src/it_handlers.c ****             g_workMode = (g_workMode == 1) ? 2 : 1;
  93              		.loc 1 31 13 view .LVU15
  94              		.loc 1 31 38 is_stmt 0 view .LVU16
  95 002a 0C4B     		ldr	r3, .L10+12
  96 002c 1B78     		ldrb	r3, [r3]	@ zero_extendqisi2
  97 002e DBB2     		uxtb	r3, r3
  98              		.loc 1 31 24 view .LVU17
  99 0030 012B     		cmp	r3, #1
 100 0032 07D0     		beq	.L8
 101              		.loc 1 31 24 discriminator 2 view .LVU18
 102 0034 0122     		movs	r2, #1
 103              	.L6:
 104              		.loc 1 31 24 discriminator 4 view .LVU19
 105 0036 094B     		ldr	r3, .L10+12
 106 0038 1A70     		strb	r2, [r3]
  32:Core/Src/it_handlers.c **** 
  33:Core/Src/it_handlers.c ****             // Â¶ÇÊûúÂàöÂàáÂà∞Ê®°Âºè2 => ÁÜÑÁÅ≠ÂÖ®ÈÉ®LED
  34:Core/Src/it_handlers.c ****             // Â¶ÇÊûúÂàöÂàáÂà∞Ê®°Âºè1 => ÂèØ‰ª•ËÄÉËôëÊÅ¢Â§çÂØπÁÅØÈÄªËæë(‰ΩÜÈÄöÂ∏∏Ëá™Âä®ËøõË°å)
  35:Core/Src/it_handlers.c ****             if (g_workMode == 2)
 107              		.loc 1 35 13 is_stmt 1 view .LVU20
 108              		.loc 1 35 28 is_stmt 0 view .LVU21
 109 003a 1B78     		ldrb	r3, [r3]	@ zero_extendqisi2
 110 003c DBB2     		uxtb	r3, r3
 111              		.loc 1 35 16 view .LVU22
 112 003e 022B     		cmp	r3, #2
 113 0040 02D0     		beq	.L9
 114              	.L4:
 115              	.LBE2:
  36:Core/Src/it_handlers.c ****             {
  37:Core/Src/it_handlers.c ****                 // ÂÖ≥ÁÅØ
  38:Core/Src/it_handlers.c ****                 GPIOB->BSRR = ( LED1_PIN|LED2_PIN|LED3_PIN|
  39:Core/Src/it_handlers.c ****                                 LED4_PIN|LED5_PIN|LED6_PIN ) << 16;
  40:Core/Src/it_handlers.c ****             }
  41:Core/Src/it_handlers.c ****         }
  42:Core/Src/it_handlers.c ****     }
  43:Core/Src/it_handlers.c **** }
 116              		.loc 1 43 1 view .LVU23
 117 0042 7047     		bx	lr
 118              	.L8:
 119              	.LBB3:
  31:Core/Src/it_handlers.c **** 
 120              		.loc 1 31 24 discriminator 1 view .LVU24
 121 0044 0222     		movs	r2, #2
 122 0046 F6E7     		b	.L6
 123              	.L9:
  38:Core/Src/it_handlers.c ****                                 LED4_PIN|LED5_PIN|LED6_PIN ) << 16;
 124              		.loc 1 38 17 is_stmt 1 view .LVU25
  38:Core/Src/it_handlers.c ****                                 LED4_PIN|LED5_PIN|LED6_PIN ) << 16;
 125              		.loc 1 38 29 is_stmt 0 view .LVU26
 126 0048 054B     		ldr	r3, .L10+16
 127 004a 064A     		ldr	r2, .L10+20
 128 004c 9A61     		str	r2, [r3, #24]
ARM GAS  C:\Users\∑∂\AppData\Local\Temp\cctc6sIj.s 			page 4


 129              	.LBE3:
 130              		.loc 1 43 1 view .LVU27
 131 004e F8E7     		b	.L4
 132              	.L11:
 133              		.align	2
 134              	.L10:
 135 0050 003C0140 		.word	1073822720
 136 0054 00000000 		.word	g_systickCount
 137 0058 00000000 		.word	btn1_lastPress
 138 005c 00000000 		.word	g_workMode
 139 0060 00040240 		.word	1073873920
 140 0064 0000C740 		.word	1086783488
 141              		.cfi_endproc
 142              	.LFE131:
 144              		.section	.text.EXTI9_5_IRQHandler,"ax",%progbits
 145              		.align	1
 146              		.global	EXTI9_5_IRQHandler
 147              		.syntax unified
 148              		.thumb
 149              		.thumb_func
 151              	EXTI9_5_IRQHandler:
 152              	.LFB132:
  44:Core/Src/it_handlers.c **** 
  45:Core/Src/it_handlers.c **** // -------------------- PC6, PC7 => EXTI9_5_IRQHandler --------------------
  46:Core/Src/it_handlers.c **** void EXTI9_5_IRQHandler(void)
  47:Core/Src/it_handlers.c **** {
 153              		.loc 1 47 1 is_stmt 1 view -0
 154              		.cfi_startproc
 155              		@ args = 0, pretend = 0, frame = 0
 156              		@ frame_needed = 0, uses_anonymous_args = 0
 157              		@ link register save eliminated.
  48:Core/Src/it_handlers.c ****     // ÂÖàÊ£ÄÊµã PC6 => EXTI6 (ÊåâÈîÆ2)
  49:Core/Src/it_handlers.c ****     if (READ_BIT(EXTI->PR, EXTI_PR_PR6) != 0)
 158              		.loc 1 49 5 view .LVU29
 159              		.loc 1 49 9 is_stmt 0 view .LVU30
 160 0000 344B     		ldr	r3, .L18
 161 0002 5B69     		ldr	r3, [r3, #20]
 162              		.loc 1 49 8 view .LVU31
 163 0004 13F0400F 		tst	r3, #64
 164 0008 24D0     		beq	.L13
  50:Core/Src/it_handlers.c ****     {
  51:Core/Src/it_handlers.c ****         SET_BIT(EXTI->PR, EXTI_PR_PR6);
 165              		.loc 1 51 9 is_stmt 1 view .LVU32
 166 000a 324A     		ldr	r2, .L18
 167 000c 5369     		ldr	r3, [r2, #20]
 168 000e 43F04003 		orr	r3, r3, #64
 169 0012 5361     		str	r3, [r2, #20]
  52:Core/Src/it_handlers.c **** 
  53:Core/Src/it_handlers.c ****         if ( (g_systickCount - btn2_lastPress) >= DELAY_BUTTON_FILTER )
 170              		.loc 1 53 9 view .LVU33
 171              		.loc 1 53 30 is_stmt 0 view .LVU34
 172 0014 304B     		ldr	r3, .L18+4
 173 0016 1B68     		ldr	r3, [r3]
 174 0018 304A     		ldr	r2, .L18+8
 175 001a 1268     		ldr	r2, [r2]
 176 001c 9B1A     		subs	r3, r3, r2
 177              		.loc 1 53 12 view .LVU35
ARM GAS  C:\Users\∑∂\AppData\Local\Temp\cctc6sIj.s 			page 5


 178 001e C72B     		cmp	r3, #199
 179 0020 18D9     		bls	.L13
 180              	.LBB4:
  54:Core/Src/it_handlers.c ****         {
  55:Core/Src/it_handlers.c ****             btn2_lastPress = g_systickCount;
 181              		.loc 1 55 13 is_stmt 1 view .LVU36
 182              		.loc 1 55 28 is_stmt 0 view .LVU37
 183 0022 2D4B     		ldr	r3, .L18+4
 184 0024 1A68     		ldr	r2, [r3]
 185 0026 2D4B     		ldr	r3, .L18+8
 186 0028 1A60     		str	r2, [r3]
  56:Core/Src/it_handlers.c ****             
  57:Core/Src/it_handlers.c ****             extern volatile uint8_t g_workMode; 
 187              		.loc 1 57 13 is_stmt 1 view .LVU38
  58:Core/Src/it_handlers.c ****             if (g_workMode == 1)
 188              		.loc 1 58 13 view .LVU39
 189              		.loc 1 58 28 is_stmt 0 view .LVU40
 190 002a 2D4B     		ldr	r3, .L18+12
 191 002c 1B78     		ldrb	r3, [r3]	@ zero_extendqisi2
 192 002e DBB2     		uxtb	r3, r3
 193              		.loc 1 58 16 view .LVU41
 194 0030 012B     		cmp	r3, #1
 195 0032 2AD0     		beq	.L16
 196              	.LBB5:
  59:Core/Src/it_handlers.c ****             {
  60:Core/Src/it_handlers.c ****                 // Ê®°Âºè1 => ÂàáÊç¢ ÂØπÁÅØ È¢ëÁéá
  61:Core/Src/it_handlers.c ****                 extern volatile uint8_t g_mode1FreqIndex; 
  62:Core/Src/it_handlers.c ****                 g_mode1FreqIndex = (g_mode1FreqIndex + 1) % 3; 
  63:Core/Src/it_handlers.c ****             }
  64:Core/Src/it_handlers.c ****             else
  65:Core/Src/it_handlers.c ****             {
  66:Core/Src/it_handlers.c ****                 // Ê®°Âºè2 => ÂàáÊç¢‚ÄúÂΩìÂâçLED‚ÄùÁöÑÈ¢ëÁéá
  67:Core/Src/it_handlers.c ****                 extern volatile uint8_t g_currentLedIndex[6];
 197              		.loc 1 67 17 is_stmt 1 view .LVU42
  68:Core/Src/it_handlers.c ****                 extern volatile uint8_t g_selectedLed; 
 198              		.loc 1 68 17 view .LVU43
  69:Core/Src/it_handlers.c ****                 // ÂØπ g_selectedLed ÂØπÂ∫îÁöÑ freqIndex Ëá™Â¢û
  70:Core/Src/it_handlers.c ****                 // Â¶ÇÊûúÂéüÂÖà -1 Ë°®Á§∫Êú™ÊøÄÊ¥ªÔºå‰πüÂèØ‰ª•ÂÖà‰ª§ÂÖ∂=0ÂÜçÂàáÊç¢Ôºõ
  71:Core/Src/it_handlers.c ****                 // ËøôÈáåÁÆÄÂåñÔºöÂÅáËÆæ‰∏ÄÊó¶Ë¢´ÈÄâ‰∏≠ËøáÔºåÂ∞±ÂøÖÊúâ freqIndex>=0
  72:Core/Src/it_handlers.c ****                 g_currentLedIndex[g_selectedLed] 
 199              		.loc 1 72 17 view .LVU44
  73:Core/Src/it_handlers.c ****                     = (g_currentLedIndex[g_selectedLed] + 1) % 3;
 200              		.loc 1 73 41 is_stmt 0 view .LVU45
 201 0034 2B48     		ldr	r0, .L18+16
 202 0036 0378     		ldrb	r3, [r0]	@ zero_extendqisi2
 203 0038 DBB2     		uxtb	r3, r3
 204 003a 2B49     		ldr	r1, .L18+20
 205 003c CA5C     		ldrb	r2, [r1, r3]	@ zero_extendqisi2
 206              		.loc 1 73 57 view .LVU46
 207 003e 0132     		adds	r2, r2, #1
 208              		.loc 1 73 62 view .LVU47
 209 0040 2A4B     		ldr	r3, .L18+24
 210 0042 83FB02C3 		smull	ip, r3, r3, r2
 211 0046 03EB4303 		add	r3, r3, r3, lsl #1
 212 004a D31A     		subs	r3, r2, r3
  72:Core/Src/it_handlers.c ****                     = (g_currentLedIndex[g_selectedLed] + 1) % 3;
 213              		.loc 1 72 34 view .LVU48
ARM GAS  C:\Users\∑∂\AppData\Local\Temp\cctc6sIj.s 			page 6


 214 004c 0278     		ldrb	r2, [r0]	@ zero_extendqisi2
 215 004e D2B2     		uxtb	r2, r2
 216              		.loc 1 73 21 view .LVU49
 217 0050 DBB2     		uxtb	r3, r3
 218 0052 8B54     		strb	r3, [r1, r2]
 219              	.L13:
 220              	.LBE5:
 221              	.LBE4:
  74:Core/Src/it_handlers.c ****             }
  75:Core/Src/it_handlers.c ****         }
  76:Core/Src/it_handlers.c ****     }
  77:Core/Src/it_handlers.c **** 
  78:Core/Src/it_handlers.c ****     // ÂÜçÊ£ÄÊµã PC7 => EXTI7 (ÊåâÈîÆ3)
  79:Core/Src/it_handlers.c ****     if (READ_BIT(EXTI->PR, EXTI_PR_PR7) != 0)
 222              		.loc 1 79 5 is_stmt 1 view .LVU50
 223              		.loc 1 79 9 is_stmt 0 view .LVU51
 224 0054 1F4B     		ldr	r3, .L18
 225 0056 5B69     		ldr	r3, [r3, #20]
 226              		.loc 1 79 8 view .LVU52
 227 0058 13F0800F 		tst	r3, #128
 228 005c 14D0     		beq	.L12
  80:Core/Src/it_handlers.c ****     {
  81:Core/Src/it_handlers.c ****         SET_BIT(EXTI->PR, EXTI_PR_PR7);
 229              		.loc 1 81 9 is_stmt 1 view .LVU53
 230 005e 1D4A     		ldr	r2, .L18
 231 0060 5369     		ldr	r3, [r2, #20]
 232 0062 43F08003 		orr	r3, r3, #128
 233 0066 5361     		str	r3, [r2, #20]
  82:Core/Src/it_handlers.c **** 
  83:Core/Src/it_handlers.c ****         if ( (g_systickCount - btn3_lastPress) >= DELAY_BUTTON_FILTER )
 234              		.loc 1 83 9 view .LVU54
 235              		.loc 1 83 30 is_stmt 0 view .LVU55
 236 0068 1B4B     		ldr	r3, .L18+4
 237 006a 1B68     		ldr	r3, [r3]
 238 006c 204A     		ldr	r2, .L18+28
 239 006e 1268     		ldr	r2, [r2]
 240 0070 9B1A     		subs	r3, r3, r2
 241              		.loc 1 83 12 view .LVU56
 242 0072 C72B     		cmp	r3, #199
 243 0074 08D9     		bls	.L12
 244              	.LBB7:
  84:Core/Src/it_handlers.c ****         {
  85:Core/Src/it_handlers.c ****             btn3_lastPress = g_systickCount;
 245              		.loc 1 85 13 is_stmt 1 view .LVU57
 246              		.loc 1 85 28 is_stmt 0 view .LVU58
 247 0076 184B     		ldr	r3, .L18+4
 248 0078 1A68     		ldr	r2, [r3]
 249 007a 1D4B     		ldr	r3, .L18+28
 250 007c 1A60     		str	r2, [r3]
  86:Core/Src/it_handlers.c **** 
  87:Core/Src/it_handlers.c ****             extern volatile uint8_t g_workMode; 
 251              		.loc 1 87 13 is_stmt 1 view .LVU59
  88:Core/Src/it_handlers.c ****             if (g_workMode == 2)
 252              		.loc 1 88 13 view .LVU60
 253              		.loc 1 88 28 is_stmt 0 view .LVU61
 254 007e 184B     		ldr	r3, .L18+12
 255 0080 1B78     		ldrb	r3, [r3]	@ zero_extendqisi2
ARM GAS  C:\Users\∑∂\AppData\Local\Temp\cctc6sIj.s 			page 7


 256 0082 DBB2     		uxtb	r3, r3
 257              		.loc 1 88 16 view .LVU62
 258 0084 022B     		cmp	r3, #2
 259 0086 0DD0     		beq	.L17
 260              	.L12:
 261              	.LBE7:
  89:Core/Src/it_handlers.c ****             {
  90:Core/Src/it_handlers.c ****                 // Ê®°Âºè2 => ÈÄâÊã©‰∏ã‰∏Ä‰∏™LED
  91:Core/Src/it_handlers.c ****                 extern volatile uint8_t g_selectedLed;
  92:Core/Src/it_handlers.c ****                 extern volatile uint8_t g_currentLedIndex[6];
  93:Core/Src/it_handlers.c **** 
  94:Core/Src/it_handlers.c ****                 g_selectedLed = (g_selectedLed + 1) % 6;
  95:Core/Src/it_handlers.c ****                 // Ëã•ËØ•LEDËøòÊ≤°Ë¢´ÊøÄÊ¥ªËøá(ÂèØÁî®-1Ë°®Á§∫)ÔºåÂàôËÆæ‰∏∫ freqIndex=0(0.3Hz)
  96:Core/Src/it_handlers.c ****                 if (g_currentLedIndex[g_selectedLed] > 2)
  97:Core/Src/it_handlers.c ****                 {
  98:Core/Src/it_handlers.c ****                     g_currentLedIndex[g_selectedLed] = 0;
  99:Core/Src/it_handlers.c ****                 }
 100:Core/Src/it_handlers.c ****             }
 101:Core/Src/it_handlers.c ****             else
 102:Core/Src/it_handlers.c ****             {
 103:Core/Src/it_handlers.c ****                 // Ê®°Âºè1 => ÊåâÈîÆ3‰∏çÂÅöÂäüËÉΩ
 104:Core/Src/it_handlers.c ****             }
 105:Core/Src/it_handlers.c ****         }
 106:Core/Src/it_handlers.c ****     }
 107:Core/Src/it_handlers.c **** }...
 262              		.loc 1 107 1 view .LVU63
 263 0088 7047     		bx	lr
 264              	.L16:
 265              	.LBB9:
 266              	.LBB6:
  61:Core/Src/it_handlers.c ****                 extern volatile uint8_t g_mode1FreqIndex; 
 267              		.loc 1 61 17 is_stmt 1 view .LVU64
  62:Core/Src/it_handlers.c ****                 g_mode1FreqIndex = (g_mode1FreqIndex + 1) % 3; 
 268              		.loc 1 62 17 view .LVU65
  62:Core/Src/it_handlers.c ****                 g_mode1FreqIndex = (g_mode1FreqIndex + 1) % 3; 
 269              		.loc 1 62 54 is_stmt 0 view .LVU66
 270 008a 1A49     		ldr	r1, .L18+32
 271 008c 0A78     		ldrb	r2, [r1]	@ zero_extendqisi2
 272 008e 0132     		adds	r2, r2, #1
  62:Core/Src/it_handlers.c ****                 g_mode1FreqIndex = (g_mode1FreqIndex + 1) % 3; 
 273              		.loc 1 62 59 view .LVU67
 274 0090 03F15533 		add	r3, r3, #1431655765
 275 0094 83FB0203 		smull	r0, r3, r3, r2
 276 0098 03EB4303 		add	r3, r3, r3, lsl #1
 277 009c D31A     		subs	r3, r2, r3
  62:Core/Src/it_handlers.c ****                 g_mode1FreqIndex = (g_mode1FreqIndex + 1) % 3; 
 278              		.loc 1 62 34 view .LVU68
 279 009e DBB2     		uxtb	r3, r3
 280 00a0 0B70     		strb	r3, [r1]
 281              	.LBE6:
 282 00a2 D7E7     		b	.L13
 283              	.L17:
 284              	.LBE9:
 285              	.LBB10:
 286              	.LBB8:
  91:Core/Src/it_handlers.c ****                 extern volatile uint8_t g_selectedLed;
 287              		.loc 1 91 17 is_stmt 1 view .LVU69
ARM GAS  C:\Users\∑∂\AppData\Local\Temp\cctc6sIj.s 			page 8


  92:Core/Src/it_handlers.c ****                 extern volatile uint8_t g_currentLedIndex[6];
 288              		.loc 1 92 17 view .LVU70
  94:Core/Src/it_handlers.c ****                 g_selectedLed = (g_selectedLed + 1) % 6;
 289              		.loc 1 94 17 view .LVU71
  94:Core/Src/it_handlers.c ****                 g_selectedLed = (g_selectedLed + 1) % 6;
 290              		.loc 1 94 48 is_stmt 0 view .LVU72
 291 00a4 0F49     		ldr	r1, .L18+16
 292 00a6 0A78     		ldrb	r2, [r1]	@ zero_extendqisi2
 293 00a8 0132     		adds	r2, r2, #1
  94:Core/Src/it_handlers.c ****                 g_selectedLed = (g_selectedLed + 1) % 6;
 294              		.loc 1 94 53 view .LVU73
 295 00aa 134B     		ldr	r3, .L18+36
 296 00ac 83FB0203 		smull	r0, r3, r3, r2
 297 00b0 03EB4303 		add	r3, r3, r3, lsl #1
 298 00b4 5800     		lsls	r0, r3, #1
 299 00b6 131A     		subs	r3, r2, r0
  94:Core/Src/it_handlers.c ****                 g_selectedLed = (g_selectedLed + 1) % 6;
 300              		.loc 1 94 31 view .LVU74
 301 00b8 DBB2     		uxtb	r3, r3
 302 00ba 0B70     		strb	r3, [r1]
  96:Core/Src/it_handlers.c ****                 if (g_currentLedIndex[g_selectedLed] > 2)
 303              		.loc 1 96 17 is_stmt 1 view .LVU75
  96:Core/Src/it_handlers.c ****                 if (g_currentLedIndex[g_selectedLed] > 2)
 304              		.loc 1 96 38 is_stmt 0 view .LVU76
 305 00bc 0B78     		ldrb	r3, [r1]	@ zero_extendqisi2
 306 00be DBB2     		uxtb	r3, r3
 307 00c0 094A     		ldr	r2, .L18+20
 308 00c2 D35C     		ldrb	r3, [r2, r3]	@ zero_extendqisi2
 309 00c4 DBB2     		uxtb	r3, r3
  96:Core/Src/it_handlers.c ****                 if (g_currentLedIndex[g_selectedLed] > 2)
 310              		.loc 1 96 20 view .LVU77
 311 00c6 022B     		cmp	r3, #2
 312 00c8 DED9     		bls	.L12
  98:Core/Src/it_handlers.c ****                     g_currentLedIndex[g_selectedLed] = 0;
 313              		.loc 1 98 21 is_stmt 1 view .LVU78
  98:Core/Src/it_handlers.c ****                     g_currentLedIndex[g_selectedLed] = 0;
 314              		.loc 1 98 38 is_stmt 0 view .LVU79
 315 00ca 0B78     		ldrb	r3, [r1]	@ zero_extendqisi2
 316 00cc DBB2     		uxtb	r3, r3
  98:Core/Src/it_handlers.c ****                     g_currentLedIndex[g_selectedLed] = 0;
 317              		.loc 1 98 54 view .LVU80
 318 00ce 0021     		movs	r1, #0
 319 00d0 D154     		strb	r1, [r2, r3]
 320              	.LBE8:
 104:Core/Src/it_handlers.c ****             }
 321              		.loc 1 104 13 is_stmt 1 view .LVU81
 322              	.LBE10:
 323              		.loc 1 107 1 is_stmt 0 view .LVU82
 324 00d2 D9E7     		b	.L12
 325              	.L19:
 326              		.align	2
 327              	.L18:
 328 00d4 003C0140 		.word	1073822720
 329 00d8 00000000 		.word	g_systickCount
 330 00dc 00000000 		.word	btn2_lastPress
 331 00e0 00000000 		.word	g_workMode
 332 00e4 00000000 		.word	g_selectedLed
ARM GAS  C:\Users\∑∂\AppData\Local\Temp\cctc6sIj.s 			page 9


 333 00e8 00000000 		.word	g_currentLedIndex
 334 00ec 56555555 		.word	1431655766
 335 00f0 00000000 		.word	btn3_lastPress
 336 00f4 00000000 		.word	g_mode1FreqIndex
 337 00f8 ABAAAA2A 		.word	715827883
 338              		.cfi_endproc
 339              	.LFE132:
 341              		.section	.bss.btn3_lastPress,"aw",%nobits
 342              		.align	2
 345              	btn3_lastPress:
 346 0000 00000000 		.space	4
 347              		.section	.bss.btn2_lastPress,"aw",%nobits
 348              		.align	2
 351              	btn2_lastPress:
 352 0000 00000000 		.space	4
 353              		.section	.bss.btn1_lastPress,"aw",%nobits
 354              		.align	2
 357              	btn1_lastPress:
 358 0000 00000000 		.space	4
 359              		.text
 360              	.Letext0:
 361              		.file 2 "F:/STM32Tools/SysGCC/arm-none-eabi/include/machine/_default_types.h"
 362              		.file 3 "F:/STM32Tools/SysGCC/arm-none-eabi/include/sys/_stdint.h"
 363              		.file 4 "Core/Inc/../../CMSIS/Devices/stm32f429xx.h"
ARM GAS  C:\Users\∑∂\AppData\Local\Temp\cctc6sIj.s 			page 10

