ARM GAS  C:\Users\Sunne\AppData\Local\Temp\ccUx1Jdk.s 			page 1


   1              		.cpu cortex-m4
   2              		.arch armv7e-m
   3              		.fpu fpv4-sp-d16
   4              		.eabi_attribute 27, 1
   5              		.eabi_attribute 28, 1
   6              		.eabi_attribute 20, 1
   7              		.eabi_attribute 21, 1
   8              		.eabi_attribute 23, 3
   9              		.eabi_attribute 24, 1
  10              		.eabi_attribute 25, 1
  11              		.eabi_attribute 26, 1
  12              		.eabi_attribute 30, 1
  13              		.eabi_attribute 34, 1
  14              		.eabi_attribute 18, 4
  15              		.file	"it_handlers.c"
  16              		.text
  17              	.Ltext0:
  18              		.cfi_sections	.debug_frame
  19              		.file 1 "Core/Src/it_handlers.c"
  20              		.section	.text.SysTick_Handler,"ax",%progbits
  21              		.align	1
  22              		.global	SysTick_Handler
  23              		.syntax unified
  24              		.thumb
  25              		.thumb_func
  27              	SysTick_Handler:
  28              	.LFB130:
   1:Core/Src/it_handlers.c **** #include "it_handlers.h"
   2:Core/Src/it_handlers.c **** 
   3:Core/Src/it_handlers.c **** extern uint16_t FLICKER_PERIOD; // 闪烁周期
   4:Core/Src/it_handlers.c **** extern uint16_t GlobalTickCount,    // 全局时间计数
   5:Core/Src/it_handlers.c ****                 ExternInterruptTickCount1,  // 按钮1中断计数
   6:Core/Src/it_handlers.c ****                 ExternInterruptTickCount2,  // 按钮2中断计数
   7:Core/Src/it_handlers.c ****                 ExternInterruptTickCount3;  // 按钮3中断计数
   8:Core/Src/it_handlers.c **** extern uint16_t LedState2Data[3][6]; // LED状态数据
   9:Core/Src/it_handlers.c **** 
  10:Core/Src/it_handlers.c **** // 系统定时器中断处理函数
  11:Core/Src/it_handlers.c **** void SysTick_Handler(void)
  12:Core/Src/it_handlers.c **** {
  29              		.loc 1 12 1 view -0
  30              		.cfi_startproc
  31              		@ args = 0, pretend = 0, frame = 0
  32              		@ frame_needed = 0, uses_anonymous_args = 0
  33              		@ link register save eliminated.
  13:Core/Src/it_handlers.c ****     // 增加外部中断计数
  14:Core/Src/it_handlers.c ****     ExternInterruptTickCount1++;
  34              		.loc 1 14 5 view .LVU1
  35              		.loc 1 14 30 is_stmt 0 view .LVU2
  36 0000 0D4A     		ldr	r2, .L4
  37 0002 1388     		ldrh	r3, [r2]
  38 0004 0133     		adds	r3, r3, #1
  39 0006 1380     		strh	r3, [r2]	@ movhi
  15:Core/Src/it_handlers.c ****     ExternInterruptTickCount2++;
  40              		.loc 1 15 5 is_stmt 1 view .LVU3
  41              		.loc 1 15 30 is_stmt 0 view .LVU4
  42 0008 0C4A     		ldr	r2, .L4+4
  43 000a 1388     		ldrh	r3, [r2]
ARM GAS  C:\Users\Sunne\AppData\Local\Temp\ccUx1Jdk.s 			page 2


  44 000c 0133     		adds	r3, r3, #1
  45 000e 1380     		strh	r3, [r2]	@ movhi
  16:Core/Src/it_handlers.c ****     ExternInterruptTickCount3++;
  46              		.loc 1 16 5 is_stmt 1 view .LVU5
  47              		.loc 1 16 30 is_stmt 0 view .LVU6
  48 0010 0B4A     		ldr	r2, .L4+8
  49 0012 1388     		ldrh	r3, [r2]
  50 0014 0133     		adds	r3, r3, #1
  51 0016 1380     		strh	r3, [r2]	@ movhi
  17:Core/Src/it_handlers.c **** 
  18:Core/Src/it_handlers.c ****     // 增加 LED 状态的数据
  19:Core/Src/it_handlers.c ****     for(int ii = 0; ii < 6; ii++){
  52              		.loc 1 19 5 is_stmt 1 view .LVU7
  53              	.LBB2:
  54              		.loc 1 19 9 view .LVU8
  55              	.LVL0:
  56              		.loc 1 19 13 is_stmt 0 view .LVU9
  57 0018 0023     		movs	r3, #0
  58              		.loc 1 19 5 view .LVU10
  59 001a 06E0     		b	.L2
  60              	.LVL1:
  61              	.L3:
  20:Core/Src/it_handlers.c ****         LedState2Data[0][ii]++;
  62              		.loc 1 20 9 is_stmt 1 view .LVU11
  63              		.loc 1 20 25 is_stmt 0 view .LVU12
  64 001c 0949     		ldr	r1, .L4+12
  65 001e 31F81320 		ldrh	r2, [r1, r3, lsl #1]
  66              		.loc 1 20 29 view .LVU13
  67 0022 0132     		adds	r2, r2, #1
  68 0024 21F81320 		strh	r2, [r1, r3, lsl #1]	@ movhi
  19:Core/Src/it_handlers.c ****         LedState2Data[0][ii]++;
  69              		.loc 1 19 31 is_stmt 1 discriminator 3 view .LVU14
  70 0028 0133     		adds	r3, r3, #1
  71              	.LVL2:
  72              	.L2:
  19:Core/Src/it_handlers.c ****         LedState2Data[0][ii]++;
  73              		.loc 1 19 24 discriminator 1 view .LVU15
  74 002a 052B     		cmp	r3, #5
  75 002c F6DD     		ble	.L3
  76              	.LBE2:
  21:Core/Src/it_handlers.c ****     }
  22:Core/Src/it_handlers.c **** 
  23:Core/Src/it_handlers.c ****     // 全局时间计数增加
  24:Core/Src/it_handlers.c ****     GlobalTickCount++;
  77              		.loc 1 24 5 view .LVU16
  78              		.loc 1 24 20 is_stmt 0 view .LVU17
  79 002e 064A     		ldr	r2, .L4+16
  80 0030 1388     		ldrh	r3, [r2]
  81              	.LVL3:
  82              		.loc 1 24 20 view .LVU18
  83 0032 0133     		adds	r3, r3, #1
  84 0034 1380     		strh	r3, [r2]	@ movhi
  25:Core/Src/it_handlers.c **** }
  85              		.loc 1 25 1 view .LVU19
  86 0036 7047     		bx	lr
  87              	.L5:
  88              		.align	2
ARM GAS  C:\Users\Sunne\AppData\Local\Temp\ccUx1Jdk.s 			page 3


  89              	.L4:
  90 0038 00000000 		.word	ExternInterruptTickCount1
  91 003c 00000000 		.word	ExternInterruptTickCount2
  92 0040 00000000 		.word	ExternInterruptTickCount3
  93 0044 00000000 		.word	LedState2Data
  94 0048 00000000 		.word	GlobalTickCount
  95              		.cfi_endproc
  96              	.LFE130:
  98              		.section	.text.EXTI0_IRQHandler,"ax",%progbits
  99              		.align	1
 100              		.global	EXTI0_IRQHandler
 101              		.syntax unified
 102              		.thumb
 103              		.thumb_func
 105              	EXTI0_IRQHandler:
 106              	.LFB131:
  26:Core/Src/it_handlers.c **** 
  27:Core/Src/it_handlers.c **** // EXTI0 按钮 1 中断处理函数
  28:Core/Src/it_handlers.c **** void EXTI0_IRQHandler(void)
  29:Core/Src/it_handlers.c **** {
 107              		.loc 1 29 1 is_stmt 1 view -0
 108              		.cfi_startproc
 109              		@ args = 0, pretend = 0, frame = 0
 110              		@ frame_needed = 0, uses_anonymous_args = 0
 111 0000 08B5     		push	{r3, lr}
 112              	.LCFI0:
 113              		.cfi_def_cfa_offset 8
 114              		.cfi_offset 3, -8
 115              		.cfi_offset 14, -4
  30:Core/Src/it_handlers.c ****     SET_BIT(EXTI->PR, EXTI_PR_PR0); // 清除中断标志
 116              		.loc 1 30 5 view .LVU21
 117 0002 044A     		ldr	r2, .L8
 118 0004 5369     		ldr	r3, [r2, #20]
 119 0006 43F00103 		orr	r3, r3, #1
 120 000a 5361     		str	r3, [r2, #20]
  31:Core/Src/it_handlers.c ****     b1_clicked();  // 调用按钮1点击事件
 121              		.loc 1 31 5 view .LVU22
 122 000c FFF7FEFF 		bl	b1_clicked
 123              	.LVL4:
  32:Core/Src/it_handlers.c **** }
 124              		.loc 1 32 1 is_stmt 0 view .LVU23
 125 0010 08BD     		pop	{r3, pc}
 126              	.L9:
 127 0012 00BF     		.align	2
 128              	.L8:
 129 0014 003C0140 		.word	1073822720
 130              		.cfi_endproc
 131              	.LFE131:
 133              		.section	.text.EXTI9_5_IRQHandler,"ax",%progbits
 134              		.align	1
 135              		.global	EXTI9_5_IRQHandler
 136              		.syntax unified
 137              		.thumb
 138              		.thumb_func
 140              	EXTI9_5_IRQHandler:
 141              	.LFB132:
  33:Core/Src/it_handlers.c **** 
ARM GAS  C:\Users\Sunne\AppData\Local\Temp\ccUx1Jdk.s 			page 4


  34:Core/Src/it_handlers.c **** // EXTI9_5 按钮 2 中断处理函数
  35:Core/Src/it_handlers.c **** void EXTI9_5_IRQHandler(void)
  36:Core/Src/it_handlers.c **** {
 142              		.loc 1 36 1 is_stmt 1 view -0
 143              		.cfi_startproc
 144              		@ args = 0, pretend = 0, frame = 0
 145              		@ frame_needed = 0, uses_anonymous_args = 0
 146 0000 08B5     		push	{r3, lr}
 147              	.LCFI1:
 148              		.cfi_def_cfa_offset 8
 149              		.cfi_offset 3, -8
 150              		.cfi_offset 14, -4
  37:Core/Src/it_handlers.c ****     SET_BIT(EXTI->PR, EXTI_PR_PR9); // 清除中断标志
 151              		.loc 1 37 5 view .LVU25
 152 0002 044A     		ldr	r2, .L12
 153 0004 5369     		ldr	r3, [r2, #20]
 154 0006 43F40073 		orr	r3, r3, #512
 155 000a 5361     		str	r3, [r2, #20]
  38:Core/Src/it_handlers.c ****     b2_clicked();  // 调用按钮2点击事件
 156              		.loc 1 38 5 view .LVU26
 157 000c FFF7FEFF 		bl	b2_clicked
 158              	.LVL5:
  39:Core/Src/it_handlers.c **** }
 159              		.loc 1 39 1 is_stmt 0 view .LVU27
 160 0010 08BD     		pop	{r3, pc}
 161              	.L13:
 162 0012 00BF     		.align	2
 163              	.L12:
 164 0014 003C0140 		.word	1073822720
 165              		.cfi_endproc
 166              	.LFE132:
 168              		.section	.text.EXTI15_10_IRQHandler,"ax",%progbits
 169              		.align	1
 170              		.global	EXTI15_10_IRQHandler
 171              		.syntax unified
 172              		.thumb
 173              		.thumb_func
 175              	EXTI15_10_IRQHandler:
 176              	.LFB133:
  40:Core/Src/it_handlers.c **** 
  41:Core/Src/it_handlers.c **** // EXTI15_10 按钮 3 中断处理函数
  42:Core/Src/it_handlers.c **** void EXTI15_10_IRQHandler(void)
  43:Core/Src/it_handlers.c **** {
 177              		.loc 1 43 1 is_stmt 1 view -0
 178              		.cfi_startproc
 179              		@ args = 0, pretend = 0, frame = 0
 180              		@ frame_needed = 0, uses_anonymous_args = 0
 181 0000 08B5     		push	{r3, lr}
 182              	.LCFI2:
 183              		.cfi_def_cfa_offset 8
 184              		.cfi_offset 3, -8
 185              		.cfi_offset 14, -4
  44:Core/Src/it_handlers.c ****     SET_BIT(EXTI->PR, EXTI_PR_PR12); // 清除中断标志
 186              		.loc 1 44 5 view .LVU29
 187 0002 044A     		ldr	r2, .L16
 188 0004 5369     		ldr	r3, [r2, #20]
 189 0006 43F48053 		orr	r3, r3, #4096
ARM GAS  C:\Users\Sunne\AppData\Local\Temp\ccUx1Jdk.s 			page 5


 190 000a 5361     		str	r3, [r2, #20]
  45:Core/Src/it_handlers.c ****     b3_clicked();  // 调用按钮3点击事件
 191              		.loc 1 45 5 view .LVU30
 192 000c FFF7FEFF 		bl	b3_clicked
 193              	.LVL6:
  46:Core/Src/it_handlers.c **** }
 194              		.loc 1 46 1 is_stmt 0 view .LVU31
 195 0010 08BD     		pop	{r3, pc}
 196              	.L17:
 197 0012 00BF     		.align	2
 198              	.L16:
 199 0014 003C0140 		.word	1073822720
 200              		.cfi_endproc
 201              	.LFE133:
 203              		.text
 204              	.Letext0:
 205              		.file 2 "D:/huanjingbianliang/xpack-arm-none-eabi-gcc-13.2.1-1.1-win32-x64/xpack-arm-none-eabi-gcc
 206              		.file 3 "D:/huanjingbianliang/xpack-arm-none-eabi-gcc-13.2.1-1.1-win32-x64/xpack-arm-none-eabi-gcc
 207              		.file 4 "CMSIS/Devices/Inc/stm32f429xx.h"
ARM GAS  C:\Users\Sunne\AppData\Local\Temp\ccUx1Jdk.s 			page 6


DEFINED SYMBOLS
                            *ABS*:00000000 it_handlers.c
C:\Users\Sunne\AppData\Local\Temp\ccUx1Jdk.s:21     .text.SysTick_Handler:00000000 $t
C:\Users\Sunne\AppData\Local\Temp\ccUx1Jdk.s:27     .text.SysTick_Handler:00000000 SysTick_Handler
C:\Users\Sunne\AppData\Local\Temp\ccUx1Jdk.s:90     .text.SysTick_Handler:00000038 $d
C:\Users\Sunne\AppData\Local\Temp\ccUx1Jdk.s:99     .text.EXTI0_IRQHandler:00000000 $t
C:\Users\Sunne\AppData\Local\Temp\ccUx1Jdk.s:105    .text.EXTI0_IRQHandler:00000000 EXTI0_IRQHandler
C:\Users\Sunne\AppData\Local\Temp\ccUx1Jdk.s:129    .text.EXTI0_IRQHandler:00000014 $d
C:\Users\Sunne\AppData\Local\Temp\ccUx1Jdk.s:134    .text.EXTI9_5_IRQHandler:00000000 $t
C:\Users\Sunne\AppData\Local\Temp\ccUx1Jdk.s:140    .text.EXTI9_5_IRQHandler:00000000 EXTI9_5_IRQHandler
C:\Users\Sunne\AppData\Local\Temp\ccUx1Jdk.s:164    .text.EXTI9_5_IRQHandler:00000014 $d
C:\Users\Sunne\AppData\Local\Temp\ccUx1Jdk.s:169    .text.EXTI15_10_IRQHandler:00000000 $t
C:\Users\Sunne\AppData\Local\Temp\ccUx1Jdk.s:175    .text.EXTI15_10_IRQHandler:00000000 EXTI15_10_IRQHandler
C:\Users\Sunne\AppData\Local\Temp\ccUx1Jdk.s:199    .text.EXTI15_10_IRQHandler:00000014 $d

UNDEFINED SYMBOLS
ExternInterruptTickCount1
ExternInterruptTickCount2
ExternInterruptTickCount3
LedState2Data
GlobalTickCount
b1_clicked
b2_clicked
b3_clicked
