ARM GAS  C:\Users\mns94\AppData\Local\Temp\ccw5G8xd.s 			page 1


   1              		.cpu cortex-m7
   2              		.arch armv7e-m
   3              		.fpu fpv5-d16
   4              		.eabi_attribute 28, 1
   5              		.eabi_attribute 20, 1
   6              		.eabi_attribute 21, 1
   7              		.eabi_attribute 23, 3
   8              		.eabi_attribute 24, 1
   9              		.eabi_attribute 25, 1
  10              		.eabi_attribute 26, 1
  11              		.eabi_attribute 30, 1
  12              		.eabi_attribute 34, 1
  13              		.eabi_attribute 18, 4
  14              		.file	"leds.c"
  15              		.text
  16              	.Ltext0:
  17              		.cfi_sections	.debug_frame
  18              		.file 1 "Core/Src/leds.c"
  19              		.section	.text.b1_clicked,"ax",%progbits
  20              		.align	1
  21              		.global	b1_clicked
  22              		.syntax unified
  23              		.thumb
  24              		.thumb_func
  26              	b1_clicked:
  27              	.LFB141:
   1:Core/Src/leds.c **** #include "leds.h"
   2:Core/Src/leds.c **** #include "it_handlers.h"
   3:Core/Src/leds.c **** 
   4:Core/Src/leds.c **** extern uint16_t FLICKER_PERIOD;
   5:Core/Src/leds.c **** extern uint8_t LedState; 
   6:Core/Src/leds.c **** extern uint8_t b1_clicks;
   7:Core/Src/leds.c **** extern uint8_t b2_clicks;
   8:Core/Src/leds.c **** extern uint8_t b3_clicks;
   9:Core/Src/leds.c **** extern uint16_t delay;
  10:Core/Src/leds.c **** uint8_t flag1 = 0;
  11:Core/Src/leds.c **** uint8_t flag2 = 0;
  12:Core/Src/leds.c **** uint8_t flag3 = 0;
  13:Core/Src/leds.c **** extern uint16_t GlobalTickCount, ExternInterruptTickCount1, ExternInterruptTickCount2, ExternInterr
  14:Core/Src/leds.c **** //////////////////////////////////////////////
  15:Core/Src/leds.c **** extern uint16_t LedFreq[2][3];
  16:Core/Src/leds.c **** 
  17:Core/Src/leds.c **** uint8_t led[] = {8, 9, 5, 12, 13, 15};
  18:Core/Src/leds.c **** extern uint16_t LedState2Data[3][6];
  19:Core/Src/leds.c **** 
  20:Core/Src/leds.c **** uint8_t flagUp = 1;
  21:Core/Src/leds.c **** extern uint8_t flagUp2;
  22:Core/Src/leds.c **** extern int8_t i1;
  23:Core/Src/leds.c **** extern int8_t i2;
  24:Core/Src/leds.c **** extern int8_t i3;
  25:Core/Src/leds.c **** 
  26:Core/Src/leds.c **** void b1_clicked(){
  28              		.loc 1 26 18 view -0
  29              		.cfi_startproc
  30              		@ args = 0, pretend = 0, frame = 0
  31              		@ frame_needed = 0, uses_anonymous_args = 0
  32              		@ link register save eliminated.
ARM GAS  C:\Users\mns94\AppData\Local\Temp\ccw5G8xd.s 			page 2


  27:Core/Src/leds.c ****     if (ExternInterruptTickCount1>= DELAY_BUTTON_FILTER)
  33              		.loc 1 27 5 view .LVU1
  34              		.loc 1 27 34 is_stmt 0 view .LVU2
  35 0000 0D4B     		ldr	r3, .L6
  36 0002 1B88     		ldrh	r3, [r3]
  37              		.loc 1 27 8 view .LVU3
  38 0004 B3F5FA7F 		cmp	r3, #500
  39 0008 0DD3     		bcc	.L1
  28:Core/Src/leds.c ****     {
  29:Core/Src/leds.c ****         if (flag1 == 1){
  40              		.loc 1 29 9 is_stmt 1 view .LVU4
  41              		.loc 1 29 19 is_stmt 0 view .LVU5
  42 000a 0C4B     		ldr	r3, .L6+4
  43 000c 1B78     		ldrb	r3, [r3]	@ zero_extendqisi2
  44              		.loc 1 29 12 view .LVU6
  45 000e 012B     		cmp	r3, #1
  46 0010 0AD0     		beq	.L5
  30:Core/Src/leds.c ****             flag1 = 0;
  31:Core/Src/leds.c ****             b1_clicks++;
  32:Core/Src/leds.c ****             
  33:Core/Src/leds.c ****         }else{
  34:Core/Src/leds.c ****             flag1 = 1;
  47              		.loc 1 34 13 is_stmt 1 view .LVU7
  48              		.loc 1 34 19 is_stmt 0 view .LVU8
  49 0012 0A4B     		ldr	r3, .L6+4
  50 0014 0122     		movs	r2, #1
  51 0016 1A70     		strb	r2, [r3]
  35:Core/Src/leds.c ****             b1_clicks++;
  52              		.loc 1 35 13 is_stmt 1 view .LVU9
  53              		.loc 1 35 22 is_stmt 0 view .LVU10
  54 0018 094A     		ldr	r2, .L6+8
  55 001a 1378     		ldrb	r3, [r2]	@ zero_extendqisi2
  56 001c 0133     		adds	r3, r3, #1
  57 001e 1370     		strb	r3, [r2]
  58              	.L4:
  36:Core/Src/leds.c ****         }
  37:Core/Src/leds.c ****         ExternInterruptTickCount1 = 0; // Обнуление счётчика таймера
  59              		.loc 1 37 9 is_stmt 1 view .LVU11
  60              		.loc 1 37 35 is_stmt 0 view .LVU12
  61 0020 054B     		ldr	r3, .L6
  62 0022 0022     		movs	r2, #0
  63 0024 1A80     		strh	r2, [r3]	@ movhi
  64              	.L1:
  38:Core/Src/leds.c ****     }
  39:Core/Src/leds.c **** }
  65              		.loc 1 39 1 view .LVU13
  66 0026 7047     		bx	lr
  67              	.L5:
  30:Core/Src/leds.c ****             b1_clicks++;
  68              		.loc 1 30 13 is_stmt 1 view .LVU14
  30:Core/Src/leds.c ****             b1_clicks++;
  69              		.loc 1 30 19 is_stmt 0 view .LVU15
  70 0028 044B     		ldr	r3, .L6+4
  71 002a 0022     		movs	r2, #0
  72 002c 1A70     		strb	r2, [r3]
  31:Core/Src/leds.c ****             
  73              		.loc 1 31 13 is_stmt 1 view .LVU16
ARM GAS  C:\Users\mns94\AppData\Local\Temp\ccw5G8xd.s 			page 3


  31:Core/Src/leds.c ****             
  74              		.loc 1 31 22 is_stmt 0 view .LVU17
  75 002e 044A     		ldr	r2, .L6+8
  76 0030 1378     		ldrb	r3, [r2]	@ zero_extendqisi2
  77 0032 0133     		adds	r3, r3, #1
  78 0034 1370     		strb	r3, [r2]
  79 0036 F3E7     		b	.L4
  80              	.L7:
  81              		.align	2
  82              	.L6:
  83 0038 00000000 		.word	ExternInterruptTickCount1
  84 003c 00000000 		.word	flag1
  85 0040 00000000 		.word	b1_clicks
  86              		.cfi_endproc
  87              	.LFE141:
  89              		.section	.text.b2_clicked,"ax",%progbits
  90              		.align	1
  91              		.global	b2_clicked
  92              		.syntax unified
  93              		.thumb
  94              		.thumb_func
  96              	b2_clicked:
  97              	.LFB142:
  40:Core/Src/leds.c **** 
  41:Core/Src/leds.c **** void b2_clicked(){
  98              		.loc 1 41 18 is_stmt 1 view -0
  99              		.cfi_startproc
 100              		@ args = 0, pretend = 0, frame = 0
 101              		@ frame_needed = 0, uses_anonymous_args = 0
 102              		@ link register save eliminated.
  42:Core/Src/leds.c ****     if (ExternInterruptTickCount2>= DELAY_BUTTON_FILTER)
 103              		.loc 1 42 5 view .LVU19
 104              		.loc 1 42 34 is_stmt 0 view .LVU20
 105 0000 0D4B     		ldr	r3, .L13
 106 0002 1B88     		ldrh	r3, [r3]
 107              		.loc 1 42 8 view .LVU21
 108 0004 B3F5FA7F 		cmp	r3, #500
 109 0008 0DD3     		bcc	.L8
  43:Core/Src/leds.c ****     {
  44:Core/Src/leds.c ****         if (flag2 == 1){
 110              		.loc 1 44 9 is_stmt 1 view .LVU22
 111              		.loc 1 44 19 is_stmt 0 view .LVU23
 112 000a 0C4B     		ldr	r3, .L13+4
 113 000c 1B78     		ldrb	r3, [r3]	@ zero_extendqisi2
 114              		.loc 1 44 12 view .LVU24
 115 000e 012B     		cmp	r3, #1
 116 0010 0AD0     		beq	.L12
  45:Core/Src/leds.c ****             flag2 = 0;
  46:Core/Src/leds.c ****             b2_clicks++;
  47:Core/Src/leds.c ****         }else{
  48:Core/Src/leds.c ****             flag2 = 1;
 117              		.loc 1 48 13 is_stmt 1 view .LVU25
 118              		.loc 1 48 19 is_stmt 0 view .LVU26
 119 0012 0A4B     		ldr	r3, .L13+4
 120 0014 0122     		movs	r2, #1
 121 0016 1A70     		strb	r2, [r3]
  49:Core/Src/leds.c ****             b2_clicks++;
ARM GAS  C:\Users\mns94\AppData\Local\Temp\ccw5G8xd.s 			page 4


 122              		.loc 1 49 13 is_stmt 1 view .LVU27
 123              		.loc 1 49 22 is_stmt 0 view .LVU28
 124 0018 094A     		ldr	r2, .L13+8
 125 001a 1378     		ldrb	r3, [r2]	@ zero_extendqisi2
 126 001c 0133     		adds	r3, r3, #1
 127 001e 1370     		strb	r3, [r2]
 128              	.L11:
  50:Core/Src/leds.c ****         }
  51:Core/Src/leds.c ****         ExternInterruptTickCount2 = 0; // Обнуление счётчика таймера
 129              		.loc 1 51 9 is_stmt 1 view .LVU29
 130              		.loc 1 51 35 is_stmt 0 view .LVU30
 131 0020 054B     		ldr	r3, .L13
 132 0022 0022     		movs	r2, #0
 133 0024 1A80     		strh	r2, [r3]	@ movhi
 134              	.L8:
  52:Core/Src/leds.c ****     }
  53:Core/Src/leds.c **** }
 135              		.loc 1 53 1 view .LVU31
 136 0026 7047     		bx	lr
 137              	.L12:
  45:Core/Src/leds.c ****             b2_clicks++;
 138              		.loc 1 45 13 is_stmt 1 view .LVU32
  45:Core/Src/leds.c ****             b2_clicks++;
 139              		.loc 1 45 19 is_stmt 0 view .LVU33
 140 0028 044B     		ldr	r3, .L13+4
 141 002a 0022     		movs	r2, #0
 142 002c 1A70     		strb	r2, [r3]
  46:Core/Src/leds.c ****         }else{
 143              		.loc 1 46 13 is_stmt 1 view .LVU34
  46:Core/Src/leds.c ****         }else{
 144              		.loc 1 46 22 is_stmt 0 view .LVU35
 145 002e 044A     		ldr	r2, .L13+8
 146 0030 1378     		ldrb	r3, [r2]	@ zero_extendqisi2
 147 0032 0133     		adds	r3, r3, #1
 148 0034 1370     		strb	r3, [r2]
 149 0036 F3E7     		b	.L11
 150              	.L14:
 151              		.align	2
 152              	.L13:
 153 0038 00000000 		.word	ExternInterruptTickCount2
 154 003c 00000000 		.word	flag2
 155 0040 00000000 		.word	b2_clicks
 156              		.cfi_endproc
 157              	.LFE142:
 159              		.section	.text.b3_clicked,"ax",%progbits
 160              		.align	1
 161              		.global	b3_clicked
 162              		.syntax unified
 163              		.thumb
 164              		.thumb_func
 166              	b3_clicked:
 167              	.LFB143:
  54:Core/Src/leds.c **** 
  55:Core/Src/leds.c **** void b3_clicked(){
 168              		.loc 1 55 18 is_stmt 1 view -0
 169              		.cfi_startproc
 170              		@ args = 0, pretend = 0, frame = 0
ARM GAS  C:\Users\mns94\AppData\Local\Temp\ccw5G8xd.s 			page 5


 171              		@ frame_needed = 0, uses_anonymous_args = 0
 172              		@ link register save eliminated.
  56:Core/Src/leds.c ****     if (ExternInterruptTickCount3>= DELAY_BUTTON_FILTER)
 173              		.loc 1 56 5 view .LVU37
 174              		.loc 1 56 34 is_stmt 0 view .LVU38
 175 0000 0D4B     		ldr	r3, .L20
 176 0002 1B88     		ldrh	r3, [r3]
 177              		.loc 1 56 8 view .LVU39
 178 0004 B3F5FA7F 		cmp	r3, #500
 179 0008 0DD3     		bcc	.L15
  57:Core/Src/leds.c ****     {
  58:Core/Src/leds.c ****         if (flag3 == 1){
 180              		.loc 1 58 9 is_stmt 1 view .LVU40
 181              		.loc 1 58 19 is_stmt 0 view .LVU41
 182 000a 0C4B     		ldr	r3, .L20+4
 183 000c 1B78     		ldrb	r3, [r3]	@ zero_extendqisi2
 184              		.loc 1 58 12 view .LVU42
 185 000e 012B     		cmp	r3, #1
 186 0010 0AD0     		beq	.L19
  59:Core/Src/leds.c ****             flag3 = 0;
  60:Core/Src/leds.c ****             b3_clicks++;
  61:Core/Src/leds.c ****         }else{
  62:Core/Src/leds.c ****             flag3 = 1;
 187              		.loc 1 62 13 is_stmt 1 view .LVU43
 188              		.loc 1 62 19 is_stmt 0 view .LVU44
 189 0012 0A4B     		ldr	r3, .L20+4
 190 0014 0122     		movs	r2, #1
 191 0016 1A70     		strb	r2, [r3]
  63:Core/Src/leds.c ****             b3_clicks++;
 192              		.loc 1 63 13 is_stmt 1 view .LVU45
 193              		.loc 1 63 22 is_stmt 0 view .LVU46
 194 0018 094A     		ldr	r2, .L20+8
 195 001a 1378     		ldrb	r3, [r2]	@ zero_extendqisi2
 196 001c 0133     		adds	r3, r3, #1
 197 001e 1370     		strb	r3, [r2]
 198              	.L18:
  64:Core/Src/leds.c ****         }
  65:Core/Src/leds.c ****         ExternInterruptTickCount3 = 0; // Обнуление счётчика таймера
 199              		.loc 1 65 9 is_stmt 1 view .LVU47
 200              		.loc 1 65 35 is_stmt 0 view .LVU48
 201 0020 054B     		ldr	r3, .L20
 202 0022 0022     		movs	r2, #0
 203 0024 1A80     		strh	r2, [r3]	@ movhi
 204              	.L15:
  66:Core/Src/leds.c ****     }
  67:Core/Src/leds.c **** }
 205              		.loc 1 67 1 view .LVU49
 206 0026 7047     		bx	lr
 207              	.L19:
  59:Core/Src/leds.c ****             b3_clicks++;
 208              		.loc 1 59 13 is_stmt 1 view .LVU50
  59:Core/Src/leds.c ****             b3_clicks++;
 209              		.loc 1 59 19 is_stmt 0 view .LVU51
 210 0028 044B     		ldr	r3, .L20+4
 211 002a 0022     		movs	r2, #0
 212 002c 1A70     		strb	r2, [r3]
  60:Core/Src/leds.c ****         }else{
ARM GAS  C:\Users\mns94\AppData\Local\Temp\ccw5G8xd.s 			page 6


 213              		.loc 1 60 13 is_stmt 1 view .LVU52
  60:Core/Src/leds.c ****         }else{
 214              		.loc 1 60 22 is_stmt 0 view .LVU53
 215 002e 044A     		ldr	r2, .L20+8
 216 0030 1378     		ldrb	r3, [r2]	@ zero_extendqisi2
 217 0032 0133     		adds	r3, r3, #1
 218 0034 1370     		strb	r3, [r2]
 219 0036 F3E7     		b	.L18
 220              	.L21:
 221              		.align	2
 222              	.L20:
 223 0038 00000000 		.word	ExternInterruptTickCount3
 224 003c 00000000 		.word	flag3
 225 0040 00000000 		.word	b3_clicks
 226              		.cfi_endproc
 227              	.LFE143:
 229              		.section	.text.leds_state1,"ax",%progbits
 230              		.align	1
 231              		.global	leds_state1
 232              		.syntax unified
 233              		.thumb
 234              		.thumb_func
 236              	leds_state1:
 237              	.LFB144:
  68:Core/Src/leds.c **** 
  69:Core/Src/leds.c **** 
  70:Core/Src/leds.c **** 
  71:Core/Src/leds.c **** void leds_state1(void)
  72:Core/Src/leds.c **** {
 238              		.loc 1 72 1 is_stmt 1 view -0
 239              		.cfi_startproc
 240              		@ args = 0, pretend = 0, frame = 0
 241              		@ frame_needed = 0, uses_anonymous_args = 0
 242              		@ link register save eliminated.
 243 0000 30B4     		push	{r4, r5}
 244              	.LCFI0:
 245              		.cfi_def_cfa_offset 8
 246              		.cfi_offset 4, -8
 247              		.cfi_offset 5, -4
  73:Core/Src/leds.c ****     if(GlobalTickCount >= LedFreq[0][b2_clicks%3] && flagUp)
 248              		.loc 1 73 5 view .LVU55
 249              		.loc 1 73 47 is_stmt 0 view .LVU56
 250 0002 334B     		ldr	r3, .L30
 251 0004 1B78     		ldrb	r3, [r3]	@ zero_extendqisi2
 252 0006 334A     		ldr	r2, .L30+4
 253 0008 A2FB0312 		umull	r1, r2, r2, r3
 254 000c 02F0FE01 		and	r1, r2, #254
 255 0010 01EB5202 		add	r2, r1, r2, lsr #1
 256 0014 9B1A     		subs	r3, r3, r2
 257 0016 DBB2     		uxtb	r3, r3
 258              		.loc 1 73 37 view .LVU57
 259 0018 2F4A     		ldr	r2, .L30+8
 260 001a 32F81320 		ldrh	r2, [r2, r3, lsl #1]
 261              		.loc 1 73 24 view .LVU58
 262 001e 2F4B     		ldr	r3, .L30+12
 263 0020 1B88     		ldrh	r3, [r3]
 264              		.loc 1 73 7 view .LVU59
ARM GAS  C:\Users\mns94\AppData\Local\Temp\ccw5G8xd.s 			page 7


 265 0022 9A42     		cmp	r2, r3
 266 0024 28D8     		bhi	.L23
 267              		.loc 1 73 51 discriminator 1 view .LVU60
 268 0026 2E49     		ldr	r1, .L30+16
 269 0028 0978     		ldrb	r1, [r1]	@ zero_extendqisi2
 270 002a 29B3     		cbz	r1, .L23
  74:Core/Src/leds.c ****     {
  75:Core/Src/leds.c ****         if(i1==3){
 271              		.loc 1 75 9 is_stmt 1 view .LVU61
 272              		.loc 1 75 14 is_stmt 0 view .LVU62
 273 002c 2D4B     		ldr	r3, .L30+20
 274 002e 93F90030 		ldrsb	r3, [r3]
 275              		.loc 1 75 11 view .LVU63
 276 0032 032B     		cmp	r3, #3
 277 0034 19D0     		beq	.L28
  76:Core/Src/leds.c ****             flagUp=0;
  77:Core/Src/leds.c ****             i1=2;
  78:Core/Src/leds.c ****             return;
  79:Core/Src/leds.c ****         }
  80:Core/Src/leds.c ****         if (GlobalTickCount >= LedFreq[0][b2_clicks%3]){
 278              		.loc 1 80 9 is_stmt 1 view .LVU64
  81:Core/Src/leds.c ****                 GlobalTickCount = 0;
 279              		.loc 1 81 17 view .LVU65
 280              		.loc 1 81 33 is_stmt 0 view .LVU66
 281 0036 294A     		ldr	r2, .L30+12
 282 0038 0021     		movs	r1, #0
 283 003a 1180     		strh	r1, [r2]	@ movhi
  82:Core/Src/leds.c ****         }
  83:Core/Src/leds.c ****         for(;;){
 284              		.loc 1 83 9 is_stmt 1 view .LVU67
  84:Core/Src/leds.c ****             SET_BIT(GPIOB->BSRR, 1UL << led[i1]);
 285              		.loc 1 84 13 view .LVU68
 286 003c 2A4A     		ldr	r2, .L30+24
 287 003e 9069     		ldr	r0, [r2, #24]
 288 0040 2A4C     		ldr	r4, .L30+28
 289 0042 14F803C0 		ldrb	ip, [r4, r3]	@ zero_extendqisi2
 290 0046 0121     		movs	r1, #1
 291 0048 01FA0CFC 		lsl	ip, r1, ip
 292 004c 40EA0C00 		orr	r0, r0, ip
 293 0050 9061     		str	r0, [r2, #24]
  85:Core/Src/leds.c ****             SET_BIT(GPIOB->BSRR, 1UL << led[5-i1]);
 294              		.loc 1 85 13 view .LVU69
 295 0052 9069     		ldr	r0, [r2, #24]
 296 0054 C3F10505 		rsb	r5, r3, #5
 297 0058 645D     		ldrb	r4, [r4, r5]	@ zero_extendqisi2
 298 005a A140     		lsls	r1, r1, r4
 299 005c 0143     		orrs	r1, r1, r0
 300 005e 9161     		str	r1, [r2, #24]
  86:Core/Src/leds.c ****             i1++;
 301              		.loc 1 86 13 view .LVU70
 302              		.loc 1 86 15 is_stmt 0 view .LVU71
 303 0060 0133     		adds	r3, r3, #1
 304 0062 204A     		ldr	r2, .L30+20
 305 0064 1370     		strb	r3, [r2]
  87:Core/Src/leds.c ****             return;
 306              		.loc 1 87 13 is_stmt 1 view .LVU72
 307              	.L22:
ARM GAS  C:\Users\mns94\AppData\Local\Temp\ccw5G8xd.s 			page 8


  88:Core/Src/leds.c ****         }
  89:Core/Src/leds.c ****         return;
  90:Core/Src/leds.c ****     }
  91:Core/Src/leds.c ****     
  92:Core/Src/leds.c ****     if(GlobalTickCount >= LedFreq[0][b2_clicks%3] && !flagUp)
  93:Core/Src/leds.c ****     {
  94:Core/Src/leds.c ****         if(i1<=-1){
  95:Core/Src/leds.c ****             flagUp=1;
  96:Core/Src/leds.c ****             i1=0;
  97:Core/Src/leds.c ****             return;
  98:Core/Src/leds.c ****         }
  99:Core/Src/leds.c ****         if (GlobalTickCount >= LedFreq[0][b2_clicks%3]){
 100:Core/Src/leds.c ****                 GlobalTickCount = 0;
 101:Core/Src/leds.c ****         }
 102:Core/Src/leds.c ****         for(;;){
 103:Core/Src/leds.c ****             
 104:Core/Src/leds.c ****             SET_BIT(GPIOB->BSRR, 1UL << led[i1]   << 16U);
 105:Core/Src/leds.c ****             SET_BIT(GPIOB->BSRR, 1UL << led[5-i1] << 16U);
 106:Core/Src/leds.c ****             i1--;
 107:Core/Src/leds.c ****             return;
 108:Core/Src/leds.c ****         }
 109:Core/Src/leds.c ****         return;
 110:Core/Src/leds.c ****     }
 111:Core/Src/leds.c **** }
 308              		.loc 1 111 1 is_stmt 0 view .LVU73
 309 0066 30BC     		pop	{r4, r5}
 310              	.LCFI1:
 311              		.cfi_remember_state
 312              		.cfi_restore 5
 313              		.cfi_restore 4
 314              		.cfi_def_cfa_offset 0
 315 0068 7047     		bx	lr
 316              	.L28:
 317              	.LCFI2:
 318              		.cfi_restore_state
  76:Core/Src/leds.c ****             i1=2;
 319              		.loc 1 76 13 is_stmt 1 view .LVU74
  76:Core/Src/leds.c ****             i1=2;
 320              		.loc 1 76 19 is_stmt 0 view .LVU75
 321 006a 1D4B     		ldr	r3, .L30+16
 322 006c 0022     		movs	r2, #0
 323 006e 1A70     		strb	r2, [r3]
  77:Core/Src/leds.c ****             return;
 324              		.loc 1 77 13 is_stmt 1 view .LVU76
  77:Core/Src/leds.c ****             return;
 325              		.loc 1 77 15 is_stmt 0 view .LVU77
 326 0070 1C4B     		ldr	r3, .L30+20
 327 0072 0222     		movs	r2, #2
 328 0074 1A70     		strb	r2, [r3]
  78:Core/Src/leds.c ****         }
 329              		.loc 1 78 13 is_stmt 1 view .LVU78
 330 0076 F6E7     		b	.L22
 331              	.L23:
  92:Core/Src/leds.c ****     {
 332              		.loc 1 92 5 view .LVU79
  92:Core/Src/leds.c ****     {
 333              		.loc 1 92 7 is_stmt 0 view .LVU80
ARM GAS  C:\Users\mns94\AppData\Local\Temp\ccw5G8xd.s 			page 9


 334 0078 9A42     		cmp	r2, r3
 335 007a F4D8     		bhi	.L22
  92:Core/Src/leds.c ****     {
 336              		.loc 1 92 54 discriminator 1 view .LVU81
 337 007c 184B     		ldr	r3, .L30+16
 338 007e 1B78     		ldrb	r3, [r3]	@ zero_extendqisi2
  92:Core/Src/leds.c ****     {
 339              		.loc 1 92 51 discriminator 1 view .LVU82
 340 0080 002B     		cmp	r3, #0
 341 0082 F0D1     		bne	.L22
  94:Core/Src/leds.c ****             flagUp=1;
 342              		.loc 1 94 9 is_stmt 1 view .LVU83
  94:Core/Src/leds.c ****             flagUp=1;
 343              		.loc 1 94 14 is_stmt 0 view .LVU84
 344 0084 174B     		ldr	r3, .L30+20
 345 0086 93F90030 		ldrsb	r3, [r3]
  94:Core/Src/leds.c ****             flagUp=1;
 346              		.loc 1 94 11 view .LVU85
 347 008a 002B     		cmp	r3, #0
 348 008c 18DB     		blt	.L29
  99:Core/Src/leds.c ****                 GlobalTickCount = 0;
 349              		.loc 1 99 9 is_stmt 1 view .LVU86
 100:Core/Src/leds.c ****         }
 350              		.loc 1 100 17 view .LVU87
 100:Core/Src/leds.c ****         }
 351              		.loc 1 100 33 is_stmt 0 view .LVU88
 352 008e 134A     		ldr	r2, .L30+12
 353 0090 0021     		movs	r1, #0
 354 0092 1180     		strh	r1, [r2]	@ movhi
 102:Core/Src/leds.c ****             
 355              		.loc 1 102 9 is_stmt 1 view .LVU89
 104:Core/Src/leds.c ****             SET_BIT(GPIOB->BSRR, 1UL << led[5-i1] << 16U);
 356              		.loc 1 104 13 view .LVU90
 357 0094 144A     		ldr	r2, .L30+24
 358 0096 9069     		ldr	r0, [r2, #24]
 359 0098 144D     		ldr	r5, .L30+28
 360 009a EC5C     		ldrb	r4, [r5, r3]	@ zero_extendqisi2
 361 009c 0121     		movs	r1, #1
 362 009e 01FA04F4 		lsl	r4, r1, r4
 363 00a2 40EA0440 		orr	r0, r0, r4, lsl #16
 364 00a6 9061     		str	r0, [r2, #24]
 105:Core/Src/leds.c ****             i1--;
 365              		.loc 1 105 13 view .LVU91
 366 00a8 9069     		ldr	r0, [r2, #24]
 367 00aa C3F10504 		rsb	r4, r3, #5
 368 00ae 2C5D     		ldrb	r4, [r5, r4]	@ zero_extendqisi2
 369 00b0 A140     		lsls	r1, r1, r4
 370 00b2 40EA0141 		orr	r1, r0, r1, lsl #16
 371 00b6 9161     		str	r1, [r2, #24]
 106:Core/Src/leds.c ****             return;
 372              		.loc 1 106 13 view .LVU92
 106:Core/Src/leds.c ****             return;
 373              		.loc 1 106 15 is_stmt 0 view .LVU93
 374 00b8 013B     		subs	r3, r3, #1
 375 00ba 0A4A     		ldr	r2, .L30+20
 376 00bc 1370     		strb	r3, [r2]
 107:Core/Src/leds.c ****         }
ARM GAS  C:\Users\mns94\AppData\Local\Temp\ccw5G8xd.s 			page 10


 377              		.loc 1 107 13 is_stmt 1 view .LVU94
 378 00be D2E7     		b	.L22
 379              	.L29:
  95:Core/Src/leds.c ****             i1=0;
 380              		.loc 1 95 13 view .LVU95
  95:Core/Src/leds.c ****             i1=0;
 381              		.loc 1 95 19 is_stmt 0 view .LVU96
 382 00c0 074B     		ldr	r3, .L30+16
 383 00c2 0122     		movs	r2, #1
 384 00c4 1A70     		strb	r2, [r3]
  96:Core/Src/leds.c ****             return;
 385              		.loc 1 96 13 is_stmt 1 view .LVU97
  96:Core/Src/leds.c ****             return;
 386              		.loc 1 96 15 is_stmt 0 view .LVU98
 387 00c6 074B     		ldr	r3, .L30+20
 388 00c8 0022     		movs	r2, #0
 389 00ca 1A70     		strb	r2, [r3]
  97:Core/Src/leds.c ****         }
 390              		.loc 1 97 13 is_stmt 1 view .LVU99
 391 00cc CBE7     		b	.L22
 392              	.L31:
 393 00ce 00BF     		.align	2
 394              	.L30:
 395 00d0 00000000 		.word	b2_clicks
 396 00d4 ABAAAAAA 		.word	-1431655765
 397 00d8 00000000 		.word	LedFreq
 398 00dc 00000000 		.word	GlobalTickCount
 399 00e0 00000000 		.word	flagUp
 400 00e4 00000000 		.word	i1
 401 00e8 00040240 		.word	1073873920
 402 00ec 00000000 		.word	led
 403              		.cfi_endproc
 404              	.LFE144:
 406              		.section	.text.leds_state_down,"ax",%progbits
 407              		.align	1
 408              		.global	leds_state_down
 409              		.syntax unified
 410              		.thumb
 411              		.thumb_func
 413              	leds_state_down:
 414              	.LFB145:
 112:Core/Src/leds.c **** 
 113:Core/Src/leds.c **** void leds_state_down(void){
 415              		.loc 1 113 27 view -0
 416              		.cfi_startproc
 417              		@ args = 0, pretend = 0, frame = 0
 418              		@ frame_needed = 0, uses_anonymous_args = 0
 419              		@ link register save eliminated.
 114:Core/Src/leds.c ****     for(uint16_t k=0;k<6;k++)SET_BIT(GPIOB->BSRR, 1UL << led[k] << 16U);
 420              		.loc 1 114 5 view .LVU101
 421              	.LBB2:
 422              		.loc 1 114 9 view .LVU102
 423              	.LVL0:
 424              		.loc 1 114 18 is_stmt 0 view .LVU103
 425 0000 0023     		movs	r3, #0
 426              		.loc 1 114 5 view .LVU104
 427 0002 0CE0     		b	.L33
ARM GAS  C:\Users\mns94\AppData\Local\Temp\ccw5G8xd.s 			page 11


 428              	.LVL1:
 429              	.L34:
 430              		.loc 1 114 30 is_stmt 1 discriminator 3 view .LVU105
 431 0004 1648     		ldr	r0, .L37
 432 0006 8269     		ldr	r2, [r0, #24]
 433 0008 1649     		ldr	r1, .L37+4
 434 000a 11F803C0 		ldrb	ip, [r1, r3]	@ zero_extendqisi2
 435 000e 0121     		movs	r1, #1
 436 0010 01FA0CF1 		lsl	r1, r1, ip
 437 0014 42EA0142 		orr	r2, r2, r1, lsl #16
 438 0018 8261     		str	r2, [r0, #24]
 439              		.loc 1 114 27 discriminator 3 view .LVU106
 440 001a 0133     		adds	r3, r3, #1
 441              	.LVL2:
 442              		.loc 1 114 27 is_stmt 0 discriminator 3 view .LVU107
 443 001c 9BB2     		uxth	r3, r3
 444              	.LVL3:
 445              	.L33:
 446              		.loc 1 114 23 is_stmt 1 discriminator 1 view .LVU108
 447 001e 052B     		cmp	r3, #5
 448 0020 F0D9     		bls	.L34
 449              	.LBE2:
 115:Core/Src/leds.c ****     i1=0;
 450              		.loc 1 115 5 view .LVU109
 451              		.loc 1 115 7 is_stmt 0 view .LVU110
 452 0022 0023     		movs	r3, #0
 453              	.LVL4:
 454              		.loc 1 115 7 view .LVU111
 455 0024 104A     		ldr	r2, .L37+8
 456 0026 1370     		strb	r3, [r2]
 116:Core/Src/leds.c ****     i2=0;
 457              		.loc 1 116 5 is_stmt 1 view .LVU112
 458              		.loc 1 116 7 is_stmt 0 view .LVU113
 459 0028 104A     		ldr	r2, .L37+12
 460 002a 1370     		strb	r3, [r2]
 117:Core/Src/leds.c ****     b2_clicks = 0;
 461              		.loc 1 117 5 is_stmt 1 view .LVU114
 462              		.loc 1 117 15 is_stmt 0 view .LVU115
 463 002c 104A     		ldr	r2, .L37+16
 464 002e 1370     		strb	r3, [r2]
 118:Core/Src/leds.c ****     b3_clicks = 0;
 465              		.loc 1 118 5 is_stmt 1 view .LVU116
 466              		.loc 1 118 15 is_stmt 0 view .LVU117
 467 0030 104A     		ldr	r2, .L37+20
 468 0032 1370     		strb	r3, [r2]
 119:Core/Src/leds.c **** 
 120:Core/Src/leds.c ****     flagUp2=1;
 469              		.loc 1 120 5 is_stmt 1 view .LVU118
 470              		.loc 1 120 12 is_stmt 0 view .LVU119
 471 0034 104A     		ldr	r2, .L37+24
 472 0036 0121     		movs	r1, #1
 473 0038 1170     		strb	r1, [r2]
 121:Core/Src/leds.c ****     for(uint8_t g=0;g<6;g++){
 474              		.loc 1 121 5 is_stmt 1 view .LVU120
 475              	.LBB3:
 476              		.loc 1 121 9 view .LVU121
 477              	.LVL5:
ARM GAS  C:\Users\mns94\AppData\Local\Temp\ccw5G8xd.s 			page 12


 478              		.loc 1 121 5 is_stmt 0 view .LVU122
 479 003a 0EE0     		b	.L35
 480              	.LVL6:
 481              	.L36:
 122:Core/Src/leds.c ****         LedState2Data[0][g] = 0;
 482              		.loc 1 122 9 is_stmt 1 discriminator 3 view .LVU123
 483              		.loc 1 122 29 is_stmt 0 discriminator 3 view .LVU124
 484 003c 0F4A     		ldr	r2, .L37+28
 485 003e 0021     		movs	r1, #0
 486 0040 22F81310 		strh	r1, [r2, r3, lsl #1]	@ movhi
 123:Core/Src/leds.c ****         LedState2Data[1][g] = 2000;
 487              		.loc 1 123 9 is_stmt 1 discriminator 3 view .LVU125
 488              		.loc 1 123 29 is_stmt 0 discriminator 3 view .LVU126
 489 0044 981D     		adds	r0, r3, #6
 490 0046 4FF4FA6C 		mov	ip, #2000
 491 004a 22F810C0 		strh	ip, [r2, r0, lsl #1]	@ movhi
 124:Core/Src/leds.c ****         LedState2Data[2][g] = 0;
 492              		.loc 1 124 9 is_stmt 1 discriminator 3 view .LVU127
 493              		.loc 1 124 29 is_stmt 0 discriminator 3 view .LVU128
 494 004e 03F10C00 		add	r0, r3, #12
 495 0052 22F81010 		strh	r1, [r2, r0, lsl #1]	@ movhi
 121:Core/Src/leds.c ****         LedState2Data[0][g] = 0;
 496              		.loc 1 121 26 is_stmt 1 discriminator 3 view .LVU129
 497 0056 0133     		adds	r3, r3, #1
 498              	.LVL7:
 121:Core/Src/leds.c ****         LedState2Data[0][g] = 0;
 499              		.loc 1 121 26 is_stmt 0 discriminator 3 view .LVU130
 500 0058 DBB2     		uxtb	r3, r3
 501              	.LVL8:
 502              	.L35:
 121:Core/Src/leds.c ****         LedState2Data[0][g] = 0;
 503              		.loc 1 121 22 is_stmt 1 discriminator 1 view .LVU131
 504 005a 052B     		cmp	r3, #5
 505 005c EED9     		bls	.L36
 506              	.LBE3:
 125:Core/Src/leds.c ****     }
 126:Core/Src/leds.c **** }
 507              		.loc 1 126 1 is_stmt 0 view .LVU132
 508 005e 7047     		bx	lr
 509              	.L38:
 510              		.align	2
 511              	.L37:
 512 0060 00040240 		.word	1073873920
 513 0064 00000000 		.word	led
 514 0068 00000000 		.word	i1
 515 006c 00000000 		.word	i2
 516 0070 00000000 		.word	b2_clicks
 517 0074 00000000 		.word	b3_clicks
 518 0078 00000000 		.word	flagUp2
 519 007c 00000000 		.word	LedState2Data
 520              		.cfi_endproc
 521              	.LFE145:
 523              		.section	.text.leds_state2_goUp,"ax",%progbits
 524              		.align	1
 525              		.global	leds_state2_goUp
 526              		.syntax unified
 527              		.thumb
ARM GAS  C:\Users\mns94\AppData\Local\Temp\ccw5G8xd.s 			page 13


 528              		.thumb_func
 530              	leds_state2_goUp:
 531              	.LFB146:
 127:Core/Src/leds.c **** 
 128:Core/Src/leds.c **** void leds_state2_goUp(void){
 532              		.loc 1 128 28 is_stmt 1 view -0
 533              		.cfi_startproc
 534              		@ args = 0, pretend = 0, frame = 0
 535              		@ frame_needed = 0, uses_anonymous_args = 0
 536              		@ link register save eliminated.
 129:Core/Src/leds.c ****     if(GlobalTickCount >= LedFreq[1][2] && flagUp2)
 537              		.loc 1 129 5 view .LVU134
 538              		.loc 1 129 37 is_stmt 0 view .LVU135
 539 0000 114B     		ldr	r3, .L43
 540 0002 5A89     		ldrh	r2, [r3, #10]
 541              		.loc 1 129 24 view .LVU136
 542 0004 114B     		ldr	r3, .L43+4
 543 0006 1B88     		ldrh	r3, [r3]
 544              		.loc 1 129 7 view .LVU137
 545 0008 9A42     		cmp	r2, r3
 546 000a 17D8     		bhi	.L39
 547              		.loc 1 129 41 discriminator 1 view .LVU138
 548 000c 104B     		ldr	r3, .L43+8
 549 000e 1B78     		ldrb	r3, [r3]	@ zero_extendqisi2
 550 0010 A3B1     		cbz	r3, .L39
 130:Core/Src/leds.c ****     {
 131:Core/Src/leds.c ****         if(i2==6){
 551              		.loc 1 131 9 is_stmt 1 view .LVU139
 552              		.loc 1 131 14 is_stmt 0 view .LVU140
 553 0012 104B     		ldr	r3, .L43+12
 554 0014 93F90030 		ldrsb	r3, [r3]
 555              		.loc 1 131 11 view .LVU141
 556 0018 062B     		cmp	r3, #6
 557 001a 10D0     		beq	.L42
 132:Core/Src/leds.c ****             flagUp2=0;
 133:Core/Src/leds.c ****             return;
 134:Core/Src/leds.c ****         }
 135:Core/Src/leds.c ****         if (GlobalTickCount >= LedFreq[1][2]){
 558              		.loc 1 135 9 is_stmt 1 view .LVU142
 136:Core/Src/leds.c ****                 GlobalTickCount = 0;
 559              		.loc 1 136 17 view .LVU143
 560              		.loc 1 136 33 is_stmt 0 view .LVU144
 561 001c 0B4A     		ldr	r2, .L43+4
 562 001e 0021     		movs	r1, #0
 563 0020 1180     		strh	r1, [r2]	@ movhi
 137:Core/Src/leds.c ****         }
 138:Core/Src/leds.c ****         for(;;){
 564              		.loc 1 138 9 is_stmt 1 view .LVU145
 139:Core/Src/leds.c ****             SET_BIT(GPIOB->BSRR, 1UL << led[i2]);
 565              		.loc 1 139 13 view .LVU146
 566 0022 0D48     		ldr	r0, .L43+16
 567 0024 8269     		ldr	r2, [r0, #24]
 568 0026 0D49     		ldr	r1, .L43+20
 569 0028 11F803C0 		ldrb	ip, [r1, r3]	@ zero_extendqisi2
 570 002c 0121     		movs	r1, #1
 571 002e 01FA0CF1 		lsl	r1, r1, ip
 572 0032 0A43     		orrs	r2, r2, r1
ARM GAS  C:\Users\mns94\AppData\Local\Temp\ccw5G8xd.s 			page 14


 573 0034 8261     		str	r2, [r0, #24]
 140:Core/Src/leds.c ****             i2++;
 574              		.loc 1 140 13 view .LVU147
 575              		.loc 1 140 15 is_stmt 0 view .LVU148
 576 0036 0133     		adds	r3, r3, #1
 577 0038 064A     		ldr	r2, .L43+12
 578 003a 1370     		strb	r3, [r2]
 141:Core/Src/leds.c ****             return;
 579              		.loc 1 141 13 is_stmt 1 view .LVU149
 580              	.L39:
 142:Core/Src/leds.c ****         }
 143:Core/Src/leds.c ****         return;
 144:Core/Src/leds.c ****     }
 145:Core/Src/leds.c **** }
 581              		.loc 1 145 1 is_stmt 0 view .LVU150
 582 003c 7047     		bx	lr
 583              	.L42:
 132:Core/Src/leds.c ****             return;
 584              		.loc 1 132 13 is_stmt 1 view .LVU151
 132:Core/Src/leds.c ****             return;
 585              		.loc 1 132 20 is_stmt 0 view .LVU152
 586 003e 044B     		ldr	r3, .L43+8
 587 0040 0022     		movs	r2, #0
 588 0042 1A70     		strb	r2, [r3]
 133:Core/Src/leds.c ****         }
 589              		.loc 1 133 13 is_stmt 1 view .LVU153
 590 0044 7047     		bx	lr
 591              	.L44:
 592 0046 00BF     		.align	2
 593              	.L43:
 594 0048 00000000 		.word	LedFreq
 595 004c 00000000 		.word	GlobalTickCount
 596 0050 00000000 		.word	flagUp2
 597 0054 00000000 		.word	i2
 598 0058 00040240 		.word	1073873920
 599 005c 00000000 		.word	led
 600              		.cfi_endproc
 601              	.LFE146:
 603              		.section	.text.b3_change,"ax",%progbits
 604              		.align	1
 605              		.global	b3_change
 606              		.syntax unified
 607              		.thumb
 608              		.thumb_func
 610              	b3_change:
 611              	.LFB147:
 146:Core/Src/leds.c **** 
 147:Core/Src/leds.c **** 
 148:Core/Src/leds.c **** 
 149:Core/Src/leds.c **** 
 150:Core/Src/leds.c **** uint8_t b2_check, p_b2_check = 0;
 151:Core/Src/leds.c **** uint8_t b3_check, p_b3_check = 0;
 152:Core/Src/leds.c **** uint8_t counter = 0;
 153:Core/Src/leds.c **** void b3_change(void)
 154:Core/Src/leds.c **** {
 612              		.loc 1 154 1 view -0
 613              		.cfi_startproc
ARM GAS  C:\Users\mns94\AppData\Local\Temp\ccw5G8xd.s 			page 15


 614              		@ args = 0, pretend = 0, frame = 0
 615              		@ frame_needed = 0, uses_anonymous_args = 0
 155:Core/Src/leds.c ****     b3_check = b3_clicks;
 616              		.loc 1 155 5 view .LVU155
 617              		.loc 1 155 14 is_stmt 0 view .LVU156
 618 0000 1C4B     		ldr	r3, .L53
 619 0002 1A78     		ldrb	r2, [r3]	@ zero_extendqisi2
 620 0004 1C4B     		ldr	r3, .L53+4
 621 0006 1A70     		strb	r2, [r3]
 156:Core/Src/leds.c ****     if (b3_check != p_b3_check)
 622              		.loc 1 156 5 is_stmt 1 view .LVU157
 623              		.loc 1 156 18 is_stmt 0 view .LVU158
 624 0008 1C4B     		ldr	r3, .L53+8
 625 000a 1B78     		ldrb	r3, [r3]	@ zero_extendqisi2
 626              		.loc 1 156 8 view .LVU159
 627 000c 9A42     		cmp	r2, r3
 628 000e 2DD0     		beq	.L49
 157:Core/Src/leds.c ****     {
 158:Core/Src/leds.c ****         b2_check = b2_clicks;
 629              		.loc 1 158 9 is_stmt 1 view .LVU160
 630              		.loc 1 158 18 is_stmt 0 view .LVU161
 631 0010 1B4B     		ldr	r3, .L53+12
 632 0012 1878     		ldrb	r0, [r3]	@ zero_extendqisi2
 633 0014 1B4B     		ldr	r3, .L53+16
 634 0016 1870     		strb	r0, [r3]
 159:Core/Src/leds.c ****         if (b2_check != p_b2_check)
 635              		.loc 1 159 9 is_stmt 1 view .LVU162
 636              		.loc 1 159 22 is_stmt 0 view .LVU163
 637 0018 1B4B     		ldr	r3, .L53+20
 638 001a 93F800C0 		ldrb	ip, [r3]	@ zero_extendqisi2
 639              		.loc 1 159 12 view .LVU164
 640 001e 6045     		cmp	r0, ip
 641 0020 21D0     		beq	.L50
 154:Core/Src/leds.c ****     b3_check = b3_clicks;
 642              		.loc 1 154 1 view .LVU165
 643 0022 10B5     		push	{r4, lr}
 644              	.LCFI3:
 645              		.cfi_def_cfa_offset 8
 646              		.cfi_offset 4, -8
 647              		.cfi_offset 14, -4
 160:Core/Src/leds.c ****         {
 161:Core/Src/leds.c ****             LedState2Data[1][--b3_clicks % 6] = LedFreq[1][b2_clicks];
 648              		.loc 1 161 13 is_stmt 1 view .LVU166
 649              		.loc 1 161 30 is_stmt 0 view .LVU167
 650 0024 531E     		subs	r3, r2, #1
 651 0026 DBB2     		uxtb	r3, r3
 652              		.loc 1 161 47 view .LVU168
 653 0028 124C     		ldr	r4, .L53
 654 002a 2370     		strb	r3, [r4]
 655              		.loc 1 161 42 view .LVU169
 656 002c 1749     		ldr	r1, .L53+24
 657 002e A1FB03E1 		umull	lr, r1, r1, r3
 658 0032 8908     		lsrs	r1, r1, #2
 659 0034 01EB4101 		add	r1, r1, r1, lsl #1
 660 0038 4FEA410E 		lsl	lr, r1, #1
 661 003c A3EB0E03 		sub	r3, r3, lr
 662 0040 DBB2     		uxtb	r3, r3
ARM GAS  C:\Users\mns94\AppData\Local\Temp\ccw5G8xd.s 			page 16


 663              		.loc 1 161 59 view .LVU170
 664 0042 0330     		adds	r0, r0, #3
 665 0044 1249     		ldr	r1, .L53+28
 666 0046 31F81000 		ldrh	r0, [r1, r0, lsl #1]
 667              		.loc 1 161 47 view .LVU171
 668 004a 0633     		adds	r3, r3, #6
 669 004c 1149     		ldr	r1, .L53+32
 670 004e 21F81300 		strh	r0, [r1, r3, lsl #1]	@ movhi
 162:Core/Src/leds.c ****             b2_clicks = 0;
 671              		.loc 1 162 13 is_stmt 1 view .LVU172
 672              		.loc 1 162 23 is_stmt 0 view .LVU173
 673 0052 0023     		movs	r3, #0
 674 0054 0A49     		ldr	r1, .L53+12
 675 0056 0B70     		strb	r3, [r1]
 163:Core/Src/leds.c ****             b3_clicks = 0;
 676              		.loc 1 163 13 is_stmt 1 view .LVU174
 677              		.loc 1 163 23 is_stmt 0 view .LVU175
 678 0058 2370     		strb	r3, [r4]
 164:Core/Src/leds.c ****         }
 165:Core/Src/leds.c ****         b2_check = p_b2_check;
 679              		.loc 1 165 9 is_stmt 1 view .LVU176
 680              		.loc 1 165 18 is_stmt 0 view .LVU177
 681 005a 0A4B     		ldr	r3, .L53+16
 682 005c 83F800C0 		strb	ip, [r3]
 166:Core/Src/leds.c ****     }
 167:Core/Src/leds.c ****     p_b3_check = b3_check;
 683              		.loc 1 167 5 is_stmt 1 view .LVU178
 684              		.loc 1 167 16 is_stmt 0 view .LVU179
 685 0060 064B     		ldr	r3, .L53+8
 686 0062 1A70     		strb	r2, [r3]
 168:Core/Src/leds.c **** }
 687              		.loc 1 168 1 view .LVU180
 688 0064 10BD     		pop	{r4, pc}
 689              	.L50:
 690              	.LCFI4:
 691              		.cfi_def_cfa_offset 0
 692              		.cfi_restore 4
 693              		.cfi_restore 14
 165:Core/Src/leds.c ****     }
 694              		.loc 1 165 9 is_stmt 1 view .LVU181
 165:Core/Src/leds.c ****     }
 695              		.loc 1 165 18 is_stmt 0 view .LVU182
 696 0066 074B     		ldr	r3, .L53+16
 697 0068 83F800C0 		strb	ip, [r3]
 698              	.L49:
 167:Core/Src/leds.c **** }
 699              		.loc 1 167 5 is_stmt 1 view .LVU183
 167:Core/Src/leds.c **** }
 700              		.loc 1 167 16 is_stmt 0 view .LVU184
 701 006c 034B     		ldr	r3, .L53+8
 702 006e 1A70     		strb	r2, [r3]
 703 0070 7047     		bx	lr
 704              	.L54:
 705 0072 00BF     		.align	2
 706              	.L53:
 707 0074 00000000 		.word	b3_clicks
 708 0078 00000000 		.word	b3_check
ARM GAS  C:\Users\mns94\AppData\Local\Temp\ccw5G8xd.s 			page 17


 709 007c 00000000 		.word	p_b3_check
 710 0080 00000000 		.word	b2_clicks
 711 0084 00000000 		.word	b2_check
 712 0088 00000000 		.word	p_b2_check
 713 008c ABAAAAAA 		.word	-1431655765
 714 0090 00000000 		.word	LedFreq
 715 0094 00000000 		.word	LedState2Data
 716              		.cfi_endproc
 717              	.LFE147:
 719              		.section	.text.leds_state2,"ax",%progbits
 720              		.align	1
 721              		.global	leds_state2
 722              		.syntax unified
 723              		.thumb
 724              		.thumb_func
 726              	leds_state2:
 727              	.LFB148:
 169:Core/Src/leds.c **** 
 170:Core/Src/leds.c **** extern uint8_t state2_flag;
 171:Core/Src/leds.c **** uint8_t tmp_counter=0;
 172:Core/Src/leds.c **** 
 173:Core/Src/leds.c **** void leds_state2(void)
 174:Core/Src/leds.c **** {
 728              		.loc 1 174 1 is_stmt 1 view -0
 729              		.cfi_startproc
 730              		@ args = 0, pretend = 0, frame = 0
 731              		@ frame_needed = 0, uses_anonymous_args = 0
 732 0000 38B5     		push	{r3, r4, r5, lr}
 733              	.LCFI5:
 734              		.cfi_def_cfa_offset 16
 735              		.cfi_offset 3, -16
 736              		.cfi_offset 4, -12
 737              		.cfi_offset 5, -8
 738              		.cfi_offset 14, -4
 175:Core/Src/leds.c ****     leds_state2_goUp();
 739              		.loc 1 175 5 view .LVU186
 740 0002 FFF7FEFF 		bl	leds_state2_goUp
 741              	.LVL9:
 176:Core/Src/leds.c ****     b3_change();   
 742              		.loc 1 176 5 view .LVU187
 743 0006 FFF7FEFF 		bl	b3_change
 744              	.LVL10:
 177:Core/Src/leds.c ****     if (!flagUp2 && state2_flag)
 745              		.loc 1 177 5 view .LVU188
 746              		.loc 1 177 9 is_stmt 0 view .LVU189
 747 000a 304B     		ldr	r3, .L68
 748 000c 1978     		ldrb	r1, [r3]	@ zero_extendqisi2
 749              		.loc 1 177 8 view .LVU190
 750 000e 11B9     		cbnz	r1, .L56
 751              		.loc 1 177 18 discriminator 1 view .LVU191
 752 0010 2F4B     		ldr	r3, .L68+4
 753 0012 1B78     		ldrb	r3, [r3]	@ zero_extendqisi2
 754 0014 5BBB     		cbnz	r3, .L64
 755              	.L56:
 178:Core/Src/leds.c ****     {
 179:Core/Src/leds.c ****         for(uint8_t tmp=0;tmp<6;tmp++){
 180:Core/Src/leds.c ****             if (LedState2Data[0][tmp] >= LedState2Data[1][tmp] && LedState2Data[2][tmp]==0){
ARM GAS  C:\Users\mns94\AppData\Local\Temp\ccw5G8xd.s 			page 18


 181:Core/Src/leds.c ****                 LedState2Data[0][tmp] = 0;
 182:Core/Src/leds.c ****                 LedState2Data[2][tmp] = 1;
 183:Core/Src/leds.c ****                 SET_BIT(GPIOB->BSRR, 1UL << led[tmp] << 16U);
 184:Core/Src/leds.c ****             }
 185:Core/Src/leds.c ****         }
 186:Core/Src/leds.c ****         state2_flag = 0;
 187:Core/Src/leds.c ****     }
 188:Core/Src/leds.c **** 
 189:Core/Src/leds.c ****     if (!flagUp2 && !state2_flag)
 756              		.loc 1 189 5 is_stmt 1 view .LVU192
 757              		.loc 1 189 8 is_stmt 0 view .LVU193
 758 0016 11B9     		cbnz	r1, .L55
 759              		.loc 1 189 21 discriminator 1 view .LVU194
 760 0018 2D4B     		ldr	r3, .L68+4
 761 001a 1B78     		ldrb	r3, [r3]	@ zero_extendqisi2
 762              		.loc 1 189 18 discriminator 1 view .LVU195
 763 001c 7BB3     		cbz	r3, .L61
 764              	.L55:
 190:Core/Src/leds.c ****     {
 191:Core/Src/leds.c ****         for(uint8_t tmp=0;tmp<6;tmp++){
 192:Core/Src/leds.c ****             if (LedState2Data[0][tmp] >= LedState2Data[1][tmp] && LedState2Data[2][tmp]==1){
 193:Core/Src/leds.c ****                 LedState2Data[0][tmp] = 0;
 194:Core/Src/leds.c ****                 LedState2Data[2][tmp] = 0;
 195:Core/Src/leds.c ****                 SET_BIT(GPIOB->BSRR, 1UL << led[tmp]);
 196:Core/Src/leds.c ****             }
 197:Core/Src/leds.c ****         }
 198:Core/Src/leds.c ****         state2_flag=1;
 199:Core/Src/leds.c ****     }
 200:Core/Src/leds.c **** }...
 765              		.loc 1 200 1 view .LVU196
 766 001e 38BD     		pop	{r3, r4, r5, pc}
 767              	.LVL11:
 768              	.L58:
 769              	.LBB4:
 179:Core/Src/leds.c ****         for(uint8_t tmp=0;tmp<6;tmp++){
 770              		.loc 1 179 36 is_stmt 1 discriminator 2 view .LVU197
 771 0020 0132     		adds	r2, r2, #1
 772              	.LVL12:
 179:Core/Src/leds.c ****         for(uint8_t tmp=0;tmp<6;tmp++){
 773              		.loc 1 179 36 is_stmt 0 discriminator 2 view .LVU198
 774 0022 D2B2     		uxtb	r2, r2
 775              	.LVL13:
 776              	.L57:
 179:Core/Src/leds.c ****         for(uint8_t tmp=0;tmp<6;tmp++){
 777              		.loc 1 179 30 is_stmt 1 discriminator 1 view .LVU199
 778 0024 052A     		cmp	r2, #5
 779 0026 24D8     		bhi	.L66
 180:Core/Src/leds.c ****             if (LedState2Data[0][tmp] >= LedState2Data[1][tmp] && LedState2Data[2][tmp]==0){
 780              		.loc 1 180 13 view .LVU200
 180:Core/Src/leds.c ****             if (LedState2Data[0][tmp] >= LedState2Data[1][tmp] && LedState2Data[2][tmp]==0){
 781              		.loc 1 180 33 is_stmt 0 view .LVU201
 782 0028 9646     		mov	lr, r2
 783 002a 2A4B     		ldr	r3, .L68+8
 784 002c 33F81200 		ldrh	r0, [r3, r2, lsl #1]
 180:Core/Src/leds.c ****             if (LedState2Data[0][tmp] >= LedState2Data[1][tmp] && LedState2Data[2][tmp]==0){
 785              		.loc 1 180 58 view .LVU202
 786 0030 02F1060C 		add	ip, r2, #6
ARM GAS  C:\Users\mns94\AppData\Local\Temp\ccw5G8xd.s 			page 19


 787 0034 33F81C30 		ldrh	r3, [r3, ip, lsl #1]
 180:Core/Src/leds.c ****             if (LedState2Data[0][tmp] >= LedState2Data[1][tmp] && LedState2Data[2][tmp]==0){
 788              		.loc 1 180 16 view .LVU203
 789 0038 9842     		cmp	r0, r3
 790 003a F1D3     		bcc	.L58
 180:Core/Src/leds.c ****             if (LedState2Data[0][tmp] >= LedState2Data[1][tmp] && LedState2Data[2][tmp]==0){
 791              		.loc 1 180 83 discriminator 1 view .LVU204
 792 003c 02F10C03 		add	r3, r2, #12
 793 0040 2448     		ldr	r0, .L68+8
 794 0042 30F81330 		ldrh	r3, [r0, r3, lsl #1]
 180:Core/Src/leds.c ****             if (LedState2Data[0][tmp] >= LedState2Data[1][tmp] && LedState2Data[2][tmp]==0){
 795              		.loc 1 180 64 discriminator 1 view .LVU205
 796 0046 002B     		cmp	r3, #0
 797 0048 EAD1     		bne	.L58
 181:Core/Src/leds.c ****                 LedState2Data[0][tmp] = 0;
 798              		.loc 1 181 17 is_stmt 1 view .LVU206
 181:Core/Src/leds.c ****                 LedState2Data[0][tmp] = 0;
 799              		.loc 1 181 39 is_stmt 0 view .LVU207
 800 004a 20F81230 		strh	r3, [r0, r2, lsl #1]	@ movhi
 182:Core/Src/leds.c ****                 LedState2Data[2][tmp] = 1;
 801              		.loc 1 182 17 is_stmt 1 view .LVU208
 182:Core/Src/leds.c ****                 LedState2Data[2][tmp] = 1;
 802              		.loc 1 182 39 is_stmt 0 view .LVU209
 803 004e 02F10C04 		add	r4, r2, #12
 804 0052 0123     		movs	r3, #1
 805 0054 20F81430 		strh	r3, [r0, r4, lsl #1]	@ movhi
 183:Core/Src/leds.c ****                 SET_BIT(GPIOB->BSRR, 1UL << led[tmp] << 16U);
 806              		.loc 1 183 17 is_stmt 1 view .LVU210
 807 0058 1F4C     		ldr	r4, .L68+12
 808 005a A069     		ldr	r0, [r4, #24]
 809 005c 1F4D     		ldr	r5, .L68+16
 810 005e 15F802C0 		ldrb	ip, [r5, r2]	@ zero_extendqisi2
 811 0062 03FA0CF3 		lsl	r3, r3, ip
 812 0066 40EA0343 		orr	r3, r0, r3, lsl #16
 813 006a A361     		str	r3, [r4, #24]
 814 006c D8E7     		b	.L58
 815              	.LVL14:
 816              	.L64:
 179:Core/Src/leds.c ****         for(uint8_t tmp=0;tmp<6;tmp++){
 817              		.loc 1 179 21 is_stmt 0 view .LVU211
 818 006e 0A46     		mov	r2, r1
 819 0070 D8E7     		b	.L57
 820              	.LVL15:
 821              	.L66:
 179:Core/Src/leds.c ****         for(uint8_t tmp=0;tmp<6;tmp++){
 822              		.loc 1 179 21 view .LVU212
 823              	.LBE4:
 186:Core/Src/leds.c ****         state2_flag = 0;
 824              		.loc 1 186 9 is_stmt 1 view .LVU213
 186:Core/Src/leds.c ****         state2_flag = 0;
 825              		.loc 1 186 21 is_stmt 0 view .LVU214
 826 0072 174B     		ldr	r3, .L68+4
 827 0074 0022     		movs	r2, #0
 828              	.LVL16:
 186:Core/Src/leds.c ****         state2_flag = 0;
 829              		.loc 1 186 21 view .LVU215
 830 0076 1A70     		strb	r2, [r3]
ARM GAS  C:\Users\mns94\AppData\Local\Temp\ccw5G8xd.s 			page 20


 831 0078 CDE7     		b	.L56
 832              	.LVL17:
 833              	.L62:
 834              	.LBB5:
 191:Core/Src/leds.c ****         for(uint8_t tmp=0;tmp<6;tmp++){
 835              		.loc 1 191 36 is_stmt 1 discriminator 2 view .LVU216
 836 007a 0133     		adds	r3, r3, #1
 837              	.LVL18:
 191:Core/Src/leds.c ****         for(uint8_t tmp=0;tmp<6;tmp++){
 838              		.loc 1 191 36 is_stmt 0 discriminator 2 view .LVU217
 839 007c DBB2     		uxtb	r3, r3
 840              	.LVL19:
 841              	.L61:
 191:Core/Src/leds.c ****         for(uint8_t tmp=0;tmp<6;tmp++){
 842              		.loc 1 191 30 is_stmt 1 discriminator 1 view .LVU218
 843 007e 052B     		cmp	r3, #5
 844 0080 1FD8     		bhi	.L67
 192:Core/Src/leds.c ****             if (LedState2Data[0][tmp] >= LedState2Data[1][tmp] && LedState2Data[2][tmp]==1){
 845              		.loc 1 192 13 view .LVU219
 192:Core/Src/leds.c ****             if (LedState2Data[0][tmp] >= LedState2Data[1][tmp] && LedState2Data[2][tmp]==1){
 846              		.loc 1 192 33 is_stmt 0 view .LVU220
 847 0082 144A     		ldr	r2, .L68+8
 848 0084 32F81310 		ldrh	r1, [r2, r3, lsl #1]
 192:Core/Src/leds.c ****             if (LedState2Data[0][tmp] >= LedState2Data[1][tmp] && LedState2Data[2][tmp]==1){
 849              		.loc 1 192 58 view .LVU221
 850 0088 981D     		adds	r0, r3, #6
 851 008a 32F81020 		ldrh	r2, [r2, r0, lsl #1]
 192:Core/Src/leds.c ****             if (LedState2Data[0][tmp] >= LedState2Data[1][tmp] && LedState2Data[2][tmp]==1){
 852              		.loc 1 192 16 view .LVU222
 853 008e 9142     		cmp	r1, r2
 854 0090 F3D3     		bcc	.L62
 192:Core/Src/leds.c ****             if (LedState2Data[0][tmp] >= LedState2Data[1][tmp] && LedState2Data[2][tmp]==1){
 855              		.loc 1 192 83 discriminator 1 view .LVU223
 856 0092 03F10C02 		add	r2, r3, #12
 857 0096 0F49     		ldr	r1, .L68+8
 858 0098 31F81220 		ldrh	r2, [r1, r2, lsl #1]
 192:Core/Src/leds.c ****             if (LedState2Data[0][tmp] >= LedState2Data[1][tmp] && LedState2Data[2][tmp]==1){
 859              		.loc 1 192 64 discriminator 1 view .LVU224
 860 009c 012A     		cmp	r2, #1
 861 009e ECD1     		bne	.L62
 193:Core/Src/leds.c ****                 LedState2Data[0][tmp] = 0;
 862              		.loc 1 193 17 is_stmt 1 view .LVU225
 193:Core/Src/leds.c ****                 LedState2Data[0][tmp] = 0;
 863              		.loc 1 193 39 is_stmt 0 view .LVU226
 864 00a0 0A46     		mov	r2, r1
 865 00a2 0021     		movs	r1, #0
 866 00a4 22F81310 		strh	r1, [r2, r3, lsl #1]	@ movhi
 194:Core/Src/leds.c ****                 LedState2Data[2][tmp] = 0;
 867              		.loc 1 194 17 is_stmt 1 view .LVU227
 194:Core/Src/leds.c ****                 LedState2Data[2][tmp] = 0;
 868              		.loc 1 194 39 is_stmt 0 view .LVU228
 869 00a8 03F10C00 		add	r0, r3, #12
 870 00ac 22F81010 		strh	r1, [r2, r0, lsl #1]	@ movhi
 195:Core/Src/leds.c ****                 SET_BIT(GPIOB->BSRR, 1UL << led[tmp]);
 871              		.loc 1 195 17 is_stmt 1 view .LVU229
 872 00b0 0948     		ldr	r0, .L68+12
 873 00b2 8269     		ldr	r2, [r0, #24]
ARM GAS  C:\Users\mns94\AppData\Local\Temp\ccw5G8xd.s 			page 21


 874 00b4 0949     		ldr	r1, .L68+16
 875 00b6 CC5C     		ldrb	r4, [r1, r3]	@ zero_extendqisi2
 876 00b8 0121     		movs	r1, #1
 877 00ba A140     		lsls	r1, r1, r4
 878 00bc 0A43     		orrs	r2, r2, r1
 879 00be 8261     		str	r2, [r0, #24]
 880 00c0 DBE7     		b	.L62
 881              	.L67:
 882              	.LBE5:
 198:Core/Src/leds.c ****         state2_flag=1;
 883              		.loc 1 198 9 view .LVU230
 198:Core/Src/leds.c ****         state2_flag=1;
 884              		.loc 1 198 20 is_stmt 0 view .LVU231
 885 00c2 034B     		ldr	r3, .L68+4
 886              	.LVL20:
 198:Core/Src/leds.c ****         state2_flag=1;
 887              		.loc 1 198 20 view .LVU232
 888 00c4 0122     		movs	r2, #1
 889 00c6 1A70     		strb	r2, [r3]
 890              		.loc 1 200 1 view .LVU233
 891 00c8 A9E7     		b	.L55
 892              	.L69:
 893 00ca 00BF     		.align	2
 894              	.L68:
 895 00cc 00000000 		.word	flagUp2
 896 00d0 00000000 		.word	state2_flag
 897 00d4 00000000 		.word	LedState2Data
 898 00d8 00040240 		.word	1073873920
 899 00dc 00000000 		.word	led
 900              		.cfi_endproc
 901              	.LFE148:
 903              		.global	tmp_counter
 904              		.section	.bss.tmp_counter,"aw",%nobits
 907              	tmp_counter:
 908 0000 00       		.space	1
 909              		.global	counter
 910              		.section	.bss.counter,"aw",%nobits
 913              	counter:
 914 0000 00       		.space	1
 915              		.global	p_b3_check
 916              		.section	.bss.p_b3_check,"aw",%nobits
 919              	p_b3_check:
 920 0000 00       		.space	1
 921              		.global	b3_check
 922              		.section	.bss.b3_check,"aw",%nobits
 925              	b3_check:
 926 0000 00       		.space	1
 927              		.global	p_b2_check
 928              		.section	.bss.p_b2_check,"aw",%nobits
 931              	p_b2_check:
 932 0000 00       		.space	1
 933              		.global	b2_check
 934              		.section	.bss.b2_check,"aw",%nobits
 937              	b2_check:
 938 0000 00       		.space	1
 939              		.global	flagUp
 940              		.section	.data.flagUp,"aw"
ARM GAS  C:\Users\mns94\AppData\Local\Temp\ccw5G8xd.s 			page 22


 943              	flagUp:
 944 0000 01       		.byte	1
 945              		.global	led
 946              		.section	.data.led,"aw"
 947              		.align	2
 950              	led:
 951 0000 0809050C 		.ascii	"\010\011\005\014\015\017"
 951      0D0F
 952              		.global	flag3
 953              		.section	.bss.flag3,"aw",%nobits
 956              	flag3:
 957 0000 00       		.space	1
 958              		.global	flag2
 959              		.section	.bss.flag2,"aw",%nobits
 962              	flag2:
 963 0000 00       		.space	1
 964              		.global	flag1
 965              		.section	.bss.flag1,"aw",%nobits
 968              	flag1:
 969 0000 00       		.space	1
 970              		.text
 971              	.Letext0:
 972              		.file 2 "C:\\ST\\STM32CubeCLT_1.17.0\\GNU-tools-for-STM32\\bin/../lib/gcc/arm-none-eabi/12.3.1/../
 973              		.file 3 "C:\\ST\\STM32CubeCLT_1.17.0\\GNU-tools-for-STM32\\bin/../lib/gcc/arm-none-eabi/12.3.1/../
 974              		.file 4 "CMSIS/Devices/.\\stm32f767xx.h"
ARM GAS  C:\Users\mns94\AppData\Local\Temp\ccw5G8xd.s 			page 23

