ARM GAS  C:\Users\PC20317\AppData\Local\Temp\ccQm9lZh.s 			page 1


   1              		.cpu cortex-m4
   2              		.arch armv7e-m
   3              		.fpu fpv4-sp-d16
   4              		.eabi_attribute 27, 1
   5              		.eabi_attribute 28, 1
   6              		.eabi_attribute 20, 1
   7              		.eabi_attribute 21, 1
   8              		.eabi_attribute 23, 3
   9              		.eabi_attribute 24, 1
  10              		.eabi_attribute 25, 1
  11              		.eabi_attribute 26, 1
  12              		.eabi_attribute 30, 1
  13              		.eabi_attribute 34, 1
  14              		.eabi_attribute 18, 4
  15              		.file	"main.c"
  16              		.text
  17              	.Ltext0:
  18              		.cfi_sections	.debug_frame
  19              		.file 1 "Core/Src/main.c"
  20              		.section	.text.main,"ax",%progbits
  21              		.align	1
  22              		.global	main
  23              		.syntax unified
  24              		.thumb
  25              		.thumb_func
  27              	main:
  28              	.LFB130:
   1:Core/Src/main.c **** #include "init.h"
   2:Core/Src/main.c **** 
   3:Core/Src/main.c **** // –ì–ª–æ–±–∞–ª—å–Ω—ã–µ –ø–µ—Ä–µ–º–µ–Ω–Ω—ã–µ –¥–ª—è –º–æ–Ω–∏—Ç–æ—Ä–∏–Ω–≥–∞
   4:Core/Src/main.c **** volatile uint8_t num_leds = 1;        // –ö–æ–ª–∏—á–µ—Å—Ç–≤–æ –æ–¥–Ω–æ–≤—Ä–µ–º–µ–Ω–Ω–æ –≤–∫–ª—é—á–∞
   5:Core/Src/main.c **** volatile uint8_t button1_state = 0;   // –°–æ—Å—Ç–æ—è–Ω–∏–µ –∫–Ω–æ–ø–∫–∏ D8 (0 = –Ω–µ –Ω–∞–∂–∞—Ç–∞,
   6:Core/Src/main.c **** volatile uint8_t button2_state = 0;   // –°–æ—Å—Ç–æ—è–Ω–∏–µ –∫–Ω–æ–ø–∫–∏ D9 (0 = –Ω–µ –Ω–∞–∂–∞—Ç–∞,
   7:Core/Src/main.c **** volatile uint8_t current_led = 0;     // –ò–Ω–¥–µ–∫—Å —Ç–µ–∫—É—â–µ–≥–æ –≤–∫–ª—é—á–µ–Ω–Ω–æ–≥–æ —Å–≤–
   8:Core/Src/main.c **** volatile uint8_t leds_on = 0;         // –°–æ—Å—Ç–æ—è–Ω–∏–µ —Å–≤–µ—Ç–æ–¥–∏–æ–¥–æ–≤ (0 = –≤—ã–∫–ª, 1
   9:Core/Src/main.c **** 
  10:Core/Src/main.c **** int main(void) {
  29              		.loc 1 10 16 view -0
  30              		.cfi_startproc
  31              		@ args = 0, pretend = 0, frame = 0
  32              		@ frame_needed = 0, uses_anonymous_args = 0
  33 0000 08B5     		push	{r3, lr}
  34              	.LCFI0:
  35              		.cfi_def_cfa_offset 8
  36              		.cfi_offset 3, -8
  37              		.cfi_offset 14, -4
  11:Core/Src/main.c ****     GPIO_Init(); // –ò–Ω–∏—Ü–∏–∞–ª–∏–∑–∞—Ü–∏—è GPIO
  38              		.loc 1 11 5 view .LVU1
  39 0002 FFF7FEFF 		bl	GPIO_Init
  40              	.LVL0:
  41 0006 0BE0     		b	.L4
  42              	.L2:
  12:Core/Src/main.c **** 
  13:Core/Src/main.c ****     while (1) {
  14:Core/Src/main.c ****         // –ü—Ä–æ–≤–µ—Ä–∫–∞ —Å–æ—Å—Ç–æ—è–Ω–∏—è –∫–Ω–æ–ø–∫–∏ D8 (PF12)
  15:Core/Src/main.c ****         button1_state = (GPIOF_IDR & GPIOF_PIN12) ? 1 : 0;
  16:Core/Src/main.c ****         if (button1_state) {
ARM GAS  C:\Users\PC20317\AppData\Local\Temp\ccQm9lZh.s 			page 2


  17:Core/Src/main.c ****             num_leds = (num_leds % 6) + 1; // –ò–∑–º–µ–Ω–µ–Ω–∏–µ –∫–æ–ª–∏—á–µ—Å—Ç–≤–∞ —Å–≤–µ—Ç–æ–¥–
  18:Core/Src/main.c ****             while (GPIOF_IDR & GPIOF_PIN12); // –û–∂–∏–¥–∞–Ω–∏–µ –æ—Ç–ø—É—Å–∫–∞–Ω–∏—è –∫–Ω–æ–ø–∫–∏
  19:Core/Src/main.c ****         }
  20:Core/Src/main.c **** 
  21:Core/Src/main.c ****         // –ü—Ä–æ–≤–µ—Ä–∫–∞ —Å–æ—Å—Ç–æ—è–Ω–∏—è –∫–Ω–æ–ø–∫–∏ D9 (PD15)
  22:Core/Src/main.c ****         button2_state = (GPIOD_IDR & GPIOD_PIN15) ? 1 : 0;
  43              		.loc 1 22 9 view .LVU2
  44              		.loc 1 22 26 is_stmt 0 view .LVU3
  45 0008 5D4B     		ldr	r3, .L24
  46 000a D3F8103C 		ldr	r3, [r3, #3088]
  47              		.loc 1 22 36 view .LVU4
  48 000e 03F40043 		and	r3, r3, #32768
  49              		.loc 1 22 55 view .LVU5
  50 0012 003B     		subs	r3, r3, #0
  51 0014 18BF     		it	ne
  52 0016 0123     		movne	r3, #1
  53              		.loc 1 22 23 view .LVU6
  54 0018 5A4A     		ldr	r2, .L24+4
  55 001a 1370     		strb	r3, [r2]
  23:Core/Src/main.c ****         if (button2_state) {
  56              		.loc 1 23 9 is_stmt 1 view .LVU7
  57              		.loc 1 23 13 is_stmt 0 view .LVU8
  58 001c 1378     		ldrb	r3, [r2]	@ zero_extendqisi2
  59              		.loc 1 23 12 view .LVU9
  60 001e 0BBB     		cbnz	r3, .L22
  61              	.L4:
  13:Core/Src/main.c ****         // –ü—Ä–æ–≤–µ—Ä–∫–∞ —Å–æ—Å—Ç–æ—è–Ω–∏—è –∫–Ω–æ–ø–∫–∏ D8 (PF12)
  62              		.loc 1 13 5 is_stmt 1 view .LVU10
  15:Core/Src/main.c ****         if (button1_state) {
  63              		.loc 1 15 9 view .LVU11
  15:Core/Src/main.c ****         if (button1_state) {
  64              		.loc 1 15 26 is_stmt 0 view .LVU12
  65 0020 594B     		ldr	r3, .L24+8
  66 0022 D3F81034 		ldr	r3, [r3, #1040]
  15:Core/Src/main.c ****         if (button1_state) {
  67              		.loc 1 15 36 view .LVU13
  68 0026 03F48053 		and	r3, r3, #4096
  15:Core/Src/main.c ****         if (button1_state) {
  69              		.loc 1 15 55 view .LVU14
  70 002a 003B     		subs	r3, r3, #0
  71 002c 18BF     		it	ne
  72 002e 0123     		movne	r3, #1
  15:Core/Src/main.c ****         if (button1_state) {
  73              		.loc 1 15 23 view .LVU15
  74 0030 564A     		ldr	r2, .L24+12
  75 0032 1370     		strb	r3, [r2]
  16:Core/Src/main.c ****             num_leds = (num_leds % 6) + 1; // –ò–∑–º–µ–Ω–µ–Ω–∏–µ –∫–æ–ª–∏—á–µ—Å—Ç–≤–∞ —Å–≤–µ—Ç–æ–¥–
  76              		.loc 1 16 9 is_stmt 1 view .LVU16
  16:Core/Src/main.c ****             num_leds = (num_leds % 6) + 1; // –ò–∑–º–µ–Ω–µ–Ω–∏–µ –∫–æ–ª–∏—á–µ—Å—Ç–≤–∞ —Å–≤–µ—Ç–æ–¥–
  77              		.loc 1 16 13 is_stmt 0 view .LVU17
  78 0034 1378     		ldrb	r3, [r2]	@ zero_extendqisi2
  16:Core/Src/main.c ****             num_leds = (num_leds % 6) + 1; // –ò–∑–º–µ–Ω–µ–Ω–∏–µ –∫–æ–ª–∏—á–µ—Å—Ç–≤–∞ —Å–≤–µ—Ç–æ–¥–
  79              		.loc 1 16 12 view .LVU18
  80 0036 002B     		cmp	r3, #0
  81 0038 E6D0     		beq	.L2
  17:Core/Src/main.c ****             while (GPIOF_IDR & GPIOF_PIN12); // –û–∂–∏–¥–∞–Ω–∏–µ –æ—Ç–ø—É—Å–∫–∞–Ω–∏—è –∫–Ω–æ–ø–∫–∏
  82              		.loc 1 17 13 is_stmt 1 view .LVU19
ARM GAS  C:\Users\PC20317\AppData\Local\Temp\ccQm9lZh.s 			page 3


  17:Core/Src/main.c ****             while (GPIOF_IDR & GPIOF_PIN12); // –û–∂–∏–¥–∞–Ω–∏–µ –æ—Ç–ø—É—Å–∫–∞–Ω–∏—è –∫–Ω–æ–ø–∫–∏
  83              		.loc 1 17 39 is_stmt 0 view .LVU20
  84 003a 5549     		ldr	r1, .L24+16
  85 003c 0B78     		ldrb	r3, [r1]	@ zero_extendqisi2
  86 003e DBB2     		uxtb	r3, r3
  87 0040 544A     		ldr	r2, .L24+20
  88 0042 A2FB0302 		umull	r0, r2, r2, r3
  89 0046 9208     		lsrs	r2, r2, #2
  90 0048 02EB4202 		add	r2, r2, r2, lsl #1
  91 004c 5000     		lsls	r0, r2, #1
  92 004e 1B1A     		subs	r3, r3, r0
  93 0050 0133     		adds	r3, r3, #1
  94 0052 DBB2     		uxtb	r3, r3
  17:Core/Src/main.c ****             while (GPIOF_IDR & GPIOF_PIN12); // –û–∂–∏–¥–∞–Ω–∏–µ –æ—Ç–ø—É—Å–∫–∞–Ω–∏—è –∫–Ω–æ–ø–∫–∏
  95              		.loc 1 17 22 view .LVU21
  96 0054 0B70     		strb	r3, [r1]
  18:Core/Src/main.c ****         }
  97              		.loc 1 18 13 is_stmt 1 view .LVU22
  98              	.L3:
  18:Core/Src/main.c ****         }
  99              		.loc 1 18 20 discriminator 1 view .LVU23
 100 0056 4C4B     		ldr	r3, .L24+8
 101 0058 D3F81034 		ldr	r3, [r3, #1040]
 102 005c 13F4805F 		tst	r3, #4096
 103 0060 F9D1     		bne	.L3
 104 0062 D1E7     		b	.L2
 105              	.L22:
  24:Core/Src/main.c ****             if (num_leds == 6) {
 106              		.loc 1 24 13 view .LVU24
 107              		.loc 1 24 26 is_stmt 0 view .LVU25
 108 0064 4A4B     		ldr	r3, .L24+16
 109 0066 1B78     		ldrb	r3, [r3]	@ zero_extendqisi2
 110              		.loc 1 24 16 view .LVU26
 111 0068 062B     		cmp	r3, #6
 112 006a 22D1     		bne	.L5
  25:Core/Src/main.c ****                 // –ï—Å–ª–∏ –≤—ã–±—Ä–∞–Ω–æ 6 —Å–≤–µ—Ç–æ–¥–∏–æ–¥–æ–≤, –ø–µ—Ä–µ–∫–ª—é—á–∞–µ–º –∏—Ö –≤
  26:Core/Src/main.c ****                 if (leds_on) {
 113              		.loc 1 26 17 is_stmt 1 view .LVU27
 114              		.loc 1 26 21 is_stmt 0 view .LVU28
 115 006c 4A4B     		ldr	r3, .L24+24
 116 006e 1B78     		ldrb	r3, [r3]	@ zero_extendqisi2
 117              		.loc 1 26 20 view .LVU29
 118 0070 7BB1     		cbz	r3, .L6
  27:Core/Src/main.c ****                     GPIOG_BSRR = (GPIOG_PIN9 | GPIOG_PIN14) << 16;
 119              		.loc 1 27 21 is_stmt 1 view .LVU30
 120              		.loc 1 27 32 is_stmt 0 view .LVU31
 121 0072 454B     		ldr	r3, .L24+8
 122 0074 4FF08442 		mov	r2, #1107296256
 123 0078 C3F81828 		str	r2, [r3, #2072]
  28:Core/Src/main.c ****                     GPIOF_BSRR = (GPIOF_PIN15 | GPIOF_PIN14) << 16;
 124              		.loc 1 28 21 is_stmt 1 view .LVU32
 125              		.loc 1 28 32 is_stmt 0 view .LVU33
 126 007c 4FF04042 		mov	r2, #-1073741824
 127 0080 C3F81824 		str	r2, [r3, #1048]
  29:Core/Src/main.c ****                     GPIOE_BSRR = (GPIOE_PIN13 | GPIOE_PIN11) << 16;
 128              		.loc 1 29 21 is_stmt 1 view .LVU34
 129              		.loc 1 29 32 is_stmt 0 view .LVU35
ARM GAS  C:\Users\PC20317\AppData\Local\Temp\ccQm9lZh.s 			page 4


 130 0084 4FF02052 		mov	r2, #671088640
 131 0088 9A61     		str	r2, [r3, #24]
  30:Core/Src/main.c ****                     leds_on = 0;
 132              		.loc 1 30 21 is_stmt 1 view .LVU36
 133              		.loc 1 30 29 is_stmt 0 view .LVU37
 134 008a 434B     		ldr	r3, .L24+24
 135 008c 0022     		movs	r2, #0
 136 008e 1A70     		strb	r2, [r3]
 137 0090 6EE0     		b	.L18
 138              	.L6:
  31:Core/Src/main.c ****                 } else {
  32:Core/Src/main.c ****                     GPIOG_BSRR = GPIOG_PIN9 | GPIOG_PIN14;
 139              		.loc 1 32 21 is_stmt 1 view .LVU38
 140              		.loc 1 32 32 is_stmt 0 view .LVU39
 141 0092 3D4B     		ldr	r3, .L24+8
 142 0094 4FF48442 		mov	r2, #16896
 143 0098 C3F81828 		str	r2, [r3, #2072]
  33:Core/Src/main.c ****                     GPIOF_BSRR = GPIOF_PIN15 | GPIOF_PIN14;
 144              		.loc 1 33 21 is_stmt 1 view .LVU40
 145              		.loc 1 33 32 is_stmt 0 view .LVU41
 146 009c 4FF44042 		mov	r2, #49152
 147 00a0 C3F81824 		str	r2, [r3, #1048]
  34:Core/Src/main.c ****                     GPIOE_BSRR = GPIOE_PIN13 | GPIOE_PIN11;
 148              		.loc 1 34 21 is_stmt 1 view .LVU42
 149              		.loc 1 34 32 is_stmt 0 view .LVU43
 150 00a4 4FF42052 		mov	r2, #10240
 151 00a8 9A61     		str	r2, [r3, #24]
  35:Core/Src/main.c ****                     leds_on = 1;
 152              		.loc 1 35 21 is_stmt 1 view .LVU44
 153              		.loc 1 35 29 is_stmt 0 view .LVU45
 154 00aa 3B4B     		ldr	r3, .L24+24
 155 00ac 0122     		movs	r2, #1
 156 00ae 1A70     		strb	r2, [r3]
 157 00b0 5EE0     		b	.L18
 158              	.L5:
  36:Core/Src/main.c ****                 }
  37:Core/Src/main.c ****             } else {
  38:Core/Src/main.c ****                 // –í—ã–∫–ª—é—á–∏—Ç—å –≤—Å–µ –ø–µ—Ä–µ–¥ –ø–µ—Ä–µ–∫–ª—é—á–µ–Ω–∏–µ–º
  39:Core/Src/main.c ****                 GPIOG_BSRR = (GPIOG_PIN9 | GPIOG_PIN14) << 16;
 159              		.loc 1 39 17 is_stmt 1 view .LVU46
 160              		.loc 1 39 28 is_stmt 0 view .LVU47
 161 00b2 354B     		ldr	r3, .L24+8
 162 00b4 4FF08442 		mov	r2, #1107296256
 163 00b8 C3F81828 		str	r2, [r3, #2072]
  40:Core/Src/main.c ****                 GPIOF_BSRR = (GPIOF_PIN15 | GPIOF_PIN14) << 16;
 164              		.loc 1 40 17 is_stmt 1 view .LVU48
 165              		.loc 1 40 28 is_stmt 0 view .LVU49
 166 00bc 4FF04042 		mov	r2, #-1073741824
 167 00c0 C3F81824 		str	r2, [r3, #1048]
  41:Core/Src/main.c ****                 GPIOE_BSRR = (GPIOE_PIN13 | GPIOE_PIN11) << 16;
 168              		.loc 1 41 17 is_stmt 1 view .LVU50
 169              		.loc 1 41 28 is_stmt 0 view .LVU51
 170 00c4 4FF02052 		mov	r2, #671088640
 171 00c8 9A61     		str	r2, [r3, #24]
  42:Core/Src/main.c **** 
  43:Core/Src/main.c ****                 // –ü–µ—Ä–µ–∫–ª—é—á–∏—Ç—å —Å–≤–µ—Ç–æ–¥–∏–æ–¥—ã
  44:Core/Src/main.c ****                 for (uint8_t i = 0; i < num_leds; i++) {
ARM GAS  C:\Users\PC20317\AppData\Local\Temp\ccQm9lZh.s 			page 5


 172              		.loc 1 44 17 is_stmt 1 view .LVU52
 173              	.LBB2:
 174              		.loc 1 44 22 view .LVU53
 175              	.LVL1:
 176              		.loc 1 44 30 is_stmt 0 view .LVU54
 177 00ca 0022     		movs	r2, #0
 178              		.loc 1 44 17 view .LVU55
 179 00cc 06E0     		b	.L8
 180              	.LVL2:
 181              	.L16:
 182              	.LBB3:
  45:Core/Src/main.c ****                     uint8_t led_idx = (current_led + i) % 6;
  46:Core/Src/main.c ****                     switch (led_idx) {
  47:Core/Src/main.c ****                         case 0: GPIOG_BSRR = GPIOG_PIN9; break;
 183              		.loc 1 47 33 is_stmt 1 view .LVU56
 184              		.loc 1 47 44 is_stmt 0 view .LVU57
 185 00ce 2E4B     		ldr	r3, .L24+8
 186              	.LVL3:
 187              		.loc 1 47 44 view .LVU58
 188 00d0 4FF40071 		mov	r1, #512
 189 00d4 C3F81818 		str	r1, [r3, #2072]
 190              		.loc 1 47 58 is_stmt 1 view .LVU59
 191              	.L9:
 192              	.LBE3:
  44:Core/Src/main.c ****                     uint8_t led_idx = (current_led + i) % 6;
 193              		.loc 1 44 52 discriminator 2 view .LVU60
 194 00d8 0132     		adds	r2, r2, #1
 195              	.LVL4:
  44:Core/Src/main.c ****                     uint8_t led_idx = (current_led + i) % 6;
 196              		.loc 1 44 52 is_stmt 0 discriminator 2 view .LVU61
 197 00da D2B2     		uxtb	r2, r2
 198              	.LVL5:
 199              	.L8:
  44:Core/Src/main.c ****                     uint8_t led_idx = (current_led + i) % 6;
 200              		.loc 1 44 39 is_stmt 1 discriminator 1 view .LVU62
 201 00dc 2C4B     		ldr	r3, .L24+16
 202 00de 1B78     		ldrb	r3, [r3]	@ zero_extendqisi2
 203 00e0 9342     		cmp	r3, r2
 204 00e2 39D9     		bls	.L23
 205              	.LBB4:
  45:Core/Src/main.c ****                     uint8_t led_idx = (current_led + i) % 6;
 206              		.loc 1 45 21 view .LVU63
  45:Core/Src/main.c ****                     uint8_t led_idx = (current_led + i) % 6;
 207              		.loc 1 45 52 is_stmt 0 view .LVU64
 208 00e4 2D4B     		ldr	r3, .L24+28
 209 00e6 1978     		ldrb	r1, [r3]	@ zero_extendqisi2
 210 00e8 1144     		add	r1, r1, r2
  45:Core/Src/main.c ****                     uint8_t led_idx = (current_led + i) % 6;
 211              		.loc 1 45 57 view .LVU65
 212 00ea 2D4B     		ldr	r3, .L24+32
 213 00ec 83FB0103 		smull	r0, r3, r3, r1
 214 00f0 A3EBE173 		sub	r3, r3, r1, asr #31
 215 00f4 03EB4303 		add	r3, r3, r3, lsl #1
 216 00f8 5800     		lsls	r0, r3, #1
 217 00fa 0B1A     		subs	r3, r1, r0
 218              	.LVL6:
  46:Core/Src/main.c ****                         case 0: GPIOG_BSRR = GPIOG_PIN9; break;
ARM GAS  C:\Users\PC20317\AppData\Local\Temp\ccQm9lZh.s 			page 6


 219              		.loc 1 46 21 is_stmt 1 view .LVU66
 220 00fc DBB2     		uxtb	r3, r3
  46:Core/Src/main.c ****                         case 0: GPIOG_BSRR = GPIOG_PIN9; break;
 221              		.loc 1 46 21 is_stmt 0 view .LVU67
 222 00fe 052B     		cmp	r3, #5
 223 0100 EAD8     		bhi	.L9
 224 0102 01A1     		adr	r1, .L11
 225 0104 51F823F0 		ldr	pc, [r1, r3, lsl #2]
 226              		.p2align 2
 227              	.L11:
 228 0108 CF000000 		.word	.L16+1
 229 010c 21010000 		.word	.L15+1
 230 0110 2D010000 		.word	.L14+1
 231 0114 39010000 		.word	.L13+1
 232 0118 43010000 		.word	.L12+1
 233 011c 4F010000 		.word	.L10+1
 234              		.p2align 1
 235              	.L15:
  48:Core/Src/main.c ****                         case 1: GPIOG_BSRR = GPIOG_PIN14; break;
 236              		.loc 1 48 33 is_stmt 1 view .LVU68
 237              		.loc 1 48 44 is_stmt 0 view .LVU69
 238 0120 194B     		ldr	r3, .L24+8
 239              	.LVL7:
 240              		.loc 1 48 44 view .LVU70
 241 0122 4FF48041 		mov	r1, #16384
 242 0126 C3F81818 		str	r1, [r3, #2072]
 243              		.loc 1 48 59 is_stmt 1 view .LVU71
 244 012a D5E7     		b	.L9
 245              	.LVL8:
 246              	.L14:
  49:Core/Src/main.c ****                         case 2: GPIOF_BSRR = GPIOF_PIN15; break;
 247              		.loc 1 49 33 view .LVU72
 248              		.loc 1 49 44 is_stmt 0 view .LVU73
 249 012c 164B     		ldr	r3, .L24+8
 250              	.LVL9:
 251              		.loc 1 49 44 view .LVU74
 252 012e 4FF40041 		mov	r1, #32768
 253 0132 C3F81814 		str	r1, [r3, #1048]
 254              		.loc 1 49 59 is_stmt 1 view .LVU75
 255 0136 CFE7     		b	.L9
 256              	.LVL10:
 257              	.L13:
  50:Core/Src/main.c ****                         case 3: GPIOE_BSRR = GPIOE_PIN13; break;
 258              		.loc 1 50 33 view .LVU76
 259              		.loc 1 50 44 is_stmt 0 view .LVU77
 260 0138 134B     		ldr	r3, .L24+8
 261              	.LVL11:
 262              		.loc 1 50 44 view .LVU78
 263 013a 4FF40051 		mov	r1, #8192
 264 013e 9961     		str	r1, [r3, #24]
 265              		.loc 1 50 59 is_stmt 1 view .LVU79
 266 0140 CAE7     		b	.L9
 267              	.LVL12:
 268              	.L12:
  51:Core/Src/main.c ****                         case 4: GPIOF_BSRR = GPIOF_PIN14; break;
 269              		.loc 1 51 33 view .LVU80
 270              		.loc 1 51 44 is_stmt 0 view .LVU81
ARM GAS  C:\Users\PC20317\AppData\Local\Temp\ccQm9lZh.s 			page 7


 271 0142 114B     		ldr	r3, .L24+8
 272              	.LVL13:
 273              		.loc 1 51 44 view .LVU82
 274 0144 4FF48041 		mov	r1, #16384
 275 0148 C3F81814 		str	r1, [r3, #1048]
 276              		.loc 1 51 59 is_stmt 1 view .LVU83
 277 014c C4E7     		b	.L9
 278              	.LVL14:
 279              	.L10:
  52:Core/Src/main.c ****                         case 5: GPIOE_BSRR = GPIOE_PIN11; break;
 280              		.loc 1 52 33 view .LVU84
 281              		.loc 1 52 44 is_stmt 0 view .LVU85
 282 014e 0E4B     		ldr	r3, .L24+8
 283              	.LVL15:
 284              		.loc 1 52 44 view .LVU86
 285 0150 4FF40061 		mov	r1, #2048
 286 0154 9961     		str	r1, [r3, #24]
 287              		.loc 1 52 59 is_stmt 1 view .LVU87
 288 0156 BFE7     		b	.L9
 289              	.LVL16:
 290              	.L23:
 291              		.loc 1 52 59 is_stmt 0 view .LVU88
 292              	.LBE4:
 293              	.LBE2:
  53:Core/Src/main.c ****                     }
  54:Core/Src/main.c ****                 }
  55:Core/Src/main.c **** 
  56:Core/Src/main.c ****                 // –û–±–Ω–æ–≤–∏—Ç—å —Ç–µ–∫—É—â–∏–π —Å–≤–µ—Ç–æ–¥–∏–æ–¥
  57:Core/Src/main.c ****                 current_led = (current_led + 1) % 6;
 294              		.loc 1 57 17 is_stmt 1 view .LVU89
 295              		.loc 1 57 44 is_stmt 0 view .LVU90
 296 0158 1049     		ldr	r1, .L24+28
 297 015a 0A78     		ldrb	r2, [r1]	@ zero_extendqisi2
 298              	.LVL17:
 299              		.loc 1 57 44 view .LVU91
 300 015c 0132     		adds	r2, r2, #1
 301              		.loc 1 57 49 view .LVU92
 302 015e 104B     		ldr	r3, .L24+32
 303 0160 83FB0203 		smull	r0, r3, r3, r2
 304 0164 03EB4303 		add	r3, r3, r3, lsl #1
 305 0168 5800     		lsls	r0, r3, #1
 306 016a 131A     		subs	r3, r2, r0
 307              		.loc 1 57 29 view .LVU93
 308 016c DBB2     		uxtb	r3, r3
 309 016e 0B70     		strb	r3, [r1]
 310              	.LVL18:
 311              	.L18:
  58:Core/Src/main.c ****             }
  59:Core/Src/main.c ****             while (GPIOD_IDR & GPIOD_PIN15); // –û–∂–∏–¥–∞–Ω–∏–µ –æ—Ç–ø—É—Å–∫–∞–Ω–∏—è –∫–Ω–æ–ø–∫–∏
 312              		.loc 1 59 20 is_stmt 1 discriminator 1 view .LVU94
 313 0170 034B     		ldr	r3, .L24
 314 0172 D3F8103C 		ldr	r3, [r3, #3088]
 315 0176 13F4004F 		tst	r3, #32768
 316 017a F9D1     		bne	.L18
 317 017c 50E7     		b	.L4
 318              	.L25:
 319 017e 00BF     		.align	2
ARM GAS  C:\Users\PC20317\AppData\Local\Temp\ccQm9lZh.s 			page 8


 320              	.L24:
 321 0180 00000240 		.word	1073872896
 322 0184 00000000 		.word	button2_state
 323 0188 00100240 		.word	1073876992
 324 018c 00000000 		.word	button1_state
 325 0190 00000000 		.word	num_leds
 326 0194 ABAAAAAA 		.word	-1431655765
 327 0198 00000000 		.word	leds_on
 328 019c 00000000 		.word	current_led
 329 01a0 ABAAAA2A 		.word	715827883
 330              		.cfi_endproc
 331              	.LFE130:
 333              		.global	leds_on
 334              		.section	.bss.leds_on,"aw",%nobits
 337              	leds_on:
 338 0000 00       		.space	1
 339              		.global	current_led
 340              		.section	.bss.current_led,"aw",%nobits
 343              	current_led:
 344 0000 00       		.space	1
 345              		.global	button2_state
 346              		.section	.bss.button2_state,"aw",%nobits
 349              	button2_state:
 350 0000 00       		.space	1
 351              		.global	button1_state
 352              		.section	.bss.button1_state,"aw",%nobits
 355              	button1_state:
 356 0000 00       		.space	1
 357              		.global	num_leds
 358              		.section	.data.num_leds,"aw"
 361              	num_leds:
 362 0000 01       		.byte	1
 363              		.text
 364              	.Letext0:
 365              		.file 2 "C:/SysGCC/arm-eabi/arm-none-eabi/include/machine/_default_types.h"
 366              		.file 3 "C:/SysGCC/arm-eabi/arm-none-eabi/include/sys/_stdint.h"
 367              		.file 4 "Core/Inc/init.h"
ARM GAS  C:\Users\PC20317\AppData\Local\Temp\ccQm9lZh.s 			page 9


DEFINED SYMBOLS
                            *ABS*:00000000 main.c
C:\Users\PC20317\AppData\Local\Temp\ccQm9lZh.s:21     .text.main:00000000 $t
C:\Users\PC20317\AppData\Local\Temp\ccQm9lZh.s:27     .text.main:00000000 main
C:\Users\PC20317\AppData\Local\Temp\ccQm9lZh.s:228    .text.main:00000108 $d
C:\Users\PC20317\AppData\Local\Temp\ccQm9lZh.s:234    .text.main:00000120 $t
C:\Users\PC20317\AppData\Local\Temp\ccQm9lZh.s:321    .text.main:00000180 $d
C:\Users\PC20317\AppData\Local\Temp\ccQm9lZh.s:349    .bss.button2_state:00000000 button2_state
C:\Users\PC20317\AppData\Local\Temp\ccQm9lZh.s:355    .bss.button1_state:00000000 button1_state
C:\Users\PC20317\AppData\Local\Temp\ccQm9lZh.s:361    .data.num_leds:00000000 num_leds
C:\Users\PC20317\AppData\Local\Temp\ccQm9lZh.s:337    .bss.leds_on:00000000 leds_on
C:\Users\PC20317\AppData\Local\Temp\ccQm9lZh.s:343    .bss.current_led:00000000 current_led
C:\Users\PC20317\AppData\Local\Temp\ccQm9lZh.s:338    .bss.leds_on:00000000 $d
C:\Users\PC20317\AppData\Local\Temp\ccQm9lZh.s:344    .bss.current_led:00000000 $d
C:\Users\PC20317\AppData\Local\Temp\ccQm9lZh.s:350    .bss.button2_state:00000000 $d
C:\Users\PC20317\AppData\Local\Temp\ccQm9lZh.s:356    .bss.button1_state:00000000 $d

UNDEFINED SYMBOLS
GPIO_Init
