ARM GAS  C:\Users\CHANGY~1\AppData\Local\Temp\ccEiJAjX.s 			page 1


   1              		.cpu cortex-m4
   2              		.arch armv7e-m
   3              		.fpu fpv4-sp-d16
   4              		.eabi_attribute 27, 1
   5              		.eabi_attribute 28, 1
   6              		.eabi_attribute 20, 1
   7              		.eabi_attribute 21, 1
   8              		.eabi_attribute 23, 3
   9              		.eabi_attribute 24, 1
  10              		.eabi_attribute 25, 1
  11              		.eabi_attribute 26, 1
  12              		.eabi_attribute 30, 1
  13              		.eabi_attribute 34, 1
  14              		.eabi_attribute 18, 4
  15              		.file	"main.c"
  16              		.text
  17              	.Ltext0:
  18              		.cfi_sections	.debug_frame
  19              		.file 1 "Core/Src/main.c"
  20              		.section	.text.main,"ax",%progbits
  21              		.align	1
  22              		.global	main
  23              		.syntax unified
  24              		.thumb
  25              		.thumb_func
  27              	main:
  28              	.LFB130:
   1:Core/Src/main.c **** #include <init.h>
   2:Core/Src/main.c **** #include <it_handlers.h>
   3:Core/Src/main.c **** 
   4:Core/Src/main.c **** const uint32_t blink_periods[] = {5000, 1250, 769}; // 对应 0.2Hz、0.8Hz、1.3Hz 1/0.2=5c 闪烁
   5:Core/Src/main.c **** volatile uint8_t current_led = 0; // 当前点亮的LED索引
   6:Core/Src/main.c **** volatile uint8_t work_mode = 1; // 闪烁模式：1=闪烁，0=常亮
   7:Core/Src/main.c **** uint8_t blink_frequency = 0; // 闪烁频率索引（0=0.2Hz, 1=0.8Hz, 2=1.3Hz）
   8:Core/Src/main.c **** volatile uint32_t button2_timer = 0; // 按钮2按住计时
   9:Core/Src/main.c **** volatile uint32_t systick_counter = 0; // SysTick计数器
  10:Core/Src/main.c **** uint8_t flagbutton1,flagbutton2;
  11:Core/Src/main.c **** uint8_t button2_state = 0; // 按钮状态：0=未按下，1=按下中，2=长按已处理
  12:Core/Src/main.c **** const uint32_t led_pins[] = {GPIO_ODR_OD14, GPIO_ODR_OD7, GPIO_ODR_OD0, GPIO_ODR_OD2, GPIO_ODR_OD6,
  13:Core/Src/main.c **** 
  14:Core/Src/main.c **** int main(void) {
  29              		.loc 1 14 16 view -0
  30              		.cfi_startproc
  31              		@ args = 0, pretend = 0, frame = 0
  32              		@ frame_needed = 0, uses_anonymous_args = 0
  33 0000 08B5     		push	{r3, lr}
  34              	.LCFI0:
  35              		.cfi_def_cfa_offset 8
  36              		.cfi_offset 3, -8
  37              		.cfi_offset 14, -4
  15:Core/Src/main.c ****     // 初始化 GPIO、EXTI 和 SysTick
  16:Core/Src/main.c ****     GPIO_Ini(); //Инициализация поротв GPIOl
  38              		.loc 1 16 5 view .LVU1
  39 0002 FFF7FEFF 		bl	GPIO_Ini
  40              	.LVL0:
  17:Core/Src/main.c ****     RCC_Ini(); //Инициализация системы тактирования RCC
  41              		.loc 1 17 5 view .LVU2
ARM GAS  C:\Users\CHANGY~1\AppData\Local\Temp\ccEiJAjX.s 			page 2


  42 0006 FFF7FEFF 		bl	RCC_Ini
  43              	.LVL1:
  18:Core/Src/main.c ****     EXTI_ITR_Ini(); //Инициализация контроллера прерываний
  44              		.loc 1 18 5 view .LVU3
  45 000a FFF7FEFF 		bl	EXTI_ITR_Ini
  46              	.LVL2:
  19:Core/Src/main.c ****     SysTick_Init(); //Инициализация системного таймера
  47              		.loc 1 19 5 view .LVU4
  48 000e FFF7FEFF 		bl	SysTick_Init
  49              	.LVL3:
  50 0012 49E0     		b	.L2
  51              	.L4:
  52              	.LBB2:
  20:Core/Src/main.c **** 
  21:Core/Src/main.c ****     while (1) {
  22:Core/Src/main.c ****      // 按钮 2 的状态轮询
  23:Core/Src/main.c ****         flagbutton1=READ_BIT(GPIOC->IDR,GPIO_IDR_ID13) != 0;
  24:Core/Src/main.c ****         flagbutton2=READ_BIT(GPIOC->IDR,GPIO_IDR_ID6) != 0;
  25:Core/Src/main.c ****         if (READ_BIT(GPIOC->IDR,GPIO_IDR_ID6) != 0) { // 按钮按下
  26:Core/Src/main.c ****             if (button2_state == 0) { // 首次检测到按下
  27:Core/Src/main.c ****                 button2_state = 1;  // 切换到按下中状态
  28:Core/Src/main.c ****                 button2_timer = systick_counter; // 记录按下的时刻
  29:Core/Src/main.c ****             } else if (button2_state == 1) { // 按下中
  53              		.loc 1 29 20 view .LVU5
  54              		.loc 1 29 23 is_stmt 0 view .LVU6
  55 0014 012B     		cmp	r3, #1
  56 0016 17D1     		bne	.L5
  57              	.LBB3:
  30:Core/Src/main.c ****                 uint32_t press_duration = systick_counter - button2_timer;
  58              		.loc 1 30 17 is_stmt 1 view .LVU7
  59              		.loc 1 30 59 is_stmt 0 view .LVU8
  60 0018 314B     		ldr	r3, .L11
  61 001a 1B68     		ldr	r3, [r3]
  62 001c 314A     		ldr	r2, .L11+4
  63 001e 1268     		ldr	r2, [r2]
  64              		.loc 1 30 26 view .LVU9
  65 0020 9B1A     		subs	r3, r3, r2
  66              	.LVL4:
  31:Core/Src/main.c ****                 if (press_duration >= 2000) { // 检测到长按
  67              		.loc 1 31 17 is_stmt 1 view .LVU10
  68              		.loc 1 31 20 is_stmt 0 view .LVU11
  69 0022 B3F5FA6F 		cmp	r3, #2000
  70 0026 0FD3     		bcc	.L5
  32:Core/Src/main.c ****                     work_mode ^= 1;        // 切换工作模式
  71              		.loc 1 32 21 is_stmt 1 view .LVU12
  72              		.loc 1 32 31 is_stmt 0 view .LVU13
  73 0028 2F4A     		ldr	r2, .L11+8
  74 002a 1378     		ldrb	r3, [r2]	@ zero_extendqisi2
  75              	.LVL5:
  76              		.loc 1 32 31 view .LVU14
  77 002c 83F00103 		eor	r3, r3, #1
  78 0030 1370     		strb	r3, [r2]
  33:Core/Src/main.c ****                     button2_state = 2;     // 标记为长按已处理
  79              		.loc 1 33 21 is_stmt 1 view .LVU15
  80              		.loc 1 33 35 is_stmt 0 view .LVU16
  81 0032 2E4B     		ldr	r3, .L11+12
  82 0034 0222     		movs	r2, #2
ARM GAS  C:\Users\CHANGY~1\AppData\Local\Temp\ccEiJAjX.s 			page 3


  83 0036 1A70     		strb	r2, [r3]
  84 0038 06E0     		b	.L5
  85              	.LVL6:
  86              	.L3:
  87              		.loc 1 33 35 view .LVU17
  88              	.LBE3:
  34:Core/Src/main.c ****                 }
  35:Core/Src/main.c ****             }
  36:Core/Src/main.c ****         } else { // 按钮释放
  37:Core/Src/main.c ****             if (button2_state == 1) { // 按下后释放，未达到长按时间
  89              		.loc 1 37 13 is_stmt 1 view .LVU18
  90              		.loc 1 37 31 is_stmt 0 view .LVU19
  91 003a 2C4B     		ldr	r3, .L11+12
  92 003c 1B78     		ldrb	r3, [r3]	@ zero_extendqisi2
  93              		.loc 1 37 16 view .LVU20
  94 003e 012B     		cmp	r3, #1
  95 0040 1FD0     		beq	.L10
  96              	.L6:
  38:Core/Src/main.c ****                 blink_frequency = (blink_frequency + 1) % 3; // 切换频率
  39:Core/Src/main.c ****             }
  40:Core/Src/main.c ****             // 重置按钮状态
  41:Core/Src/main.c ****             button2_state = 0;
  97              		.loc 1 41 13 is_stmt 1 view .LVU21
  98              		.loc 1 41 27 is_stmt 0 view .LVU22
  99 0042 2A4B     		ldr	r3, .L11+12
 100 0044 0022     		movs	r2, #0
 101 0046 1A70     		strb	r2, [r3]
 102              	.L5:
  42:Core/Src/main.c ****         }
  43:Core/Src/main.c **** 
  44:Core/Src/main.c ****         // LED 控制逻辑
  45:Core/Src/main.c ****         static uint32_t blink_counter = 0;
 103              		.loc 1 45 9 is_stmt 1 view .LVU23
  46:Core/Src/main.c ****         if (work_mode == 0) { // 闪烁模式
 104              		.loc 1 46 9 view .LVU24
 105              		.loc 1 46 23 is_stmt 0 view .LVU25
 106 0048 274B     		ldr	r3, .L11+8
 107 004a 1B78     		ldrb	r3, [r3]	@ zero_extendqisi2
 108              		.loc 1 46 12 view .LVU26
 109 004c 2BBB     		cbnz	r3, .L7
  47:Core/Src/main.c ****             if (systick_counter - blink_counter >= blink_periods[blink_frequency]) {
 110              		.loc 1 47 13 is_stmt 1 view .LVU27
 111              		.loc 1 47 33 is_stmt 0 view .LVU28
 112 004e 244B     		ldr	r3, .L11
 113 0050 1B68     		ldr	r3, [r3]
 114 0052 274A     		ldr	r2, .L11+16
 115 0054 1268     		ldr	r2, [r2]
 116 0056 9B1A     		subs	r3, r3, r2
 117              		.loc 1 47 65 view .LVU29
 118 0058 264A     		ldr	r2, .L11+20
 119 005a 1178     		ldrb	r1, [r2]	@ zero_extendqisi2
 120 005c 264A     		ldr	r2, .L11+24
 121 005e 52F82120 		ldr	r2, [r2, r1, lsl #2]
 122              		.loc 1 47 16 view .LVU30
 123 0062 9342     		cmp	r3, r2
 124 0064 20D3     		bcc	.L2
  48:Core/Src/main.c ****                 blink_counter = systick_counter;
ARM GAS  C:\Users\CHANGY~1\AppData\Local\Temp\ccEiJAjX.s 			page 4


 125              		.loc 1 48 17 is_stmt 1 view .LVU31
 126              		.loc 1 48 31 is_stmt 0 view .LVU32
 127 0066 1E4B     		ldr	r3, .L11
 128 0068 1A68     		ldr	r2, [r3]
 129 006a 214B     		ldr	r3, .L11+16
 130 006c 1A60     		str	r2, [r3]
  49:Core/Src/main.c ****                 GPIOB->ODR ^= led_pins[current_led]; // 翻转当前 LED
 131              		.loc 1 49 17 is_stmt 1 view .LVU33
 132              		.loc 1 49 39 is_stmt 0 view .LVU34
 133 006e 234B     		ldr	r3, .L11+28
 134 0070 1A78     		ldrb	r2, [r3]	@ zero_extendqisi2
 135 0072 234B     		ldr	r3, .L11+32
 136 0074 53F82210 		ldr	r1, [r3, r2, lsl #2]
 137              		.loc 1 49 22 view .LVU35
 138 0078 224A     		ldr	r2, .L11+36
 139 007a 5369     		ldr	r3, [r2, #20]
 140              		.loc 1 49 28 view .LVU36
 141 007c 4B40     		eors	r3, r3, r1
 142 007e 5361     		str	r3, [r2, #20]
 143 0080 12E0     		b	.L2
 144              	.L10:
  38:Core/Src/main.c ****             }
 145              		.loc 1 38 17 is_stmt 1 view .LVU37
  38:Core/Src/main.c ****             }
 146              		.loc 1 38 52 is_stmt 0 view .LVU38
 147 0082 1C49     		ldr	r1, .L11+20
 148 0084 0A78     		ldrb	r2, [r1]	@ zero_extendqisi2
 149 0086 0132     		adds	r2, r2, #1
  38:Core/Src/main.c ****             }
 150              		.loc 1 38 57 view .LVU39
 151 0088 03F15533 		add	r3, r3, #1431655765
 152 008c 83FB0203 		smull	r0, r3, r3, r2
 153 0090 03EB4303 		add	r3, r3, r3, lsl #1
 154 0094 D31A     		subs	r3, r2, r3
  38:Core/Src/main.c ****             }
 155              		.loc 1 38 33 view .LVU40
 156 0096 0B70     		strb	r3, [r1]
 157 0098 D3E7     		b	.L6
 158              	.L7:
  50:Core/Src/main.c ****             }
  51:Core/Src/main.c ****         } else { // 常亮模式
  52:Core/Src/main.c ****         if (current_led==2)
 159              		.loc 1 52 9 is_stmt 1 view .LVU41
 160              		.loc 1 52 24 is_stmt 0 view .LVU42
 161 009a 184B     		ldr	r3, .L11+28
 162 009c 1B78     		ldrb	r3, [r3]	@ zero_extendqisi2
 163 009e DBB2     		uxtb	r3, r3
 164              		.loc 1 52 12 view .LVU43
 165 00a0 022B     		cmp	r3, #2
 166 00a2 01D0     		beq	.L2
  53:Core/Src/main.c ****         {
  54:Core/Src/main.c ****            continue;
  55:Core/Src/main.c ****         }
  56:Core/Src/main.c ****         
  57:Core/Src/main.c ****             update_led_state(); // 点亮当前 LED
 167              		.loc 1 57 13 is_stmt 1 view .LVU44
 168 00a4 FFF7FEFF 		bl	update_led_state
ARM GAS  C:\Users\CHANGY~1\AppData\Local\Temp\ccEiJAjX.s 			page 5


 169              	.LVL7:
 170              	.L2:
 171              	.LBE2:
  21:Core/Src/main.c ****      // 按钮 2 的状态轮询
 172              		.loc 1 21 5 view .LVU45
 173              	.LBB4:
  23:Core/Src/main.c ****         flagbutton2=READ_BIT(GPIOC->IDR,GPIO_IDR_ID6) != 0;
 174              		.loc 1 23 9 view .LVU46
  23:Core/Src/main.c ****         flagbutton2=READ_BIT(GPIOC->IDR,GPIO_IDR_ID6) != 0;
 175              		.loc 1 23 21 is_stmt 0 view .LVU47
 176 00a8 174B     		ldr	r3, .L11+40
 177 00aa 1A69     		ldr	r2, [r3, #16]
  23:Core/Src/main.c ****         flagbutton2=READ_BIT(GPIOC->IDR,GPIO_IDR_ID6) != 0;
 178              		.loc 1 23 56 view .LVU48
 179 00ac C2F34032 		ubfx	r2, r2, #13, #1
  23:Core/Src/main.c ****         flagbutton2=READ_BIT(GPIOC->IDR,GPIO_IDR_ID6) != 0;
 180              		.loc 1 23 20 view .LVU49
 181 00b0 1649     		ldr	r1, .L11+44
 182 00b2 0A70     		strb	r2, [r1]
  24:Core/Src/main.c ****         if (READ_BIT(GPIOC->IDR,GPIO_IDR_ID6) != 0) { // 按钮按下
 183              		.loc 1 24 9 is_stmt 1 view .LVU50
  24:Core/Src/main.c ****         if (READ_BIT(GPIOC->IDR,GPIO_IDR_ID6) != 0) { // 按钮按下
 184              		.loc 1 24 21 is_stmt 0 view .LVU51
 185 00b4 1A69     		ldr	r2, [r3, #16]
  24:Core/Src/main.c ****         if (READ_BIT(GPIOC->IDR,GPIO_IDR_ID6) != 0) { // 按钮按下
 186              		.loc 1 24 55 view .LVU52
 187 00b6 C2F38012 		ubfx	r2, r2, #6, #1
  24:Core/Src/main.c ****         if (READ_BIT(GPIOC->IDR,GPIO_IDR_ID6) != 0) { // 按钮按下
 188              		.loc 1 24 20 view .LVU53
 189 00ba 1549     		ldr	r1, .L11+48
 190 00bc 0A70     		strb	r2, [r1]
  25:Core/Src/main.c ****             if (button2_state == 0) { // 首次检测到按下
 191              		.loc 1 25 9 is_stmt 1 view .LVU54
  25:Core/Src/main.c ****             if (button2_state == 0) { // 首次检测到按下
 192              		.loc 1 25 13 is_stmt 0 view .LVU55
 193 00be 1B69     		ldr	r3, [r3, #16]
  25:Core/Src/main.c ****             if (button2_state == 0) { // 首次检测到按下
 194              		.loc 1 25 12 view .LVU56
 195 00c0 13F0400F 		tst	r3, #64
 196 00c4 B9D0     		beq	.L3
  26:Core/Src/main.c ****                 button2_state = 1;  // 切换到按下中状态
 197              		.loc 1 26 13 is_stmt 1 view .LVU57
  26:Core/Src/main.c ****                 button2_state = 1;  // 切换到按下中状态
 198              		.loc 1 26 31 is_stmt 0 view .LVU58
 199 00c6 094B     		ldr	r3, .L11+12
 200 00c8 1B78     		ldrb	r3, [r3]	@ zero_extendqisi2
  26:Core/Src/main.c ****                 button2_state = 1;  // 切换到按下中状态
 201              		.loc 1 26 16 view .LVU59
 202 00ca 002B     		cmp	r3, #0
 203 00cc A2D1     		bne	.L4
  27:Core/Src/main.c ****                 button2_timer = systick_counter; // 记录按下的时刻
 204              		.loc 1 27 17 is_stmt 1 view .LVU60
  27:Core/Src/main.c ****                 button2_timer = systick_counter; // 记录按下的时刻
 205              		.loc 1 27 31 is_stmt 0 view .LVU61
 206 00ce 074B     		ldr	r3, .L11+12
 207 00d0 0122     		movs	r2, #1
 208 00d2 1A70     		strb	r2, [r3]
ARM GAS  C:\Users\CHANGY~1\AppData\Local\Temp\ccEiJAjX.s 			page 6


  28:Core/Src/main.c ****             } else if (button2_state == 1) { // 按下中
 209              		.loc 1 28 17 is_stmt 1 view .LVU62
  28:Core/Src/main.c ****             } else if (button2_state == 1) { // 按下中
 210              		.loc 1 28 31 is_stmt 0 view .LVU63
 211 00d4 024B     		ldr	r3, .L11
 212 00d6 1A68     		ldr	r2, [r3]
 213 00d8 024B     		ldr	r3, .L11+4
 214 00da 1A60     		str	r2, [r3]
 215 00dc B4E7     		b	.L5
 216              	.L12:
 217 00de 00BF     		.align	2
 218              	.L11:
 219 00e0 00000000 		.word	systick_counter
 220 00e4 00000000 		.word	button2_timer
 221 00e8 00000000 		.word	work_mode
 222 00ec 00000000 		.word	button2_state
 223 00f0 00000000 		.word	blink_counter.0
 224 00f4 00000000 		.word	blink_frequency
 225 00f8 00000000 		.word	blink_periods
 226 00fc 00000000 		.word	current_led
 227 0100 00000000 		.word	led_pins
 228 0104 00040240 		.word	1073873920
 229 0108 00080240 		.word	1073874944
 230 010c 00000000 		.word	flagbutton1
 231 0110 00000000 		.word	flagbutton2
 232              	.LBE4:
 233              		.cfi_endproc
 234              	.LFE130:
 236              		.section	.bss.blink_counter.0,"aw",%nobits
 237              		.align	2
 240              	blink_counter.0:
 241 0000 00000000 		.space	4
 242              		.global	led_pins
 243              		.section	.rodata.led_pins,"a"
 244              		.align	2
 247              	led_pins:
 248 0000 00400000 		.word	16384
 249 0004 80000000 		.word	128
 250 0008 01000000 		.word	1
 251 000c 04000000 		.word	4
 252 0010 40000000 		.word	64
 253 0014 02000000 		.word	2
 254              		.global	button2_state
 255              		.section	.bss.button2_state,"aw",%nobits
 258              	button2_state:
 259 0000 00       		.space	1
 260              		.global	flagbutton2
 261              		.section	.bss.flagbutton2,"aw",%nobits
 264              	flagbutton2:
 265 0000 00       		.space	1
 266              		.global	flagbutton1
 267              		.section	.bss.flagbutton1,"aw",%nobits
 270              	flagbutton1:
 271 0000 00       		.space	1
 272              		.global	systick_counter
 273              		.section	.bss.systick_counter,"aw",%nobits
 274              		.align	2
ARM GAS  C:\Users\CHANGY~1\AppData\Local\Temp\ccEiJAjX.s 			page 7


 277              	systick_counter:
 278 0000 00000000 		.space	4
 279              		.global	button2_timer
 280              		.section	.bss.button2_timer,"aw",%nobits
 281              		.align	2
 284              	button2_timer:
 285 0000 00000000 		.space	4
 286              		.global	blink_frequency
 287              		.section	.bss.blink_frequency,"aw",%nobits
 290              	blink_frequency:
 291 0000 00       		.space	1
 292              		.global	work_mode
 293              		.section	.data.work_mode,"aw"
 296              	work_mode:
 297 0000 01       		.byte	1
 298              		.global	current_led
 299              		.section	.bss.current_led,"aw",%nobits
 302              	current_led:
 303 0000 00       		.space	1
 304              		.global	blink_periods
 305              		.section	.rodata.blink_periods,"a"
 306              		.align	2
 309              	blink_periods:
 310 0000 88130000 		.word	5000
 311 0004 E2040000 		.word	1250
 312 0008 01030000 		.word	769
 313              		.text
 314              	.Letext0:
 315              		.file 2 "D:/mk/tools/xpack-arm-none-eabi-gcc-13.2.1-1.1/arm-none-eabi/include/machine/_default_typ
 316              		.file 3 "D:/mk/tools/xpack-arm-none-eabi-gcc-13.2.1-1.1/arm-none-eabi/include/sys/_stdint.h"
 317              		.file 4 "Core/Inc/../../CMSIS/Devices/stm32f429xx.h"
 318              		.file 5 "Core/Inc/init.h"
ARM GAS  C:\Users\CHANGY~1\AppData\Local\Temp\ccEiJAjX.s 			page 8


DEFINED SYMBOLS
                            *ABS*:00000000 main.c
C:\Users\CHANGY~1\AppData\Local\Temp\ccEiJAjX.s:21     .text.main:00000000 $t
C:\Users\CHANGY~1\AppData\Local\Temp\ccEiJAjX.s:27     .text.main:00000000 main
C:\Users\CHANGY~1\AppData\Local\Temp\ccEiJAjX.s:219    .text.main:000000e0 $d
C:\Users\CHANGY~1\AppData\Local\Temp\ccEiJAjX.s:277    .bss.systick_counter:00000000 systick_counter
C:\Users\CHANGY~1\AppData\Local\Temp\ccEiJAjX.s:284    .bss.button2_timer:00000000 button2_timer
C:\Users\CHANGY~1\AppData\Local\Temp\ccEiJAjX.s:296    .data.work_mode:00000000 work_mode
C:\Users\CHANGY~1\AppData\Local\Temp\ccEiJAjX.s:258    .bss.button2_state:00000000 button2_state
C:\Users\CHANGY~1\AppData\Local\Temp\ccEiJAjX.s:240    .bss.blink_counter.0:00000000 blink_counter.0
C:\Users\CHANGY~1\AppData\Local\Temp\ccEiJAjX.s:290    .bss.blink_frequency:00000000 blink_frequency
C:\Users\CHANGY~1\AppData\Local\Temp\ccEiJAjX.s:309    .rodata.blink_periods:00000000 blink_periods
C:\Users\CHANGY~1\AppData\Local\Temp\ccEiJAjX.s:302    .bss.current_led:00000000 current_led
C:\Users\CHANGY~1\AppData\Local\Temp\ccEiJAjX.s:247    .rodata.led_pins:00000000 led_pins
C:\Users\CHANGY~1\AppData\Local\Temp\ccEiJAjX.s:270    .bss.flagbutton1:00000000 flagbutton1
C:\Users\CHANGY~1\AppData\Local\Temp\ccEiJAjX.s:264    .bss.flagbutton2:00000000 flagbutton2
C:\Users\CHANGY~1\AppData\Local\Temp\ccEiJAjX.s:237    .bss.blink_counter.0:00000000 $d
C:\Users\CHANGY~1\AppData\Local\Temp\ccEiJAjX.s:244    .rodata.led_pins:00000000 $d
C:\Users\CHANGY~1\AppData\Local\Temp\ccEiJAjX.s:259    .bss.button2_state:00000000 $d
C:\Users\CHANGY~1\AppData\Local\Temp\ccEiJAjX.s:265    .bss.flagbutton2:00000000 $d
C:\Users\CHANGY~1\AppData\Local\Temp\ccEiJAjX.s:271    .bss.flagbutton1:00000000 $d
C:\Users\CHANGY~1\AppData\Local\Temp\ccEiJAjX.s:274    .bss.systick_counter:00000000 $d
C:\Users\CHANGY~1\AppData\Local\Temp\ccEiJAjX.s:281    .bss.button2_timer:00000000 $d
C:\Users\CHANGY~1\AppData\Local\Temp\ccEiJAjX.s:291    .bss.blink_frequency:00000000 $d
C:\Users\CHANGY~1\AppData\Local\Temp\ccEiJAjX.s:303    .bss.current_led:00000000 $d
C:\Users\CHANGY~1\AppData\Local\Temp\ccEiJAjX.s:306    .rodata.blink_periods:00000000 $d

UNDEFINED SYMBOLS
GPIO_Ini
RCC_Ini
EXTI_ITR_Ini
SysTick_Init
update_led_state
