ARM GAS  C:\Users\rpong\AppData\Local\Temp\ccLuJ614.s 			page 1


   1              		.cpu cortex-m4
   2              		.arch armv7e-m
   3              		.fpu fpv4-sp-d16
   4              		.eabi_attribute 27, 1
   5              		.eabi_attribute 28, 1
   6              		.eabi_attribute 20, 1
   7              		.eabi_attribute 21, 1
   8              		.eabi_attribute 23, 3
   9              		.eabi_attribute 24, 1
  10              		.eabi_attribute 25, 1
  11              		.eabi_attribute 26, 1
  12              		.eabi_attribute 30, 1
  13              		.eabi_attribute 34, 1
  14              		.eabi_attribute 18, 4
  15              		.file	"main.c"
  16              		.text
  17              	.Ltext0:
  18              		.cfi_sections	.debug_frame
  19              		.file 1 "Core/Src/main.c"
  20              		.section	.text.main,"ax",%progbits
  21              		.align	1
  22              		.global	main
  23              		.syntax unified
  24              		.thumb
  25              		.thumb_func
  27              	main:
  28              	.LFB130:
   1:Core/Src/main.c **** #include "../Inc/init.h"
   2:Core/Src/main.c **** 
   3:Core/Src/main.c **** int main(void){
  29              		.loc 1 3 15 view -0
  30              		.cfi_startproc
  31              		@ args = 0, pretend = 0, frame = 0
  32              		@ frame_needed = 0, uses_anonymous_args = 0
  33 0000 10B5     		push	{r4, lr}
  34              	.LCFI0:
  35              		.cfi_def_cfa_offset 8
  36              		.cfi_offset 4, -8
  37              		.cfi_offset 14, -4
   4:Core/Src/main.c ****     GPIO_Ini_Self();
  38              		.loc 1 4 5 view .LVU1
  39 0002 FFF7FEFF 		bl	GPIO_Ini_Self
  40              	.LVL0:
   5:Core/Src/main.c ****     GPIO_Ini_CMSIS();
  41              		.loc 1 5 5 view .LVU2
  42 0006 FFF7FEFF 		bl	GPIO_Ini_CMSIS
  43              	.LVL1:
   6:Core/Src/main.c ****     unsigned short int counter = 0;
  44              		.loc 1 6 5 view .LVU3
   7:Core/Src/main.c ****     short int flag = 0;
  45              		.loc 1 7 5 view .LVU4
  46              		.loc 1 7 15 is_stmt 0 view .LVU5
  47 000a 0020     		movs	r0, #0
   6:Core/Src/main.c ****     unsigned short int counter = 0;
  48              		.loc 1 6 24 view .LVU6
  49 000c 0146     		mov	r1, r0
  50 000e 1EE0     		b	.L2
ARM GAS  C:\Users\rpong\AppData\Local\Temp\ccLuJ614.s 			page 2


  51              	.LVL2:
  52              	.L4:
   8:Core/Src/main.c ****     //address of LED 1 (GPIOB_pin14)
   9:Core/Src/main.c ****     //address of LED 2 (GPIOB_pin0)
  10:Core/Src/main.c ****     //address of LED 3 (GPIOB_pin7)
  11:Core/Src/main.c ****     //address of LED 4 (GPIOB_pin8)
  12:Core/Src/main.c ****     //address of Button (GPIOB_pin13)
  13:Core/Src/main.c ****     while(1){
  14:Core/Src/main.c ****         if(READ_BIT_Self(GPIOC_IDR, GPIOC_IDR_PIN13) != 0){
  15:Core/Src/main.c ****             if(flag == 0){
  16:Core/Src/main.c ****                 flag = 1;
  17:Core/Src/main.c ****                 counter++;
  18:Core/Src/main.c ****             }           
  19:Core/Src/main.c ****         }
  20:Core/Src/main.c ****         else if(flag == 1){
  53              		.loc 1 20 14 is_stmt 1 view .LVU7
  54              		.loc 1 20 16 is_stmt 0 view .LVU8
  55 0010 48BB     		cbnz	r0, .L18
  56              	.LVL3:
  57              	.L5:
  21:Core/Src/main.c ****             flag = 0;
  22:Core/Src/main.c ****         }
  23:Core/Src/main.c ****         if(counter%6 == 0)//–≤–∫–ª—é—á–µ–Ω–∏–µ –≤—Å–µ—Ö —Å–≤–µ—Ç–æ–¥–∏–æ–¥–æ–≤ –Ω–∞ 6-–æ–µ –Ω–∞–∂–∞
  58              		.loc 1 23 9 is_stmt 1 view .LVU9
  59              		.loc 1 23 22 is_stmt 0 view .LVU10
  60 0012 504B     		ldr	r3, .L19
  61 0014 A3FB0123 		umull	r2, r3, r3, r1
  62 0018 9B08     		lsrs	r3, r3, #2
  63 001a 03EB4303 		add	r3, r3, r3, lsl #1
  64 001e 5A00     		lsls	r2, r3, #1
  65 0020 8A1A     		subs	r2, r1, r2
  66 0022 92B2     		uxth	r2, r2
  67              		.loc 1 23 11 view .LVU11
  68 0024 0ABB     		cbnz	r2, .L6
  24:Core/Src/main.c ****         {
  25:Core/Src/main.c ****             *(uint32_t*)(0x40020400UL + 0x18UL) |= 0x4000UL;//–≤–∫–ª—é—á–µ–Ω–∏–µ —Å–≤–µ—Ç–æ–¥–∏–æ–¥
  69              		.loc 1 25 13 is_stmt 1 view .LVU12
  70 0026 4C4A     		ldr	r2, .L19+4
  71 0028 D2F81834 		ldr	r3, [r2, #1048]
  72              		.loc 1 25 49 is_stmt 0 view .LVU13
  73 002c 43F48043 		orr	r3, r3, #16384
  74 0030 C2F81834 		str	r3, [r2, #1048]
  26:Core/Src/main.c ****             SET_BIT_Self(GPIOB_BSRR, GPIOB_BSRR_PIN0_SET); //–≤–∫–ª—é—á–µ–Ω–∏–µ —Å–≤–µ—Ç–æ–¥–∏–æ–¥–
  75              		.loc 1 26 13 is_stmt 1 view .LVU14
  27:Core/Src/main.c ****             SET_BIT(GPIOB->BSRR, GPIO_BSRR_BR7);//–≤–∫–ª—é—á–µ–Ω–∏–µ —Å–≤–µ—Ç–æ–¥–∏–æ–¥–∞ 7-–≥–æ –ø
  76              		.loc 1 27 13 view .LVU15
  77 0034 494B     		ldr	r3, .L19+8
  78 0036 9A69     		ldr	r2, [r3, #24]
  79 0038 42F40002 		orr	r2, r2, #8388608
  80 003c 9A61     		str	r2, [r3, #24]
  28:Core/Src/main.c ****             SET_BIT(GPIOB->BSRR, GPIO_BSRR_BR8);//–≤–∫–ª—é—á–µ–Ω–∏–µ —Å–≤–µ—Ç–æ–¥–∏–æ–¥–∞ 8-–≥–æ –ø
  81              		.loc 1 28 13 view .LVU16
  82 003e 9A69     		ldr	r2, [r3, #24]
  83 0040 42F08072 		orr	r2, r2, #16777216
  84 0044 9A61     		str	r2, [r3, #24]
  29:Core/Src/main.c ****             if(counter%4 == 0)
  85              		.loc 1 29 13 view .LVU17
ARM GAS  C:\Users\rpong\AppData\Local\Temp\ccLuJ614.s 			page 3


  86              		.loc 1 29 15 is_stmt 0 view .LVU18
  87 0046 11F00303 		ands	r3, r1, #3
  88 004a 00D1     		bne	.L2
  30:Core/Src/main.c ****             {
  31:Core/Src/main.c ****                 counter = 0;
  89              		.loc 1 31 25 view .LVU19
  90 004c 1946     		mov	r1, r3
  91              	.LVL4:
  92              	.L2:
  13:Core/Src/main.c ****         if(READ_BIT_Self(GPIOC_IDR, GPIOC_IDR_PIN13) != 0){
  93              		.loc 1 13 5 is_stmt 1 view .LVU20
  14:Core/Src/main.c ****             if(flag == 0){
  94              		.loc 1 14 9 view .LVU21
  14:Core/Src/main.c ****             if(flag == 0){
  95              		.loc 1 14 12 is_stmt 0 view .LVU22
  96 004e 424B     		ldr	r3, .L19+4
  97 0050 D3F81038 		ldr	r3, [r3, #2064]
  14:Core/Src/main.c ****             if(flag == 0){
  98              		.loc 1 14 11 view .LVU23
  99 0054 13F4005F 		tst	r3, #8192
 100 0058 DAD0     		beq	.L4
  15:Core/Src/main.c ****                 flag = 1;
 101              		.loc 1 15 13 is_stmt 1 view .LVU24
  15:Core/Src/main.c ****                 flag = 1;
 102              		.loc 1 15 15 is_stmt 0 view .LVU25
 103 005a 0028     		cmp	r0, #0
 104 005c D9D1     		bne	.L5
  16:Core/Src/main.c ****                 counter++;
 105              		.loc 1 16 17 is_stmt 1 view .LVU26
 106              	.LVL5:
  17:Core/Src/main.c ****             }           
 107              		.loc 1 17 17 view .LVU27
  17:Core/Src/main.c ****             }           
 108              		.loc 1 17 24 is_stmt 0 view .LVU28
 109 005e 0131     		adds	r1, r1, #1
 110              	.LVL6:
  17:Core/Src/main.c ****             }           
 111              		.loc 1 17 24 view .LVU29
 112 0060 89B2     		uxth	r1, r1
 113              	.LVL7:
  16:Core/Src/main.c ****                 counter++;
 114              		.loc 1 16 22 view .LVU30
 115 0062 0120     		movs	r0, #1
 116 0064 D5E7     		b	.L5
 117              	.LVL8:
 118              	.L18:
  21:Core/Src/main.c ****         }
 119              		.loc 1 21 18 view .LVU31
 120 0066 0020     		movs	r0, #0
 121              	.LVL9:
  21:Core/Src/main.c ****         }
 122              		.loc 1 21 18 view .LVU32
 123 0068 D3E7     		b	.L5
 124              	.LVL10:
 125              	.L6:
  32:Core/Src/main.c ****             }
  33:Core/Src/main.c ****         }
ARM GAS  C:\Users\rpong\AppData\Local\Temp\ccLuJ614.s 			page 4


  34:Core/Src/main.c ****         else if (counter%5 == 0)//–≤—ã–∫–ª—é—á–µ–Ω–∏–µ –≤—Å–µ—Ö —Å–≤–µ—Ç–æ–¥–∏–æ–¥–æ–≤
 126              		.loc 1 34 14 is_stmt 1 view .LVU33
 127              		.loc 1 34 28 is_stmt 0 view .LVU34
 128 006a 3D4A     		ldr	r2, .L19+12
 129 006c A2FB0132 		umull	r3, r2, r2, r1
 130 0070 22F00303 		bic	r3, r2, #3
 131 0074 03EB9203 		add	r3, r3, r2, lsr #2
 132 0078 CB1A     		subs	r3, r1, r3
 133 007a 9BB2     		uxth	r3, r3
 134 007c 042B     		cmp	r3, #4
 135 007e E6D8     		bhi	.L2
 136 0080 DFE803F0 		tbb	[pc, r3]
 137              	.L9:
 138 0084 03       		.byte	(.L13-.L9)/2
 139 0085 18       		.byte	(.L12-.L9)/2
 140 0086 2D       		.byte	(.L11-.L9)/2
 141 0087 3E       		.byte	(.L10-.L9)/2
 142 0088 53       		.byte	(.L8-.L9)/2
 143 0089 00       		.p2align 1
 144              	.L13:
  35:Core/Src/main.c ****         {
  36:Core/Src/main.c ****             *(uint32_t*)(0x40020400UL + 0x18UL) |= 0x40000000UL;//–≤—ã–∫–ª—é—á–µ–Ω–∏–µ —Å–≤–µ—Ç–æ–¥
 145              		.loc 1 36 13 is_stmt 1 view .LVU35
 146 008a 334A     		ldr	r2, .L19+4
 147 008c D2F81834 		ldr	r3, [r2, #1048]
 148              		.loc 1 36 49 is_stmt 0 view .LVU36
 149 0090 43F08043 		orr	r3, r3, #1073741824
 150 0094 C2F81834 		str	r3, [r2, #1048]
  37:Core/Src/main.c ****             SET_BIT_Self(GPIOB_BSRR, GPIOB_BSRR_PIN0_RESET);//–≤—ã–∫–ª—é—á–µ–Ω–∏–µ —Å–≤–µ—Ç–æ–¥–∏–æ
 151              		.loc 1 37 13 is_stmt 1 view .LVU37
 152 0098 43F48033 		orr	r3, r3, #65536
 153 009c C2F81834 		str	r3, [r2, #1048]
  38:Core/Src/main.c ****             CLEAR_BIT(GPIOB->BSRR, GPIO_BSRR_BR7);//–≤—ã–∫–ª—é—á–µ–Ω–∏–µ —Å–≤–µ—Ç–æ–¥–∏–æ–¥–∞ 7-–≥–
 154              		.loc 1 38 13 view .LVU38
 155 00a0 2E4B     		ldr	r3, .L19+8
 156 00a2 9A69     		ldr	r2, [r3, #24]
 157 00a4 22F40002 		bic	r2, r2, #8388608
 158 00a8 9A61     		str	r2, [r3, #24]
  39:Core/Src/main.c ****             CLEAR_BIT(GPIOB->BSRR, GPIO_BSRR_BR8);//–≤—ã–∫–ª—é—á–µ–Ω–∏–µ —Å–≤–µ—Ç–æ–¥–∏–æ–¥–∞ 8-–≥–
 159              		.loc 1 39 13 view .LVU39
 160 00aa 9A69     		ldr	r2, [r3, #24]
 161 00ac 22F08072 		bic	r2, r2, #16777216
 162 00b0 9A61     		str	r2, [r3, #24]
 163 00b2 CCE7     		b	.L2
 164              	.L12:
  40:Core/Src/main.c ****         }
  41:Core/Src/main.c ****         else if (counter%5 == 1)//LED 1
  42:Core/Src/main.c ****         {
  43:Core/Src/main.c ****             *(uint32_t*)(0x40020400UL + 0x18UL) |= 0x4000UL;//–≤–∫–ª—é—á–µ–Ω–∏–µ —Å–≤–µ—Ç–æ–¥–∏–æ–¥
 165              		.loc 1 43 13 view .LVU40
 166 00b4 284A     		ldr	r2, .L19+4
 167 00b6 D2F81834 		ldr	r3, [r2, #1048]
 168              		.loc 1 43 49 is_stmt 0 view .LVU41
 169 00ba 43F48044 		orr	r4, r3, #16384
 170 00be C2F81844 		str	r4, [r2, #1048]
  44:Core/Src/main.c ****             SET_BIT_Self(GPIOB_BSRR, GPIOB_BSRR_PIN0_RESET);//–≤—ã–∫–ª—é—á–µ–Ω–∏–µ —Å–≤–µ—Ç–æ–¥–∏–æ
 171              		.loc 1 44 13 is_stmt 1 view .LVU42
ARM GAS  C:\Users\rpong\AppData\Local\Temp\ccLuJ614.s 			page 5


 172 00c2 43F4A033 		orr	r3, r3, #81920
 173 00c6 C2F81834 		str	r3, [r2, #1048]
  45:Core/Src/main.c ****             CLEAR_BIT(GPIOB->BSRR, GPIO_BSRR_BR7);//–≤—ã–∫–ª—é—á–µ–Ω–∏–µ —Å–≤–µ—Ç–æ–¥–∏–æ–¥–∞ 7-–≥–
 174              		.loc 1 45 13 view .LVU43
 175 00ca 244B     		ldr	r3, .L19+8
 176 00cc 9A69     		ldr	r2, [r3, #24]
 177 00ce 22F40002 		bic	r2, r2, #8388608
 178 00d2 9A61     		str	r2, [r3, #24]
  46:Core/Src/main.c ****             CLEAR_BIT(GPIOB->BSRR, GPIO_BSRR_BR8);//–≤—ã–∫–ª—é—á–µ–Ω–∏–µ —Å–≤–µ—Ç–æ–¥–∏–æ–¥–∞ 8-–≥–
 179              		.loc 1 46 13 view .LVU44
 180 00d4 9A69     		ldr	r2, [r3, #24]
 181 00d6 22F08072 		bic	r2, r2, #16777216
 182 00da 9A61     		str	r2, [r3, #24]
 183 00dc B7E7     		b	.L2
 184              	.L11:
  47:Core/Src/main.c ****         }
  48:Core/Src/main.c ****         else if (counter%5 == 2)//LED 2
  49:Core/Src/main.c ****         {
  50:Core/Src/main.c ****             *(uint32_t*)(0x40020400UL + 0x18UL) |= 0x40000000UL;//–≤—ã–∫–ª—é—á–µ–Ω–∏–µ —Å–≤–µ—Ç–æ–¥
 185              		.loc 1 50 13 view .LVU45
 186 00de 1E4A     		ldr	r2, .L19+4
 187 00e0 D2F81834 		ldr	r3, [r2, #1048]
 188              		.loc 1 50 49 is_stmt 0 view .LVU46
 189 00e4 43F08043 		orr	r3, r3, #1073741824
 190 00e8 C2F81834 		str	r3, [r2, #1048]
  51:Core/Src/main.c ****             SET_BIT_Self(GPIOB_BSRR, GPIOB_BSRR_PIN0_SET);//–≤–∫–ª—é—á–µ–Ω–∏–µ —Å–≤–µ—Ç–æ–¥–∏–æ–¥–∞
 191              		.loc 1 51 13 is_stmt 1 view .LVU47
  52:Core/Src/main.c ****             CLEAR_BIT(GPIOB->BSRR, GPIO_BSRR_BR7);//–≤—ã–∫–ª—é—á–µ–Ω–∏–µ —Å–≤–µ—Ç–æ–¥–∏–æ–¥–∞ 7-–≥–
 192              		.loc 1 52 13 view .LVU48
 193 00ec 1B4B     		ldr	r3, .L19+8
 194 00ee 9A69     		ldr	r2, [r3, #24]
 195 00f0 22F40002 		bic	r2, r2, #8388608
 196 00f4 9A61     		str	r2, [r3, #24]
  53:Core/Src/main.c ****             CLEAR_BIT(GPIOB->BSRR, GPIO_BSRR_BR8);//–≤—ã–∫–ª—é—á–µ–Ω–∏–µ —Å–≤–µ—Ç–æ–¥–∏–æ–¥–∞ 8-–≥–
 197              		.loc 1 53 13 view .LVU49
 198 00f6 9A69     		ldr	r2, [r3, #24]
 199 00f8 22F08072 		bic	r2, r2, #16777216
 200 00fc 9A61     		str	r2, [r3, #24]
 201 00fe A6E7     		b	.L2
 202              	.L10:
  54:Core/Src/main.c ****         }
  55:Core/Src/main.c ****         else if (counter%5 == 3)//LED 3
  56:Core/Src/main.c ****         {
  57:Core/Src/main.c ****             *(uint32_t*)(0x40020400UL + 0x18UL) |= 0x40000000UL;//–≤—ã–∫–ª—é—á–µ–Ω–∏–µ —Å–≤–µ—Ç–æ–¥
 203              		.loc 1 57 13 view .LVU50
 204 0100 154A     		ldr	r2, .L19+4
 205 0102 D2F81834 		ldr	r3, [r2, #1048]
 206              		.loc 1 57 49 is_stmt 0 view .LVU51
 207 0106 43F08043 		orr	r3, r3, #1073741824
 208 010a C2F81834 		str	r3, [r2, #1048]
  58:Core/Src/main.c ****             SET_BIT_Self(GPIOB_BSRR, GPIOB_BSRR_PIN0_RESET);//–≤—ã–∫–ª—é—á–µ–Ω–∏–µ —Å–≤–µ—Ç–æ–¥–∏–æ
 209              		.loc 1 58 13 is_stmt 1 view .LVU52
 210 010e 43F48033 		orr	r3, r3, #65536
 211 0112 C2F81834 		str	r3, [r2, #1048]
  59:Core/Src/main.c ****             SET_BIT(GPIOB->BSRR, GPIO_BSRR_BR7);//–≤–∫–ª—é—á–µ–Ω–∏–µ —Å–≤–µ—Ç–æ–¥–∏–æ–¥–∞ 7-–≥–æ –ø
 212              		.loc 1 59 13 view .LVU53
 213 0116 114B     		ldr	r3, .L19+8
ARM GAS  C:\Users\rpong\AppData\Local\Temp\ccLuJ614.s 			page 6


 214 0118 9A69     		ldr	r2, [r3, #24]
 215 011a 42F40002 		orr	r2, r2, #8388608
 216 011e 9A61     		str	r2, [r3, #24]
  60:Core/Src/main.c ****             CLEAR_BIT(GPIOB->BSRR, GPIO_BSRR_BR8);//–≤—ã–∫–ª—é—á–µ–Ω–∏–µ —Å–≤–µ—Ç–æ–¥–∏–æ–¥–∞ 8-–≥–
 217              		.loc 1 60 13 view .LVU54
 218 0120 9A69     		ldr	r2, [r3, #24]
 219 0122 22F08072 		bic	r2, r2, #16777216
 220 0126 9A61     		str	r2, [r3, #24]
 221 0128 91E7     		b	.L2
 222              	.L8:
  61:Core/Src/main.c ****         }
  62:Core/Src/main.c ****         else if (counter%5 == 4)//LED 4
  63:Core/Src/main.c ****         {
  64:Core/Src/main.c ****             *(uint32_t*)(0x40020400UL + 0x18UL) |= 0x40000000UL;//–≤—ã–∫–ª—é—á–µ–Ω–∏–µ —Å–≤–µ—Ç–æ–¥
 223              		.loc 1 64 13 view .LVU55
 224 012a 0B4A     		ldr	r2, .L19+4
 225 012c D2F81834 		ldr	r3, [r2, #1048]
 226              		.loc 1 64 49 is_stmt 0 view .LVU56
 227 0130 43F08043 		orr	r3, r3, #1073741824
 228 0134 C2F81834 		str	r3, [r2, #1048]
  65:Core/Src/main.c ****             SET_BIT_Self(GPIOB_BSRR, GPIOB_BSRR_PIN0_RESET);//–≤—ã–∫–ª—é—á–µ–Ω–∏–µ —Å–≤–µ—Ç–æ–¥–∏–æ
 229              		.loc 1 65 13 is_stmt 1 view .LVU57
 230 0138 43F48033 		orr	r3, r3, #65536
 231 013c C2F81834 		str	r3, [r2, #1048]
  66:Core/Src/main.c ****             CLEAR_BIT(GPIOB->BSRR, GPIO_BSRR_BR7);//–≤—ã–∫–ª—é—á–µ–Ω–∏–µ —Å–≤–µ—Ç–æ–¥–∏–æ–¥–∞ 7-–≥–
 232              		.loc 1 66 13 view .LVU58
 233 0140 064B     		ldr	r3, .L19+8
 234 0142 9A69     		ldr	r2, [r3, #24]
 235 0144 22F40002 		bic	r2, r2, #8388608
 236 0148 9A61     		str	r2, [r3, #24]
  67:Core/Src/main.c ****             SET_BIT(GPIOB->BSRR, GPIO_BSRR_BR8);//–≤–∫–ª—é—á–µ–Ω–∏–µ —Å–≤–µ—Ç–æ–¥–∏–æ–¥–∞ 8-–≥–æ –ø
 237              		.loc 1 67 13 view .LVU59
 238 014a 9A69     		ldr	r2, [r3, #24]
 239 014c 42F08072 		orr	r2, r2, #16777216
 240 0150 9A61     		str	r2, [r3, #24]
 241              	.LVL11:
 242              		.loc 1 67 13 is_stmt 0 view .LVU60
 243 0152 7CE7     		b	.L2
 244              	.L20:
 245              		.align	2
 246              	.L19:
 247 0154 ABAAAAAA 		.word	-1431655765
 248 0158 00000240 		.word	1073872896
 249 015c 00040240 		.word	1073873920
 250 0160 CDCCCCCC 		.word	-858993459
 251              		.cfi_endproc
 252              	.LFE130:
 254              		.text
 255              	.Letext0:
 256              		.file 2 "D:/DMPT/xpack-arm-none-eabi-gcc-13.2.1-1.1/arm-none-eabi/include/machine/_default_types.h
 257              		.file 3 "D:/DMPT/xpack-arm-none-eabi-gcc-13.2.1-1.1/arm-none-eabi/include/sys/_stdint.h"
 258              		.file 4 "Core/Src/../Inc/../../CMSIS/Devices/stm32f429xx.h"
 259              		.file 5 "Core/Src/../Inc/init.h"
ARM GAS  C:\Users\rpong\AppData\Local\Temp\ccLuJ614.s 			page 7


DEFINED SYMBOLS
                            *ABS*:00000000 main.c
C:\Users\rpong\AppData\Local\Temp\ccLuJ614.s:21     .text.main:00000000 $t
C:\Users\rpong\AppData\Local\Temp\ccLuJ614.s:27     .text.main:00000000 main
C:\Users\rpong\AppData\Local\Temp\ccLuJ614.s:138    .text.main:00000084 $d
C:\Users\rpong\AppData\Local\Temp\ccLuJ614.s:247    .text.main:00000154 $d
C:\Users\rpong\AppData\Local\Temp\ccLuJ614.s:143    .text.main:00000089 $d
C:\Users\rpong\AppData\Local\Temp\ccLuJ614.s:143    .text.main:0000008a $t

UNDEFINED SYMBOLS
GPIO_Ini_Self
GPIO_Ini_CMSIS
