ARM GAS  C:\Users\rpong\AppData\Local\Temp\ccowg4go.s 			page 1


   1              		.cpu cortex-m4
   2              		.arch armv7e-m
   3              		.fpu softvfp
   4              		.eabi_attribute 20, 1
   5              		.eabi_attribute 21, 1
   6              		.eabi_attribute 23, 3
   7              		.eabi_attribute 24, 1
   8              		.eabi_attribute 25, 1
   9              		.eabi_attribute 26, 1
  10              		.eabi_attribute 30, 1
  11              		.eabi_attribute 34, 1
  12              		.eabi_attribute 18, 4
  13              		.file	"main.c"
  14              		.text
  15              	.Ltext0:
  16              		.cfi_sections	.debug_frame
  17              		.file 1 "Core/Src/main.c"
  18              		.section	.text.Led_light,"ax",%progbits
  19              		.align	1
  20              		.global	Led_light
  21              		.syntax unified
  22              		.thumb
  23              		.thumb_func
  25              	Led_light:
  26              	.LFB131:
   1:Core/Src/main.c **** #include "../Inc/init.h"
   2:Core/Src/main.c **** #include "../Inc/it_handlers.h"
   3:Core/Src/main.c ****  
   4:Core/Src/main.c **** #define FLICKER_PERIOD 400 //–ü–µ—Ä–∏–æ–¥ –º–µ—Ä—Ü–∞–Ω–∏—è —Å–≤–µ—Ç–æ–¥–∏–æ–¥–∞ 
   5:Core/Src/main.c **** #define FLICKER_SEMIPERIOD 200 //–ü–µ—Ä–∏–æ–¥ –º–µ—Ä—Ü–∞–Ω–∏—è —Å–≤–µ—Ç–æ–¥–∏–æ–¥–∞ 
   6:Core/Src/main.c **** 
   7:Core/Src/main.c **** void LedVal_Init();
   8:Core/Src/main.c **** uint16_t GlobalTickCount = 0, DelayTickCount = 0;
   9:Core/Src/main.c **** uint16_t GlobalTickBut1 = 0, GlobalTickBut2 = 0;
  10:Core/Src/main.c **** 
  11:Core/Src/main.c **** //float icount = 0.0;
  12:Core/Src/main.c **** uint8_t LedState; 
  13:Core/Src/main.c **** //uint32_t t1, t2, t3, t4, t5, t6;
  14:Core/Src/main.c **** 
  15:Core/Src/main.c **** 
  16:Core/Src/main.c **** //float Ledfreq[3][3]           = {{0.4, 1.3, 2},{0.6, 1.6, 2.2},{0.8, 1.9, 2.5}};
  17:Core/Src/main.c **** //Numtimes = freqAHB / ((SysTick_LOAD+1)*2*freq) (2 —Ç–∞–∫ –∫–∞–∫ –≤–∫–ª—é—á–µ–Ω–∏–µ –∏ –≤—ã–∫–ª—é—
  18:Core/Src/main.c **** const uint16_t LedSetLoad[3][3] = {{1250, 384, 250},{833, 312, 227},{625, 263, 200}};
  19:Core/Src/main.c **** uint16_t LedLoad[6] = {0, 0, 0, 0, 0, 0};
  20:Core/Src/main.c **** uint16_t LedCount[6] = {0, 0, 0, 0, 0, 0};
  21:Core/Src/main.c **** uint8_t Ledflag[2][6] = {{1, 1, 1, 1, 1, 1},{0, 0, 0, 0, 0, 0}};
  22:Core/Src/main.c **** const uint8_t LedOffset[6] = {0U, 7U, 14U, 8U, 9U, 10U};
  23:Core/Src/main.c **** uint8_t CurrentLed = 6;
  24:Core/Src/main.c **** uint8_t Numb = 0;
  25:Core/Src/main.c **** uint8_t counterbut1 = 0;
  26:Core/Src/main.c **** uint8_t counterbut2 = 0;
  27:Core/Src/main.c **** uint8_t flagbut1 = 0, flagbut2 = 0;
  28:Core/Src/main.c **** uint8_t flagbut1long = 0, flagbut2long = 0;
  29:Core/Src/main.c **** 
  30:Core/Src/main.c **** void Led_light();
  31:Core/Src/main.c **** 
  32:Core/Src/main.c **** int main(void) 
ARM GAS  C:\Users\rpong\AppData\Local\Temp\ccowg4go.s 			page 2


  33:Core/Src/main.c **** { 
  34:Core/Src/main.c ****     GPIO_Init_Self();
  35:Core/Src/main.c ****     GPIO_Init_CMSIS();
  36:Core/Src/main.c ****     RCC_Init(); // –ò–Ω–∏—Ü–∏–∞–ª–∏–∑–∞—Ü–∏—è —Ç–∞–∫—Ç–∏—Ä–æ–≤–∞–Ω–∏—è —Å–∏—Å—Ç–µ–º—ã 
  37:Core/Src/main.c ****     ITR_Init();// –ò–Ω–∏—Ü–∏–∞–ª–∏–∑–∞—Ü–∏—è –ø—Ä–µ—Ä—ã–≤–∞–Ω–∏–π  
  38:Core/Src/main.c ****     SysTick_Init();
  39:Core/Src/main.c ****     LedVal_Init();
  40:Core/Src/main.c ****     while (1) 
  41:Core/Src/main.c ****     {
  42:Core/Src/main.c ****         /*
  43:Core/Src/main.c ****         t1 = READ_REG(SysTick->VAL);
  44:Core/Src/main.c ****         t2 = READ_REG(SysTick->CTRL);
  45:Core/Src/main.c ****         t3 = READ_REG(SysTick->LOAD);
  46:Core/Src/main.c ****         icount = icount + 0.001;
  47:Core/Src/main.c ****         */
  48:Core/Src/main.c ****         for (uint8_t i = 0; i < 6; i++){
  49:Core/Src/main.c ****             if (LedCount[i] >= LedLoad[i])
  50:Core/Src/main.c ****             {
  51:Core/Src/main.c ****                 LedCount[i] = 0;
  52:Core/Src/main.c ****                 if (Ledflag[2][i] == 1)
  53:Core/Src/main.c ****                 {         
  54:Core/Src/main.c ****                     Ledflag[2][i] = 0;
  55:Core/Src/main.c ****                 }
  56:Core/Src/main.c ****                 else
  57:Core/Src/main.c ****                 {
  58:Core/Src/main.c ****                     Ledflag[2][i] = 1;
  59:Core/Src/main.c ****                 }
  60:Core/Src/main.c ****             }
  61:Core/Src/main.c ****             
  62:Core/Src/main.c ****         }
  63:Core/Src/main.c ****         Numb = CurrentLed%7;
  64:Core/Src/main.c ****         if (Numb != 0)
  65:Core/Src/main.c ****         {
  66:Core/Src/main.c ****             for (uint8_t i = 0; i < Numb; i++){
  67:Core/Src/main.c ****                 Ledflag[1][i] = 1;
  68:Core/Src/main.c ****             }
  69:Core/Src/main.c ****         }
  70:Core/Src/main.c ****         else
  71:Core/Src/main.c ****         {
  72:Core/Src/main.c ****             for (uint8_t i = 0; i < 6; i++)
  73:Core/Src/main.c ****             {
  74:Core/Src/main.c ****                 Ledflag[1][i] = 0;
  75:Core/Src/main.c ****             }
  76:Core/Src/main.c ****             CurrentLed = 0;
  77:Core/Src/main.c ****         }
  78:Core/Src/main.c ****         Led_light();
  79:Core/Src/main.c **** 
  80:Core/Src/main.c ****         
  81:Core/Src/main.c ****         //
  82:Core/Src/main.c ****         /*
  83:Core/Src/main.c ****         if(READ_BIT_Self(GPIOC_IDR, GPIOC_IDR_PIN6) != 0){
  84:Core/Src/main.c ****             if(flagbut1 == 0){
  85:Core/Src/main.c ****                 flagbut1 = 1;
  86:Core/Src/main.c ****                 counterbut1++;
  87:Core/Src/main.c ****                 mydelay(20);
  88:Core/Src/main.c ****             }
  89:Core/Src/main.c ****             if(GlobalTickBut1 >= WAIT_TIME){ //–ï—Å–ª–∏ –ø—Ä–æ—à–ª–æ 2 —Å–µ–∫—É–Ω–¥—ã 
ARM GAS  C:\Users\rpong\AppData\Local\Temp\ccowg4go.s 			page 3


  90:Core/Src/main.c ****                 LedLoad[CurrentLed] = LedSetLoad[counterbut2 / 3][counterbut2 % 3];
  91:Core/Src/main.c ****             } 
  92:Core/Src/main.c ****             else{ 
  93:Core/Src/main.c ****                 ////////////////////////////////////////////////// –∫—Ä–∞—Ç–∫–æ–≤—Ä–µ–º–µ–Ω–Ω–æ–µ
  94:Core/Src/main.c ****             }                 
  95:Core/Src/main.c ****         }
  96:Core/Src/main.c ****         else if(flagbut1 == 1){
  97:Core/Src/main.c ****             flagbut1 = 0;
  98:Core/Src/main.c ****         }
  99:Core/Src/main.c **** 
 100:Core/Src/main.c ****         if(READ_BIT(GPIOC->IDR, GPIOC_IDR_PIN13) != 0){
 101:Core/Src/main.c ****             if(flagbut2 == 0)
 102:Core/Src/main.c ****             {
 103:Core/Src/main.c ****                 GlobalTickBut2 = 0;    ///////////////////////////////////
 104:Core/Src/main.c ****                 flagbut2 = 1;
 105:Core/Src/main.c ****                 mydelay(20);
 106:Core/Src/main.c ****             }
 107:Core/Src/main.c ****             if(GlobalTickBut2 >= WAIT_TIME){ //–ï—Å–ª–∏ –ø—Ä–æ—à–ª–æ 2 —Å–µ–∫—É–Ω–¥—ã 
 108:Core/Src/main.c ****                 counterbut2++;
 109:Core/Src/main.c ****             } 
 110:Core/Src/main.c ****             else{ 
 111:Core/Src/main.c ****                 ////////////////////////////////////////////////// –∫—Ä–∞—Ç–∫–æ–≤—Ä–µ–º–µ–Ω–Ω–æ–µ
 112:Core/Src/main.c ****             }      
 113:Core/Src/main.c ****         }
 114:Core/Src/main.c ****         else if(flagbut2 == 1){
 115:Core/Src/main.c ****             flagbut2 = 0;
 116:Core/Src/main.c ****         }
 117:Core/Src/main.c ****         */
 118:Core/Src/main.c ****         
 119:Core/Src/main.c **** 
 120:Core/Src/main.c ****         
 121:Core/Src/main.c ****         /*if(LedState) SET_BIT(GPIOB->BSRR, GPIO_BSRR_BS7); //–ï—Å–ª–∏ –Ω–∞–∂–∞–ª–∏ –æ–¥–∏–Ω —Ä–∞–∑
 122:Core/Src/main.c ****         else SET_BIT(GPIOB->BSRR, GPIO_BSRR_BR7); //–ï—Å–ª–∏ –Ω–∞–∂–∞–ª–∏ –µ—â—ë —Ä–∞–∑ —Å–≤–µ—Ç–æ–
 123:Core/Src/main.c ****         */
 124:Core/Src/main.c ****  
 125:Core/Src/main.c ****         /*if(GlobalTickCount >= FLICKER_PERIOD / 2){ //–ï—Å–ª–∏ –ø—Ä–æ—à–ª–æ 1000 –ø—Ä–µ—Ä—ã–≤–∞–Ω–
 126:Core/Src/main.c ****             SET_BIT(GPIOB->BSRR, GPIO_BSRR_BS7); //–í–∫–ª—é—á–∞–µ–º —Å–≤–µ—Ç–æ–¥–∏–æ–¥ 
 127:Core/Src/main.c ****             if(GlobalTickCount >= FLICKER_PERIOD){ //–ï—Å–ª–∏ –ø—Ä–æ—à–ª–æ 2000 –ø—Ä–µ—Ä—ã–≤–∞–Ω–∏–
 128:Core/Src/main.c ****                 GlobalTickCount = 0; //–û–±–Ω—É–ª—è–µ–º –ø–µ—Ä–µ–º–µ–Ω–Ω—É—é —Å—á—ë—Ç—á–∏–∫–∞ —Å–∏—
 129:Core/Src/main.c ****             } 
 130:Core/Src/main.c ****         } 
 131:Core/Src/main.c ****         else{ 
 132:Core/Src/main.c ****             SET_BIT(GPIOB->BSRR, GPIO_BSRR_BR7); //–ò–Ω–∞—á–µ –≤—ã–∫–ª—é—á–∞–µ–º —Å–≤–µ—Ç–æ–¥–∏–æ–¥
 133:Core/Src/main.c ****         } */
 134:Core/Src/main.c ****         
 135:Core/Src/main.c ****         /*
 136:Core/Src/main.c ****         SET_BIT(GPIOB->BSRR, GPIO_BSRR_BS7); //–í–∫–ª—é—á–∞–µ–º —Å–≤–µ—Ç–æ–¥–∏–æ–¥ 
 137:Core/Src/main.c ****         mydelay(FLICKER_SEMIPERIOD); //–û–∂–∏–¥–∞–µ–º 1 —Å–µ–∫—É–Ω–¥—É 
 138:Core/Src/main.c ****         SET_BIT(GPIOB->BSRR, GPIO_BSRR_BR7); //–í—ã–∫–ª—é—á–∞–µ–º —Å–≤–µ—Ç–æ–¥–∏–æ–¥ 
 139:Core/Src/main.c ****         mydelay(FLICKER_SEMIPERIOD); //–û–∂–∏–¥–∞–µ–º 1 —Å–µ–∫—É–Ω–¥—É 
 140:Core/Src/main.c ****         */
 141:Core/Src/main.c ****         
 142:Core/Src/main.c ****     } 
 143:Core/Src/main.c **** } 
 144:Core/Src/main.c **** 
 145:Core/Src/main.c **** void Led_light()
 146:Core/Src/main.c **** {
ARM GAS  C:\Users\rpong\AppData\Local\Temp\ccowg4go.s 			page 4


  27              		.loc 1 146 1 view -0
  28              		.cfi_startproc
  29              		@ args = 0, pretend = 0, frame = 0
  30              		@ frame_needed = 0, uses_anonymous_args = 0
  31              		@ link register save eliminated.
 147:Core/Src/main.c ****     uint32_t ODR_clear = 0x0UL;
  32              		.loc 1 147 5 view .LVU1
  33              	.LVL0:
 148:Core/Src/main.c ****     uint32_t ODR_set = 0x0UL;
  34              		.loc 1 148 5 view .LVU2
 149:Core/Src/main.c ****     for (uint8_t i = 0; i < 6; i++){
  35              		.loc 1 149 5 view .LVU3
  36              	.LBB2:
  37              		.loc 1 149 10 view .LVU4
  38              		.loc 1 149 18 is_stmt 0 view .LVU5
  39 0000 0023     		movs	r3, #0
  40              	.LBE2:
 148:Core/Src/main.c ****     uint32_t ODR_set = 0x0UL;
  41              		.loc 1 148 14 view .LVU6
  42 0002 9C46     		mov	ip, r3
 147:Core/Src/main.c ****     uint32_t ODR_clear = 0x0UL;
  43              		.loc 1 147 14 view .LVU7
  44 0004 1946     		mov	r1, r3
  45              	.LBB3:
  46              		.loc 1 149 5 view .LVU8
  47 0006 06E0     		b	.L2
  48              	.LVL1:
  49              	.L3:
 150:Core/Src/main.c ****         if ((Ledflag[1][i] == 1) && (Ledflag[2][i] == 1)){
 151:Core/Src/main.c ****             ODR_set = ODR_set + (0x1UL<<(LedOffset[i]));
 152:Core/Src/main.c ****         }
 153:Core/Src/main.c ****         else{
 154:Core/Src/main.c ****             ODR_clear = ODR_clear + (0x1UL<<(LedOffset[i]));
  50              		.loc 1 154 13 is_stmt 1 view .LVU9
  51              		.loc 1 154 55 is_stmt 0 view .LVU10
  52 0008 104A     		ldr	r2, .L7
  53 000a 105C     		ldrb	r0, [r2, r0]	@ zero_extendqisi2
  54              		.loc 1 154 43 view .LVU11
  55 000c 0122     		movs	r2, #1
  56 000e 8240     		lsls	r2, r2, r0
  57              		.loc 1 154 23 view .LVU12
  58 0010 1144     		add	r1, r1, r2
  59              	.LVL2:
  60              	.L4:
 149:Core/Src/main.c ****     for (uint8_t i = 0; i < 6; i++){
  61              		.loc 1 149 33 is_stmt 1 discriminator 2 view .LVU13
  62 0012 0133     		adds	r3, r3, #1
  63              	.LVL3:
 149:Core/Src/main.c ****     for (uint8_t i = 0; i < 6; i++){
  64              		.loc 1 149 33 is_stmt 0 discriminator 2 view .LVU14
  65 0014 DBB2     		uxtb	r3, r3
  66              	.LVL4:
  67              	.L2:
 149:Core/Src/main.c ****     for (uint8_t i = 0; i < 6; i++){
  68              		.loc 1 149 27 is_stmt 1 discriminator 1 view .LVU15
  69 0016 052B     		cmp	r3, #5
  70 0018 10D8     		bhi	.L6
ARM GAS  C:\Users\rpong\AppData\Local\Temp\ccowg4go.s 			page 5


 150:Core/Src/main.c ****         if ((Ledflag[1][i] == 1) && (Ledflag[2][i] == 1)){
  71              		.loc 1 150 9 view .LVU16
 150:Core/Src/main.c ****         if ((Ledflag[1][i] == 1) && (Ledflag[2][i] == 1)){
  72              		.loc 1 150 24 is_stmt 0 view .LVU17
  73 001a 1846     		mov	r0, r3
  74 001c 0C4A     		ldr	r2, .L7+4
  75 001e 1A44     		add	r2, r2, r3
  76 0020 9279     		ldrb	r2, [r2, #6]	@ zero_extendqisi2
 150:Core/Src/main.c ****         if ((Ledflag[1][i] == 1) && (Ledflag[2][i] == 1)){
  77              		.loc 1 150 12 view .LVU18
  78 0022 012A     		cmp	r2, #1
  79 0024 F0D1     		bne	.L3
 150:Core/Src/main.c ****         if ((Ledflag[1][i] == 1) && (Ledflag[2][i] == 1)){
  80              		.loc 1 150 48 discriminator 1 view .LVU19
  81 0026 0A4A     		ldr	r2, .L7+4
  82 0028 1A44     		add	r2, r2, r3
  83 002a 127B     		ldrb	r2, [r2, #12]	@ zero_extendqisi2
 150:Core/Src/main.c ****         if ((Ledflag[1][i] == 1) && (Ledflag[2][i] == 1)){
  84              		.loc 1 150 34 discriminator 1 view .LVU20
  85 002c 012A     		cmp	r2, #1
  86 002e EBD1     		bne	.L3
 151:Core/Src/main.c ****         }
  87              		.loc 1 151 13 is_stmt 1 view .LVU21
 151:Core/Src/main.c ****         }
  88              		.loc 1 151 51 is_stmt 0 view .LVU22
  89 0030 064A     		ldr	r2, .L7
  90 0032 D05C     		ldrb	r0, [r2, r3]	@ zero_extendqisi2
 151:Core/Src/main.c ****         }
  91              		.loc 1 151 39 view .LVU23
  92 0034 0122     		movs	r2, #1
  93 0036 8240     		lsls	r2, r2, r0
 151:Core/Src/main.c ****         }
  94              		.loc 1 151 21 view .LVU24
  95 0038 9444     		add	ip, ip, r2
  96              	.LVL5:
 151:Core/Src/main.c ****         }
  97              		.loc 1 151 21 view .LVU25
  98 003a EAE7     		b	.L4
  99              	.L6:
 151:Core/Src/main.c ****         }
 100              		.loc 1 151 21 view .LVU26
 101              	.LBE3:
 155:Core/Src/main.c ****         }
 156:Core/Src/main.c ****     }
 157:Core/Src/main.c **** 
 158:Core/Src/main.c ****     MODIFY_REG(GPIOB->ODR,ODR_clear,ODR_set);
 102              		.loc 1 158 5 is_stmt 1 view .LVU27
 103 003c 054A     		ldr	r2, .L7+8
 104 003e 5369     		ldr	r3, [r2, #20]
 105              	.LVL6:
 106              		.loc 1 158 5 is_stmt 0 view .LVU28
 107 0040 23EA0103 		bic	r3, r3, r1
 108 0044 43EA0C03 		orr	r3, r3, ip
 109 0048 5361     		str	r3, [r2, #20]
 159:Core/Src/main.c ****     //MODIFY_REG(GPIOB_ODR,ODR_clear,ODR_set);
 160:Core/Src/main.c **** }
 110              		.loc 1 160 1 view .LVU29
ARM GAS  C:\Users\rpong\AppData\Local\Temp\ccowg4go.s 			page 6


 111 004a 7047     		bx	lr
 112              	.L8:
 113              		.align	2
 114              	.L7:
 115 004c 00000000 		.word	LedOffset
 116 0050 00000000 		.word	Ledflag
 117 0054 00040240 		.word	1073873920
 118              		.cfi_endproc
 119              	.LFE131:
 121              		.section	.text.LedVal_Init,"ax",%progbits
 122              		.align	1
 123              		.global	LedVal_Init
 124              		.syntax unified
 125              		.thumb
 126              		.thumb_func
 128              	LedVal_Init:
 129              	.LFB132:
 161:Core/Src/main.c **** 
 162:Core/Src/main.c **** void LedVal_Init()
 163:Core/Src/main.c **** {
 130              		.loc 1 163 1 is_stmt 1 view -0
 131              		.cfi_startproc
 132              		@ args = 0, pretend = 0, frame = 0
 133              		@ frame_needed = 0, uses_anonymous_args = 0
 134              		@ link register save eliminated.
 164:Core/Src/main.c ****     for (uint8_t i = 0; i < 6; i++){
 135              		.loc 1 164 5 view .LVU31
 136              	.LBB4:
 137              		.loc 1 164 10 view .LVU32
 138              	.LVL7:
 139              		.loc 1 164 18 is_stmt 0 view .LVU33
 140 0000 0023     		movs	r3, #0
 141              		.loc 1 164 5 view .LVU34
 142 0002 09E0     		b	.L10
 143              	.LVL8:
 144              	.L11:
 165:Core/Src/main.c ****         LedLoad[i] = LedSetLoad[0][0];
 145              		.loc 1 165 9 is_stmt 1 view .LVU35
 146              		.loc 1 165 20 is_stmt 0 view .LVU36
 147 0004 40F2E242 		movw	r2, #1250
 148 0008 0549     		ldr	r1, .L12
 149 000a 21F81320 		strh	r2, [r1, r3, lsl #1]	@ movhi
 166:Core/Src/main.c ****         LedCount[i] = LedLoad[i];
 150              		.loc 1 166 9 is_stmt 1 view .LVU37
 151              		.loc 1 166 21 is_stmt 0 view .LVU38
 152 000e 0549     		ldr	r1, .L12+4
 153 0010 21F81320 		strh	r2, [r1, r3, lsl #1]	@ movhi
 164:Core/Src/main.c ****     for (uint8_t i = 0; i < 6; i++){
 154              		.loc 1 164 33 is_stmt 1 discriminator 3 view .LVU39
 155 0014 0133     		adds	r3, r3, #1
 156              	.LVL9:
 164:Core/Src/main.c ****     for (uint8_t i = 0; i < 6; i++){
 157              		.loc 1 164 33 is_stmt 0 discriminator 3 view .LVU40
 158 0016 DBB2     		uxtb	r3, r3
 159              	.LVL10:
 160              	.L10:
 164:Core/Src/main.c ****     for (uint8_t i = 0; i < 6; i++){
ARM GAS  C:\Users\rpong\AppData\Local\Temp\ccowg4go.s 			page 7


 161              		.loc 1 164 27 is_stmt 1 discriminator 1 view .LVU41
 162 0018 052B     		cmp	r3, #5
 163 001a F3D9     		bls	.L11
 164              	.LBE4:
 167:Core/Src/main.c ****     }
 168:Core/Src/main.c **** }...
 165              		.loc 1 168 1 is_stmt 0 view .LVU42
 166 001c 7047     		bx	lr
 167              	.L13:
 168 001e 00BF     		.align	2
 169              	.L12:
 170 0020 00000000 		.word	LedLoad
 171 0024 00000000 		.word	LedCount
 172              		.cfi_endproc
 173              	.LFE132:
 175              		.section	.text.main,"ax",%progbits
 176              		.align	1
 177              		.global	main
 178              		.syntax unified
 179              		.thumb
 180              		.thumb_func
 182              	main:
 183              	.LFB130:
  33:Core/Src/main.c **** { 
 184              		.loc 1 33 1 is_stmt 1 view -0
 185              		.cfi_startproc
 186              		@ args = 0, pretend = 0, frame = 0
 187              		@ frame_needed = 0, uses_anonymous_args = 0
 188 0000 08B5     		push	{r3, lr}
 189              	.LCFI0:
 190              		.cfi_def_cfa_offset 8
 191              		.cfi_offset 3, -8
 192              		.cfi_offset 14, -4
  34:Core/Src/main.c ****     GPIO_Init_Self();
 193              		.loc 1 34 5 view .LVU44
 194 0002 FFF7FEFF 		bl	GPIO_Init_Self
 195              	.LVL11:
  35:Core/Src/main.c ****     GPIO_Init_CMSIS();
 196              		.loc 1 35 5 view .LVU45
 197 0006 FFF7FEFF 		bl	GPIO_Init_CMSIS
 198              	.LVL12:
  36:Core/Src/main.c ****     RCC_Init(); // –ò–Ω–∏—Ü–∏–∞–ª–∏–∑–∞—Ü–∏—è —Ç–∞–∫—Ç–∏—Ä–æ–≤–∞–Ω–∏—è —Å–∏—Å—Ç–µ–º—ã 
 199              		.loc 1 36 5 view .LVU46
 200 000a FFF7FEFF 		bl	RCC_Init
 201              	.LVL13:
  37:Core/Src/main.c ****     ITR_Init();// –ò–Ω–∏—Ü–∏–∞–ª–∏–∑–∞—Ü–∏—è –ø—Ä–µ—Ä—ã–≤–∞–Ω–∏–π  
 202              		.loc 1 37 5 view .LVU47
 203 000e FFF7FEFF 		bl	ITR_Init
 204              	.LVL14:
  38:Core/Src/main.c ****     SysTick_Init();
 205              		.loc 1 38 5 view .LVU48
 206 0012 FFF7FEFF 		bl	SysTick_Init
 207              	.LVL15:
  39:Core/Src/main.c ****     LedVal_Init();
 208              		.loc 1 39 5 view .LVU49
 209 0016 FFF7FEFF 		bl	LedVal_Init
 210              	.LVL16:
ARM GAS  C:\Users\rpong\AppData\Local\Temp\ccowg4go.s 			page 8


 211 001a 38E0     		b	.L24
 212              	.LVL17:
 213              	.L28:
 214              	.LBB5:
  54:Core/Src/main.c ****                     Ledflag[2][i] = 0;
 215              		.loc 1 54 21 view .LVU50
  54:Core/Src/main.c ****                     Ledflag[2][i] = 0;
 216              		.loc 1 54 35 is_stmt 0 view .LVU51
 217 001c 234A     		ldr	r2, .L29
 218 001e 1A44     		add	r2, r2, r3
 219 0020 1173     		strb	r1, [r2, #12]
 220              	.L16:
  48:Core/Src/main.c ****         for (uint8_t i = 0; i < 6; i++){
 221              		.loc 1 48 37 is_stmt 1 discriminator 2 view .LVU52
 222 0022 0133     		adds	r3, r3, #1
 223              	.LVL18:
  48:Core/Src/main.c ****         for (uint8_t i = 0; i < 6; i++){
 224              		.loc 1 48 37 is_stmt 0 discriminator 2 view .LVU53
 225 0024 DBB2     		uxtb	r3, r3
 226              	.LVL19:
 227              	.L15:
  48:Core/Src/main.c ****         for (uint8_t i = 0; i < 6; i++){
 228              		.loc 1 48 31 is_stmt 1 discriminator 1 view .LVU54
 229 0026 052B     		cmp	r3, #5
 230 0028 15D8     		bhi	.L27
  49:Core/Src/main.c ****             if (LedCount[i] >= LedLoad[i])
 231              		.loc 1 49 13 view .LVU55
  49:Core/Src/main.c ****             if (LedCount[i] >= LedLoad[i])
 232              		.loc 1 49 25 is_stmt 0 view .LVU56
 233 002a 214A     		ldr	r2, .L29+4
 234 002c 32F81310 		ldrh	r1, [r2, r3, lsl #1]
  49:Core/Src/main.c ****             if (LedCount[i] >= LedLoad[i])
 235              		.loc 1 49 39 view .LVU57
 236 0030 204A     		ldr	r2, .L29+8
 237 0032 32F81320 		ldrh	r2, [r2, r3, lsl #1]
  49:Core/Src/main.c ****             if (LedCount[i] >= LedLoad[i])
 238              		.loc 1 49 16 view .LVU58
 239 0036 9142     		cmp	r1, r2
 240 0038 F3D3     		bcc	.L16
  51:Core/Src/main.c ****                 LedCount[i] = 0;
 241              		.loc 1 51 17 is_stmt 1 view .LVU59
  51:Core/Src/main.c ****                 LedCount[i] = 0;
 242              		.loc 1 51 29 is_stmt 0 view .LVU60
 243 003a 1D4A     		ldr	r2, .L29+4
 244 003c 0021     		movs	r1, #0
 245 003e 22F81310 		strh	r1, [r2, r3, lsl #1]	@ movhi
  52:Core/Src/main.c ****                 if (Ledflag[2][i] == 1)
 246              		.loc 1 52 17 is_stmt 1 view .LVU61
  52:Core/Src/main.c ****                 if (Ledflag[2][i] == 1)
 247              		.loc 1 52 31 is_stmt 0 view .LVU62
 248 0042 1A4A     		ldr	r2, .L29
 249 0044 1A44     		add	r2, r2, r3
 250 0046 127B     		ldrb	r2, [r2, #12]	@ zero_extendqisi2
  52:Core/Src/main.c ****                 if (Ledflag[2][i] == 1)
 251              		.loc 1 52 20 view .LVU63
 252 0048 012A     		cmp	r2, #1
 253 004a E7D0     		beq	.L28
ARM GAS  C:\Users\rpong\AppData\Local\Temp\ccowg4go.s 			page 9


  58:Core/Src/main.c ****                     Ledflag[2][i] = 1;
 254              		.loc 1 58 21 is_stmt 1 view .LVU64
  58:Core/Src/main.c ****                     Ledflag[2][i] = 1;
 255              		.loc 1 58 35 is_stmt 0 view .LVU65
 256 004c 174A     		ldr	r2, .L29
 257 004e 1A44     		add	r2, r2, r3
 258 0050 0121     		movs	r1, #1
 259 0052 1173     		strb	r1, [r2, #12]
 260 0054 E5E7     		b	.L16
 261              	.L27:
 262              	.LBE5:
  63:Core/Src/main.c ****         Numb = CurrentLed%7;
 263              		.loc 1 63 9 is_stmt 1 view .LVU66
  63:Core/Src/main.c ****         Numb = CurrentLed%7;
 264              		.loc 1 63 14 is_stmt 0 view .LVU67
 265 0056 184B     		ldr	r3, .L29+12
 266              	.LVL20:
  63:Core/Src/main.c ****         Numb = CurrentLed%7;
 267              		.loc 1 63 14 view .LVU68
 268 0058 1A78     		ldrb	r2, [r3]	@ zero_extendqisi2
 269 005a 184B     		ldr	r3, .L29+16
 270 005c A3FB0213 		umull	r1, r3, r3, r2
 271 0060 D11A     		subs	r1, r2, r3
 272 0062 03EB5103 		add	r3, r3, r1, lsr #1
 273 0066 9B08     		lsrs	r3, r3, #2
 274 0068 C3EBC303 		rsb	r3, r3, r3, lsl #3
 275 006c D21A     		subs	r2, r2, r3
 276 006e D2B2     		uxtb	r2, r2
 277 0070 134B     		ldr	r3, .L29+20
 278 0072 1A70     		strb	r2, [r3]
  64:Core/Src/main.c ****         if (Numb != 0)
 279              		.loc 1 64 9 is_stmt 1 view .LVU69
  64:Core/Src/main.c ****         if (Numb != 0)
 280              		.loc 1 64 12 is_stmt 0 view .LVU70
 281 0074 9AB1     		cbz	r2, .L20
 282              	.LBB6:
  66:Core/Src/main.c ****             for (uint8_t i = 0; i < Numb; i++){
 283              		.loc 1 66 26 view .LVU71
 284 0076 0023     		movs	r3, #0
 285 0078 05E0     		b	.L19
 286              	.LVL21:
 287              	.L21:
  67:Core/Src/main.c ****                 Ledflag[1][i] = 1;
 288              		.loc 1 67 17 is_stmt 1 view .LVU72
  67:Core/Src/main.c ****                 Ledflag[1][i] = 1;
 289              		.loc 1 67 31 is_stmt 0 view .LVU73
 290 007a 0C49     		ldr	r1, .L29
 291 007c 1944     		add	r1, r1, r3
 292 007e 0120     		movs	r0, #1
 293 0080 8871     		strb	r0, [r1, #6]
  66:Core/Src/main.c ****             for (uint8_t i = 0; i < Numb; i++){
 294              		.loc 1 66 44 is_stmt 1 discriminator 3 view .LVU74
 295 0082 0344     		add	r3, r3, r0
 296              	.LVL22:
  66:Core/Src/main.c ****             for (uint8_t i = 0; i < Numb; i++){
 297              		.loc 1 66 44 is_stmt 0 discriminator 3 view .LVU75
 298 0084 DBB2     		uxtb	r3, r3
ARM GAS  C:\Users\rpong\AppData\Local\Temp\ccowg4go.s 			page 10


 299              	.LVL23:
 300              	.L19:
  66:Core/Src/main.c ****             for (uint8_t i = 0; i < Numb; i++){
 301              		.loc 1 66 35 is_stmt 1 discriminator 1 view .LVU76
 302 0086 9A42     		cmp	r2, r3
 303 0088 F7D8     		bhi	.L21
 304              	.LVL24:
 305              	.L22:
  66:Core/Src/main.c ****             for (uint8_t i = 0; i < Numb; i++){
 306              		.loc 1 66 35 is_stmt 0 discriminator 1 view .LVU77
 307              	.LBE6:
  78:Core/Src/main.c ****         Led_light();
 308              		.loc 1 78 9 is_stmt 1 view .LVU78
 309 008a FFF7FEFF 		bl	Led_light
 310              	.LVL25:
  40:Core/Src/main.c ****     while (1) 
 311              		.loc 1 40 11 view .LVU79
 312              	.L24:
  40:Core/Src/main.c ****     while (1) 
 313              		.loc 1 40 5 view .LVU80
  48:Core/Src/main.c ****         for (uint8_t i = 0; i < 6; i++){
 314              		.loc 1 48 9 view .LVU81
 315              	.LBB7:
  48:Core/Src/main.c ****         for (uint8_t i = 0; i < 6; i++){
 316              		.loc 1 48 14 view .LVU82
  48:Core/Src/main.c ****         for (uint8_t i = 0; i < 6; i++){
 317              		.loc 1 48 22 is_stmt 0 view .LVU83
 318 008e 0023     		movs	r3, #0
  48:Core/Src/main.c ****         for (uint8_t i = 0; i < 6; i++){
 319              		.loc 1 48 9 view .LVU84
 320 0090 C9E7     		b	.L15
 321              	.LVL26:
 322              	.L23:
  48:Core/Src/main.c ****         for (uint8_t i = 0; i < 6; i++){
 323              		.loc 1 48 9 view .LVU85
 324              	.LBE7:
 325              	.LBB8:
  74:Core/Src/main.c ****                 Ledflag[1][i] = 0;
 326              		.loc 1 74 17 is_stmt 1 view .LVU86
  74:Core/Src/main.c ****                 Ledflag[1][i] = 0;
 327              		.loc 1 74 31 is_stmt 0 view .LVU87
 328 0092 064B     		ldr	r3, .L29
 329 0094 1344     		add	r3, r3, r2
 330 0096 0021     		movs	r1, #0
 331 0098 9971     		strb	r1, [r3, #6]
  72:Core/Src/main.c ****             for (uint8_t i = 0; i < 6; i++)
 332              		.loc 1 72 41 is_stmt 1 discriminator 3 view .LVU88
 333 009a 0132     		adds	r2, r2, #1
 334              	.LVL27:
  72:Core/Src/main.c ****             for (uint8_t i = 0; i < 6; i++)
 335              		.loc 1 72 41 is_stmt 0 discriminator 3 view .LVU89
 336 009c D2B2     		uxtb	r2, r2
 337              	.LVL28:
 338              	.L20:
  72:Core/Src/main.c ****             for (uint8_t i = 0; i < 6; i++)
 339              		.loc 1 72 35 is_stmt 1 discriminator 1 view .LVU90
 340 009e 052A     		cmp	r2, #5
ARM GAS  C:\Users\rpong\AppData\Local\Temp\ccowg4go.s 			page 11


 341 00a0 F7D9     		bls	.L23
 342              	.LBE8:
  76:Core/Src/main.c ****             CurrentLed = 0;
 343              		.loc 1 76 13 view .LVU91
  76:Core/Src/main.c ****             CurrentLed = 0;
 344              		.loc 1 76 24 is_stmt 0 view .LVU92
 345 00a2 054B     		ldr	r3, .L29+12
 346 00a4 0022     		movs	r2, #0
 347              	.LVL29:
  76:Core/Src/main.c ****             CurrentLed = 0;
 348              		.loc 1 76 24 view .LVU93
 349 00a6 1A70     		strb	r2, [r3]
 350 00a8 EFE7     		b	.L22
 351              	.L30:
 352 00aa 00BF     		.align	2
 353              	.L29:
 354 00ac 00000000 		.word	Ledflag
 355 00b0 00000000 		.word	LedCount
 356 00b4 00000000 		.word	LedLoad
 357 00b8 00000000 		.word	CurrentLed
 358 00bc 25499224 		.word	613566757
 359 00c0 00000000 		.word	Numb
 360              		.cfi_endproc
 361              	.LFE130:
 363              		.global	flagbut2long
 364              		.section	.bss.flagbut2long,"aw",%nobits
 367              	flagbut2long:
 368 0000 00       		.space	1
 369              		.global	flagbut1long
 370              		.section	.bss.flagbut1long,"aw",%nobits
 373              	flagbut1long:
 374 0000 00       		.space	1
 375              		.global	flagbut2
 376              		.section	.bss.flagbut2,"aw",%nobits
 379              	flagbut2:
 380 0000 00       		.space	1
 381              		.global	flagbut1
 382              		.section	.bss.flagbut1,"aw",%nobits
 385              	flagbut1:
 386 0000 00       		.space	1
 387              		.global	counterbut2
 388              		.section	.bss.counterbut2,"aw",%nobits
 391              	counterbut2:
 392 0000 00       		.space	1
 393              		.global	counterbut1
 394              		.section	.bss.counterbut1,"aw",%nobits
 397              	counterbut1:
 398 0000 00       		.space	1
 399              		.global	Numb
 400              		.section	.bss.Numb,"aw",%nobits
 403              	Numb:
 404 0000 00       		.space	1
 405              		.global	CurrentLed
 406              		.section	.data.CurrentLed,"aw"
 409              	CurrentLed:
 410 0000 06       		.byte	6
 411              		.global	LedOffset
ARM GAS  C:\Users\rpong\AppData\Local\Temp\ccowg4go.s 			page 12


 412              		.section	.rodata.LedOffset,"a"
 413              		.align	2
 416              	LedOffset:
 417 0000 00070E08 		.ascii	"\000\007\016\010\011\012"
 417      090A
 418              		.global	Ledflag
 419              		.section	.data.Ledflag,"aw"
 420              		.align	2
 423              	Ledflag:
 424 0000 01010101 		.ascii	"\001\001\001\001\001\001"
 424      0101
 425 0006 00000000 		.ascii	"\000\000\000\000\000\000"
 425      0000
 426              		.global	LedCount
 427              		.section	.bss.LedCount,"aw",%nobits
 428              		.align	2
 431              	LedCount:
 432 0000 00000000 		.space	12
 432      00000000 
 432      00000000 
 433              		.global	LedLoad
 434              		.section	.bss.LedLoad,"aw",%nobits
 435              		.align	2
 438              	LedLoad:
 439 0000 00000000 		.space	12
 439      00000000 
 439      00000000 
 440              		.global	LedSetLoad
 441              		.section	.rodata.LedSetLoad,"a"
 442              		.align	2
 445              	LedSetLoad:
 446 0000 E204     		.short	1250
 447 0002 8001     		.short	384
 448 0004 FA00     		.short	250
 449 0006 4103     		.short	833
 450 0008 3801     		.short	312
 451 000a E300     		.short	227
 452 000c 7102     		.short	625
 453 000e 0701     		.short	263
 454 0010 C800     		.short	200
 455              		.global	LedState
 456              		.section	.bss.LedState,"aw",%nobits
 459              	LedState:
 460 0000 00       		.space	1
 461              		.global	GlobalTickBut2
 462              		.section	.bss.GlobalTickBut2,"aw",%nobits
 463              		.align	1
 466              	GlobalTickBut2:
 467 0000 0000     		.space	2
 468              		.global	GlobalTickBut1
 469              		.section	.bss.GlobalTickBut1,"aw",%nobits
 470              		.align	1
 473              	GlobalTickBut1:
 474 0000 0000     		.space	2
 475              		.global	DelayTickCount
 476              		.section	.bss.DelayTickCount,"aw",%nobits
 477              		.align	1
ARM GAS  C:\Users\rpong\AppData\Local\Temp\ccowg4go.s 			page 13


 480              	DelayTickCount:
 481 0000 0000     		.space	2
 482              		.global	GlobalTickCount
 483              		.section	.bss.GlobalTickCount,"aw",%nobits
 484              		.align	1
 487              	GlobalTickCount:
 488 0000 0000     		.space	2
 489              		.text
 490              	.Letext0:
 491              		.file 2 "D:/DMPT/xpack-arm-none-eabi-gcc-13.2.1-1.1/arm-none-eabi/include/machine/_default_types.h
 492              		.file 3 "D:/DMPT/xpack-arm-none-eabi-gcc-13.2.1-1.1/arm-none-eabi/include/sys/_stdint.h"
 493              		.file 4 "Core/Src/../Inc/../../CMSIS/Devices/Inc/stm32f429xx.h"
 494              		.file 5 "Core/Src/../Inc/init.h"
ARM GAS  C:\Users\rpong\AppData\Local\Temp\ccowg4go.s 			page 14


DEFINED SYMBOLS
                            *ABS*:00000000 main.c
C:\Users\rpong\AppData\Local\Temp\ccowg4go.s:19     .text.Led_light:00000000 $t
C:\Users\rpong\AppData\Local\Temp\ccowg4go.s:25     .text.Led_light:00000000 Led_light
C:\Users\rpong\AppData\Local\Temp\ccowg4go.s:115    .text.Led_light:0000004c $d
C:\Users\rpong\AppData\Local\Temp\ccowg4go.s:416    .rodata.LedOffset:00000000 LedOffset
C:\Users\rpong\AppData\Local\Temp\ccowg4go.s:423    .data.Ledflag:00000000 Ledflag
C:\Users\rpong\AppData\Local\Temp\ccowg4go.s:122    .text.LedVal_Init:00000000 $t
C:\Users\rpong\AppData\Local\Temp\ccowg4go.s:128    .text.LedVal_Init:00000000 LedVal_Init
C:\Users\rpong\AppData\Local\Temp\ccowg4go.s:170    .text.LedVal_Init:00000020 $d
C:\Users\rpong\AppData\Local\Temp\ccowg4go.s:438    .bss.LedLoad:00000000 LedLoad
C:\Users\rpong\AppData\Local\Temp\ccowg4go.s:431    .bss.LedCount:00000000 LedCount
C:\Users\rpong\AppData\Local\Temp\ccowg4go.s:176    .text.main:00000000 $t
C:\Users\rpong\AppData\Local\Temp\ccowg4go.s:182    .text.main:00000000 main
C:\Users\rpong\AppData\Local\Temp\ccowg4go.s:354    .text.main:000000ac $d
C:\Users\rpong\AppData\Local\Temp\ccowg4go.s:409    .data.CurrentLed:00000000 CurrentLed
C:\Users\rpong\AppData\Local\Temp\ccowg4go.s:403    .bss.Numb:00000000 Numb
C:\Users\rpong\AppData\Local\Temp\ccowg4go.s:367    .bss.flagbut2long:00000000 flagbut2long
C:\Users\rpong\AppData\Local\Temp\ccowg4go.s:368    .bss.flagbut2long:00000000 $d
C:\Users\rpong\AppData\Local\Temp\ccowg4go.s:373    .bss.flagbut1long:00000000 flagbut1long
C:\Users\rpong\AppData\Local\Temp\ccowg4go.s:374    .bss.flagbut1long:00000000 $d
C:\Users\rpong\AppData\Local\Temp\ccowg4go.s:379    .bss.flagbut2:00000000 flagbut2
C:\Users\rpong\AppData\Local\Temp\ccowg4go.s:380    .bss.flagbut2:00000000 $d
C:\Users\rpong\AppData\Local\Temp\ccowg4go.s:385    .bss.flagbut1:00000000 flagbut1
C:\Users\rpong\AppData\Local\Temp\ccowg4go.s:386    .bss.flagbut1:00000000 $d
C:\Users\rpong\AppData\Local\Temp\ccowg4go.s:391    .bss.counterbut2:00000000 counterbut2
C:\Users\rpong\AppData\Local\Temp\ccowg4go.s:392    .bss.counterbut2:00000000 $d
C:\Users\rpong\AppData\Local\Temp\ccowg4go.s:397    .bss.counterbut1:00000000 counterbut1
C:\Users\rpong\AppData\Local\Temp\ccowg4go.s:398    .bss.counterbut1:00000000 $d
C:\Users\rpong\AppData\Local\Temp\ccowg4go.s:404    .bss.Numb:00000000 $d
C:\Users\rpong\AppData\Local\Temp\ccowg4go.s:413    .rodata.LedOffset:00000000 $d
C:\Users\rpong\AppData\Local\Temp\ccowg4go.s:420    .data.Ledflag:00000000 $d
C:\Users\rpong\AppData\Local\Temp\ccowg4go.s:428    .bss.LedCount:00000000 $d
C:\Users\rpong\AppData\Local\Temp\ccowg4go.s:435    .bss.LedLoad:00000000 $d
C:\Users\rpong\AppData\Local\Temp\ccowg4go.s:445    .rodata.LedSetLoad:00000000 LedSetLoad
C:\Users\rpong\AppData\Local\Temp\ccowg4go.s:442    .rodata.LedSetLoad:00000000 $d
C:\Users\rpong\AppData\Local\Temp\ccowg4go.s:459    .bss.LedState:00000000 LedState
C:\Users\rpong\AppData\Local\Temp\ccowg4go.s:460    .bss.LedState:00000000 $d
C:\Users\rpong\AppData\Local\Temp\ccowg4go.s:466    .bss.GlobalTickBut2:00000000 GlobalTickBut2
C:\Users\rpong\AppData\Local\Temp\ccowg4go.s:463    .bss.GlobalTickBut2:00000000 $d
C:\Users\rpong\AppData\Local\Temp\ccowg4go.s:473    .bss.GlobalTickBut1:00000000 GlobalTickBut1
C:\Users\rpong\AppData\Local\Temp\ccowg4go.s:470    .bss.GlobalTickBut1:00000000 $d
C:\Users\rpong\AppData\Local\Temp\ccowg4go.s:480    .bss.DelayTickCount:00000000 DelayTickCount
C:\Users\rpong\AppData\Local\Temp\ccowg4go.s:477    .bss.DelayTickCount:00000000 $d
C:\Users\rpong\AppData\Local\Temp\ccowg4go.s:487    .bss.GlobalTickCount:00000000 GlobalTickCount
C:\Users\rpong\AppData\Local\Temp\ccowg4go.s:484    .bss.GlobalTickCount:00000000 $d

UNDEFINED SYMBOLS
GPIO_Init_Self
GPIO_Init_CMSIS
RCC_Init
ITR_Init
SysTick_Init
