ARM GAS  C:\Users\CHANGY~1\AppData\Local\Temp\cc0SoZRy.s 			page 1


   1              		.cpu cortex-m4
   2              		.arch armv7e-m
   3              		.fpu fpv4-sp-d16
   4              		.eabi_attribute 27, 1
   5              		.eabi_attribute 28, 1
   6              		.eabi_attribute 20, 1
   7              		.eabi_attribute 21, 1
   8              		.eabi_attribute 23, 3
   9              		.eabi_attribute 24, 1
  10              		.eabi_attribute 25, 1
  11              		.eabi_attribute 26, 1
  12              		.eabi_attribute 30, 1
  13              		.eabi_attribute 34, 1
  14              		.eabi_attribute 18, 4
  15              		.file	"main.c"
  16              		.text
  17              	.Ltext0:
  18              		.cfi_sections	.debug_frame
  19              		.file 1 "Core/Src/main.c"
  20              		.section	.text.main,"ax",%progbits
  21              		.align	1
  22              		.global	main
  23              		.syntax unified
  24              		.thumb
  25              		.thumb_func
  27              	main:
  28              	.LFB130:
   1:Core/Src/main.c **** #include <init.h>
   2:Core/Src/main.c **** #include <it_handlers.h>
   3:Core/Src/main.c **** // 闪烁频率定义 (单位：毫秒)
   4:Core/Src/main.c **** const uint32_t blink_periods[] = {5000, 1250, 769}; // 对应 0.2Hz、0.8Hz、1.3Hz 1/0.2=5c
   5:Core/Src/main.c **** // 全局变量
   6:Core/Src/main.c **** volatile uint8_t current_led = 0; // 当前点亮的LED索引
   7:Core/Src/main.c **** volatile uint8_t work_mode = 1; // 闪烁模式：1=闪烁，0=常亮
   8:Core/Src/main.c **** uint8_t blink_frequency = 0; // 闪烁频率索引（0=0.2Hz, 1=0.8Hz, 2=1.3Hz）
   9:Core/Src/main.c **** volatile uint8_t button2_pressed = 0; // 按钮2按住标志
  10:Core/Src/main.c **** volatile uint32_t button2_timer = 0; // 按钮2按住计时
  11:Core/Src/main.c **** volatile uint32_t systick_counter = 0; // SysTick计数器
  12:Core/Src/main.c **** 
  13:Core/Src/main.c **** 
  14:Core/Src/main.c **** uint8_t flagbutton1,flagbutton2;
  15:Core/Src/main.c **** uint8_t button2_state = 0; // 按钮状态：0=未按下，1=按下中，2=长按已处理
  16:Core/Src/main.c **** const uint32_t led_pins[] = {GPIO_ODR_OD14, GPIO_ODR_OD7, GPIO_ODR_OD0, GPIO_ODR_OD2, GPIO_ODR_OD6,
  17:Core/Src/main.c **** int main(void) {
  29              		.loc 1 17 16 view -0
  30              		.cfi_startproc
  31              		@ args = 0, pretend = 0, frame = 0
  32              		@ frame_needed = 0, uses_anonymous_args = 0
  33 0000 08B5     		push	{r3, lr}
  34              	.LCFI0:
  35              		.cfi_def_cfa_offset 8
  36              		.cfi_offset 3, -8
  37              		.cfi_offset 14, -4
  18:Core/Src/main.c **** // 初始化 GPIO、EXTI 和 SysTick
  19:Core/Src/main.c **** GPIO_Ini(); //Инициализация поротв GPIOl
  38              		.loc 1 19 1 view .LVU1
  39 0002 FFF7FEFF 		bl	GPIO_Ini
ARM GAS  C:\Users\CHANGY~1\AppData\Local\Temp\cc0SoZRy.s 			page 2


  40              	.LVL0:
  20:Core/Src/main.c **** RCC_Ini(); //Инициализация системы тактирования RCC
  41              		.loc 1 20 1 view .LVU2
  42 0006 FFF7FEFF 		bl	RCC_Ini
  43              	.LVL1:
  21:Core/Src/main.c **** EXTI_ITR_Ini(); //Инициализация контроллера прерываний
  44              		.loc 1 21 1 view .LVU3
  45 000a FFF7FEFF 		bl	EXTI_ITR_Ini
  46              	.LVL2:
  22:Core/Src/main.c **** SysTick_Init(); //Инициализация системного таймера
  47              		.loc 1 22 1 view .LVU4
  48 000e FFF7FEFF 		bl	SysTick_Init
  49              	.LVL3:
  50 0012 36E0     		b	.L2
  51              	.L4:
  52              	.LBB2:
  23:Core/Src/main.c **** 
  24:Core/Src/main.c **** while (1) {
  25:Core/Src/main.c ****      // 按钮 2 的状态轮询
  26:Core/Src/main.c ****         flagbutton1=READ_BIT(GPIOC->IDR,GPIO_IDR_ID13) != 0;
  27:Core/Src/main.c ****         flagbutton2=READ_BIT(GPIOC->IDR,GPIO_IDR_ID6) != 0;
  28:Core/Src/main.c ****         if (READ_BIT(GPIOC->IDR,GPIO_IDR_ID6) != 0) { // 按钮按下
  29:Core/Src/main.c ****             if (button2_state == 0) { // 首次检测到按下
  30:Core/Src/main.c ****                 button2_state = 1;  // 切换到按下中状态
  31:Core/Src/main.c ****                 button2_timer = systick_counter; // 记录按下的时刻
  32:Core/Src/main.c ****             } else if (button2_state == 1) { // 按下中
  53              		.loc 1 32 20 view .LVU5
  54              		.loc 1 32 23 is_stmt 0 view .LVU6
  55 0014 012B     		cmp	r3, #1
  56 0016 17D1     		bne	.L5
  57              	.LBB3:
  33:Core/Src/main.c ****                 uint32_t press_duration = systick_counter - button2_timer;
  58              		.loc 1 33 17 is_stmt 1 view .LVU7
  59              		.loc 1 33 59 is_stmt 0 view .LVU8
  60 0018 2F4B     		ldr	r3, .L11
  61 001a 1B68     		ldr	r3, [r3]
  62 001c 2F4A     		ldr	r2, .L11+4
  63 001e 1268     		ldr	r2, [r2]
  64              		.loc 1 33 26 view .LVU9
  65 0020 9B1A     		subs	r3, r3, r2
  66              	.LVL4:
  34:Core/Src/main.c ****                 if (press_duration >= 2000) { // 检测到长按
  67              		.loc 1 34 17 is_stmt 1 view .LVU10
  68              		.loc 1 34 20 is_stmt 0 view .LVU11
  69 0022 B3F5FA6F 		cmp	r3, #2000
  70 0026 0FD3     		bcc	.L5
  35:Core/Src/main.c ****                     work_mode ^= 1;        // 切换工作模式
  71              		.loc 1 35 21 is_stmt 1 view .LVU12
  72              		.loc 1 35 31 is_stmt 0 view .LVU13
  73 0028 2D4A     		ldr	r2, .L11+8
  74 002a 1378     		ldrb	r3, [r2]	@ zero_extendqisi2
  75              	.LVL5:
  76              		.loc 1 35 31 view .LVU14
  77 002c 83F00103 		eor	r3, r3, #1
  78 0030 1370     		strb	r3, [r2]
  36:Core/Src/main.c ****                     button2_state = 2;     // 标记为长按已处理
  79              		.loc 1 36 21 is_stmt 1 view .LVU15
ARM GAS  C:\Users\CHANGY~1\AppData\Local\Temp\cc0SoZRy.s 			page 3


  80              		.loc 1 36 35 is_stmt 0 view .LVU16
  81 0032 2C4B     		ldr	r3, .L11+12
  82 0034 0222     		movs	r2, #2
  83 0036 1A70     		strb	r2, [r3]
  84 0038 06E0     		b	.L5
  85              	.LVL6:
  86              	.L3:
  87              		.loc 1 36 35 view .LVU17
  88              	.LBE3:
  37:Core/Src/main.c ****                 }
  38:Core/Src/main.c ****             }
  39:Core/Src/main.c ****         } else { // 按钮释放
  40:Core/Src/main.c ****             if (button2_state == 1) { // 按下后释放，未达到长按时间
  89              		.loc 1 40 13 is_stmt 1 view .LVU18
  90              		.loc 1 40 31 is_stmt 0 view .LVU19
  91 003a 2A4B     		ldr	r3, .L11+12
  92 003c 1B78     		ldrb	r3, [r3]	@ zero_extendqisi2
  93              		.loc 1 40 16 view .LVU20
  94 003e 012B     		cmp	r3, #1
  95 0040 3AD0     		beq	.L10
  96              	.L6:
  41:Core/Src/main.c ****                 blink_frequency = (blink_frequency + 1) % 3; // 切换频率
  42:Core/Src/main.c ****             }
  43:Core/Src/main.c ****             // 重置按钮状态
  44:Core/Src/main.c ****             button2_state = 0;
  97              		.loc 1 44 13 is_stmt 1 view .LVU21
  98              		.loc 1 44 27 is_stmt 0 view .LVU22
  99 0042 284B     		ldr	r3, .L11+12
 100 0044 0022     		movs	r2, #0
 101 0046 1A70     		strb	r2, [r3]
 102              	.L5:
  45:Core/Src/main.c ****         }
  46:Core/Src/main.c **** 
  47:Core/Src/main.c ****         // LED 控制逻辑
  48:Core/Src/main.c ****         static uint32_t blink_counter = 0;
 103              		.loc 1 48 9 is_stmt 1 view .LVU23
  49:Core/Src/main.c ****         if (work_mode == 0) { // 闪烁模式
 104              		.loc 1 49 9 view .LVU24
 105              		.loc 1 49 23 is_stmt 0 view .LVU25
 106 0048 254B     		ldr	r3, .L11+8
 107 004a 1B78     		ldrb	r3, [r3]	@ zero_extendqisi2
 108              		.loc 1 49 12 view .LVU26
 109 004c 002B     		cmp	r3, #0
 110 004e 3FD1     		bne	.L7
  50:Core/Src/main.c ****             if (systick_counter - blink_counter >= blink_periods[blink_frequency]) {
 111              		.loc 1 50 13 is_stmt 1 view .LVU27
 112              		.loc 1 50 33 is_stmt 0 view .LVU28
 113 0050 214B     		ldr	r3, .L11
 114 0052 1B68     		ldr	r3, [r3]
 115 0054 244A     		ldr	r2, .L11+16
 116 0056 1268     		ldr	r2, [r2]
 117 0058 9B1A     		subs	r3, r3, r2
 118              		.loc 1 50 65 view .LVU29
 119 005a 244A     		ldr	r2, .L11+20
 120 005c 1178     		ldrb	r1, [r2]	@ zero_extendqisi2
 121 005e 244A     		ldr	r2, .L11+24
 122 0060 52F82120 		ldr	r2, [r2, r1, lsl #2]
ARM GAS  C:\Users\CHANGY~1\AppData\Local\Temp\cc0SoZRy.s 			page 4


 123              		.loc 1 50 16 view .LVU30
 124 0064 9342     		cmp	r3, r2
 125 0066 0CD3     		bcc	.L2
  51:Core/Src/main.c ****                 blink_counter = systick_counter;
 126              		.loc 1 51 17 is_stmt 1 view .LVU31
 127              		.loc 1 51 31 is_stmt 0 view .LVU32
 128 0068 1B4B     		ldr	r3, .L11
 129 006a 1A68     		ldr	r2, [r3]
 130 006c 1E4B     		ldr	r3, .L11+16
 131 006e 1A60     		str	r2, [r3]
  52:Core/Src/main.c ****                 GPIOB->ODR ^= led_pins[current_led]; // 翻转当前 LED
 132              		.loc 1 52 17 is_stmt 1 view .LVU33
 133              		.loc 1 52 39 is_stmt 0 view .LVU34
 134 0070 204B     		ldr	r3, .L11+28
 135 0072 1A78     		ldrb	r2, [r3]	@ zero_extendqisi2
 136 0074 204B     		ldr	r3, .L11+32
 137 0076 53F82210 		ldr	r1, [r3, r2, lsl #2]
 138              		.loc 1 52 22 view .LVU35
 139 007a 204A     		ldr	r2, .L11+36
 140 007c 5369     		ldr	r3, [r2, #20]
 141              		.loc 1 52 28 view .LVU36
 142 007e 4B40     		eors	r3, r3, r1
 143 0080 5361     		str	r3, [r2, #20]
 144              	.L2:
 145              	.LBE2:
  24:Core/Src/main.c ****      // 按钮 2 的状态轮询
 146              		.loc 1 24 1 is_stmt 1 view .LVU37
 147              	.LBB4:
  26:Core/Src/main.c ****         flagbutton2=READ_BIT(GPIOC->IDR,GPIO_IDR_ID6) != 0;
 148              		.loc 1 26 9 view .LVU38
  26:Core/Src/main.c ****         flagbutton2=READ_BIT(GPIOC->IDR,GPIO_IDR_ID6) != 0;
 149              		.loc 1 26 21 is_stmt 0 view .LVU39
 150 0082 1F4B     		ldr	r3, .L11+40
 151 0084 1A69     		ldr	r2, [r3, #16]
  26:Core/Src/main.c ****         flagbutton2=READ_BIT(GPIOC->IDR,GPIO_IDR_ID6) != 0;
 152              		.loc 1 26 56 view .LVU40
 153 0086 C2F34032 		ubfx	r2, r2, #13, #1
  26:Core/Src/main.c ****         flagbutton2=READ_BIT(GPIOC->IDR,GPIO_IDR_ID6) != 0;
 154              		.loc 1 26 20 view .LVU41
 155 008a 1E49     		ldr	r1, .L11+44
 156 008c 0A70     		strb	r2, [r1]
  27:Core/Src/main.c ****         if (READ_BIT(GPIOC->IDR,GPIO_IDR_ID6) != 0) { // 按钮按下
 157              		.loc 1 27 9 is_stmt 1 view .LVU42
  27:Core/Src/main.c ****         if (READ_BIT(GPIOC->IDR,GPIO_IDR_ID6) != 0) { // 按钮按下
 158              		.loc 1 27 21 is_stmt 0 view .LVU43
 159 008e 1A69     		ldr	r2, [r3, #16]
  27:Core/Src/main.c ****         if (READ_BIT(GPIOC->IDR,GPIO_IDR_ID6) != 0) { // 按钮按下
 160              		.loc 1 27 55 view .LVU44
 161 0090 C2F38012 		ubfx	r2, r2, #6, #1
  27:Core/Src/main.c ****         if (READ_BIT(GPIOC->IDR,GPIO_IDR_ID6) != 0) { // 按钮按下
 162              		.loc 1 27 20 view .LVU45
 163 0094 1C49     		ldr	r1, .L11+48
 164 0096 0A70     		strb	r2, [r1]
  28:Core/Src/main.c ****             if (button2_state == 0) { // 首次检测到按下
 165              		.loc 1 28 9 is_stmt 1 view .LVU46
  28:Core/Src/main.c ****             if (button2_state == 0) { // 首次检测到按下
 166              		.loc 1 28 13 is_stmt 0 view .LVU47
ARM GAS  C:\Users\CHANGY~1\AppData\Local\Temp\cc0SoZRy.s 			page 5


 167 0098 1B69     		ldr	r3, [r3, #16]
  28:Core/Src/main.c ****             if (button2_state == 0) { // 首次检测到按下
 168              		.loc 1 28 12 view .LVU48
 169 009a 13F0400F 		tst	r3, #64
 170 009e CCD0     		beq	.L3
  29:Core/Src/main.c ****                 button2_state = 1;  // 切换到按下中状态
 171              		.loc 1 29 13 is_stmt 1 view .LVU49
  29:Core/Src/main.c ****                 button2_state = 1;  // 切换到按下中状态
 172              		.loc 1 29 31 is_stmt 0 view .LVU50
 173 00a0 104B     		ldr	r3, .L11+12
 174 00a2 1B78     		ldrb	r3, [r3]	@ zero_extendqisi2
  29:Core/Src/main.c ****                 button2_state = 1;  // 切换到按下中状态
 175              		.loc 1 29 16 view .LVU51
 176 00a4 002B     		cmp	r3, #0
 177 00a6 B5D1     		bne	.L4
  30:Core/Src/main.c ****                 button2_timer = systick_counter; // 记录按下的时刻
 178              		.loc 1 30 17 is_stmt 1 view .LVU52
  30:Core/Src/main.c ****                 button2_timer = systick_counter; // 记录按下的时刻
 179              		.loc 1 30 31 is_stmt 0 view .LVU53
 180 00a8 0E4B     		ldr	r3, .L11+12
 181 00aa 0122     		movs	r2, #1
 182 00ac 1A70     		strb	r2, [r3]
  31:Core/Src/main.c ****             } else if (button2_state == 1) { // 按下中
 183              		.loc 1 31 17 is_stmt 1 view .LVU54
  31:Core/Src/main.c ****             } else if (button2_state == 1) { // 按下中
 184              		.loc 1 31 31 is_stmt 0 view .LVU55
 185 00ae 0A4B     		ldr	r3, .L11
 186 00b0 1A68     		ldr	r2, [r3]
 187 00b2 0A4B     		ldr	r3, .L11+4
 188 00b4 1A60     		str	r2, [r3]
 189 00b6 C7E7     		b	.L5
 190              	.L10:
  41:Core/Src/main.c ****             }
 191              		.loc 1 41 17 is_stmt 1 view .LVU56
  41:Core/Src/main.c ****             }
 192              		.loc 1 41 52 is_stmt 0 view .LVU57
 193 00b8 0C49     		ldr	r1, .L11+20
 194 00ba 0A78     		ldrb	r2, [r1]	@ zero_extendqisi2
 195 00bc 0132     		adds	r2, r2, #1
  41:Core/Src/main.c ****             }
 196              		.loc 1 41 57 view .LVU58
 197 00be 03F15533 		add	r3, r3, #1431655765
 198 00c2 83FB0203 		smull	r0, r3, r3, r2
 199 00c6 03EB4303 		add	r3, r3, r3, lsl #1
 200 00ca D31A     		subs	r3, r2, r3
  41:Core/Src/main.c ****             }
 201              		.loc 1 41 33 view .LVU59
 202 00cc 0B70     		strb	r3, [r1]
 203 00ce B8E7     		b	.L6
 204              	.L7:
  53:Core/Src/main.c ****             }
  54:Core/Src/main.c ****         } else { // 常亮模式
  55:Core/Src/main.c ****             update_led_state(); // 点亮当前 LED
 205              		.loc 1 55 13 is_stmt 1 view .LVU60
 206 00d0 FFF7FEFF 		bl	update_led_state
 207              	.LVL7:
 208 00d4 D5E7     		b	.L2
ARM GAS  C:\Users\CHANGY~1\AppData\Local\Temp\cc0SoZRy.s 			page 6


 209              	.L12:
 210 00d6 00BF     		.align	2
 211              	.L11:
 212 00d8 00000000 		.word	systick_counter
 213 00dc 00000000 		.word	button2_timer
 214 00e0 00000000 		.word	work_mode
 215 00e4 00000000 		.word	button2_state
 216 00e8 00000000 		.word	blink_counter.0
 217 00ec 00000000 		.word	blink_frequency
 218 00f0 00000000 		.word	blink_periods
 219 00f4 00000000 		.word	current_led
 220 00f8 00000000 		.word	led_pins
 221 00fc 00040240 		.word	1073873920
 222 0100 00080240 		.word	1073874944
 223 0104 00000000 		.word	flagbutton1
 224 0108 00000000 		.word	flagbutton2
 225              	.LBE4:
 226              		.cfi_endproc
 227              	.LFE130:
 229              		.section	.bss.blink_counter.0,"aw",%nobits
 230              		.align	2
 233              	blink_counter.0:
 234 0000 00000000 		.space	4
 235              		.global	led_pins
 236              		.section	.rodata.led_pins,"a"
 237              		.align	2
 240              	led_pins:
 241 0000 00400000 		.word	16384
 242 0004 80000000 		.word	128
 243 0008 01000000 		.word	1
 244 000c 04000000 		.word	4
 245 0010 40000000 		.word	64
 246 0014 02000000 		.word	2
 247              		.global	button2_state
 248              		.section	.bss.button2_state,"aw",%nobits
 251              	button2_state:
 252 0000 00       		.space	1
 253              		.global	flagbutton2
 254              		.section	.bss.flagbutton2,"aw",%nobits
 257              	flagbutton2:
 258 0000 00       		.space	1
 259              		.global	flagbutton1
 260              		.section	.bss.flagbutton1,"aw",%nobits
 263              	flagbutton1:
 264 0000 00       		.space	1
 265              		.global	systick_counter
 266              		.section	.bss.systick_counter,"aw",%nobits
 267              		.align	2
 270              	systick_counter:
 271 0000 00000000 		.space	4
 272              		.global	button2_timer
 273              		.section	.bss.button2_timer,"aw",%nobits
 274              		.align	2
 277              	button2_timer:
 278 0000 00000000 		.space	4
 279              		.global	button2_pressed
 280              		.section	.bss.button2_pressed,"aw",%nobits
ARM GAS  C:\Users\CHANGY~1\AppData\Local\Temp\cc0SoZRy.s 			page 7


 283              	button2_pressed:
 284 0000 00       		.space	1
 285              		.global	blink_frequency
 286              		.section	.bss.blink_frequency,"aw",%nobits
 289              	blink_frequency:
 290 0000 00       		.space	1
 291              		.global	work_mode
 292              		.section	.data.work_mode,"aw"
 295              	work_mode:
 296 0000 01       		.byte	1
 297              		.global	current_led
 298              		.section	.bss.current_led,"aw",%nobits
 301              	current_led:
 302 0000 00       		.space	1
 303              		.global	blink_periods
 304              		.section	.rodata.blink_periods,"a"
 305              		.align	2
 308              	blink_periods:
 309 0000 88130000 		.word	5000
 310 0004 E2040000 		.word	1250
 311 0008 01030000 		.word	769
 312              		.text
 313              	.Letext0:
 314              		.file 2 "D:/mk/tools/xpack-arm-none-eabi-gcc-13.2.1-1.1/arm-none-eabi/include/machine/_default_typ
 315              		.file 3 "D:/mk/tools/xpack-arm-none-eabi-gcc-13.2.1-1.1/arm-none-eabi/include/sys/_stdint.h"
 316              		.file 4 "Core/Inc/../../CMSIS/Devices/stm32f429xx.h"
 317              		.file 5 "Core/Inc/init.h"
ARM GAS  C:\Users\CHANGY~1\AppData\Local\Temp\cc0SoZRy.s 			page 8


DEFINED SYMBOLS
                            *ABS*:00000000 main.c
C:\Users\CHANGY~1\AppData\Local\Temp\cc0SoZRy.s:21     .text.main:00000000 $t
C:\Users\CHANGY~1\AppData\Local\Temp\cc0SoZRy.s:27     .text.main:00000000 main
C:\Users\CHANGY~1\AppData\Local\Temp\cc0SoZRy.s:212    .text.main:000000d8 $d
C:\Users\CHANGY~1\AppData\Local\Temp\cc0SoZRy.s:270    .bss.systick_counter:00000000 systick_counter
C:\Users\CHANGY~1\AppData\Local\Temp\cc0SoZRy.s:277    .bss.button2_timer:00000000 button2_timer
C:\Users\CHANGY~1\AppData\Local\Temp\cc0SoZRy.s:295    .data.work_mode:00000000 work_mode
C:\Users\CHANGY~1\AppData\Local\Temp\cc0SoZRy.s:251    .bss.button2_state:00000000 button2_state
C:\Users\CHANGY~1\AppData\Local\Temp\cc0SoZRy.s:233    .bss.blink_counter.0:00000000 blink_counter.0
C:\Users\CHANGY~1\AppData\Local\Temp\cc0SoZRy.s:289    .bss.blink_frequency:00000000 blink_frequency
C:\Users\CHANGY~1\AppData\Local\Temp\cc0SoZRy.s:308    .rodata.blink_periods:00000000 blink_periods
C:\Users\CHANGY~1\AppData\Local\Temp\cc0SoZRy.s:301    .bss.current_led:00000000 current_led
C:\Users\CHANGY~1\AppData\Local\Temp\cc0SoZRy.s:240    .rodata.led_pins:00000000 led_pins
C:\Users\CHANGY~1\AppData\Local\Temp\cc0SoZRy.s:263    .bss.flagbutton1:00000000 flagbutton1
C:\Users\CHANGY~1\AppData\Local\Temp\cc0SoZRy.s:257    .bss.flagbutton2:00000000 flagbutton2
C:\Users\CHANGY~1\AppData\Local\Temp\cc0SoZRy.s:230    .bss.blink_counter.0:00000000 $d
C:\Users\CHANGY~1\AppData\Local\Temp\cc0SoZRy.s:237    .rodata.led_pins:00000000 $d
C:\Users\CHANGY~1\AppData\Local\Temp\cc0SoZRy.s:252    .bss.button2_state:00000000 $d
C:\Users\CHANGY~1\AppData\Local\Temp\cc0SoZRy.s:258    .bss.flagbutton2:00000000 $d
C:\Users\CHANGY~1\AppData\Local\Temp\cc0SoZRy.s:264    .bss.flagbutton1:00000000 $d
C:\Users\CHANGY~1\AppData\Local\Temp\cc0SoZRy.s:267    .bss.systick_counter:00000000 $d
C:\Users\CHANGY~1\AppData\Local\Temp\cc0SoZRy.s:274    .bss.button2_timer:00000000 $d
C:\Users\CHANGY~1\AppData\Local\Temp\cc0SoZRy.s:283    .bss.button2_pressed:00000000 button2_pressed
C:\Users\CHANGY~1\AppData\Local\Temp\cc0SoZRy.s:284    .bss.button2_pressed:00000000 $d
C:\Users\CHANGY~1\AppData\Local\Temp\cc0SoZRy.s:290    .bss.blink_frequency:00000000 $d
C:\Users\CHANGY~1\AppData\Local\Temp\cc0SoZRy.s:302    .bss.current_led:00000000 $d
C:\Users\CHANGY~1\AppData\Local\Temp\cc0SoZRy.s:305    .rodata.blink_periods:00000000 $d

UNDEFINED SYMBOLS
GPIO_Ini
RCC_Ini
EXTI_ITR_Ini
SysTick_Init
update_led_state
