ARM GAS  C:\Users\mono\AppData\Local\Temp\ccazCkTj.s 			page 1


   1              		.cpu cortex-m4
   2              		.arch armv7e-m
   3              		.fpu fpv4-sp-d16
   4              		.eabi_attribute 27, 1
   5              		.eabi_attribute 28, 1
   6              		.eabi_attribute 20, 1
   7              		.eabi_attribute 21, 1
   8              		.eabi_attribute 23, 3
   9              		.eabi_attribute 24, 1
  10              		.eabi_attribute 25, 1
  11              		.eabi_attribute 26, 1
  12              		.eabi_attribute 30, 1
  13              		.eabi_attribute 34, 1
  14              		.eabi_attribute 18, 4
  15              		.file	"main.c"
  16              		.text
  17              	.Ltext0:
  18              		.cfi_sections	.debug_frame
  19              		.file 1 "Core/Src/main.c"
  20              		.section	.text.main,"ax",%progbits
  21              		.align	1
  22              		.global	main
  23              		.syntax unified
  24              		.thumb
  25              		.thumb_func
  27              	main:
  28              	.LFB130:
   1:Core/Src/main.c **** #include <stdint.h> 
   2:Core/Src/main.c **** #include <init.h> 
   3:Core/Src/main.c **** 
   4:Core/Src/main.c **** int main(void) { 
  29              		.loc 1 4 16 view -0
  30              		.cfi_startproc
  31              		@ Volatile: function does not return.
  32              		@ args = 0, pretend = 0, frame = 0
  33              		@ frame_needed = 0, uses_anonymous_args = 0
  34              		@ link register save eliminated.
   5:Core/Src/main.c **** 
   6:Core/Src/main.c ****      SET_BIT(RCC_GPIO_EN,RCC_GPIOB_EN | RCC_GPIOC_EN | RCC_GPIOC_EN);
  35              		.loc 1 6 6 view .LVU1
  36 0000 174A     		ldr	r2, .L6
  37 0002 D2F83038 		ldr	r3, [r2, #2096]
  38 0006 43F00603 		orr	r3, r3, #6
  39 000a C2F83038 		str	r3, [r2, #2096]
   7:Core/Src/main.c ****    // *(uint32_t*)(0x40023800UL + 0x30UL) |= 0x06; //–í–∫–ª—é—á–µ–Ω–∏–µ —Ç–∞–∫—Ç–∏—Ä–æ–≤–∞–Ω–∏—è –ø
   8:Core/Src/main.c ****      SET_BIT(GPIOB_MODER,GPIOB_MODE_PIN7_OUT | GPIOB_MODE_PIN14_OUT);
  40              		.loc 1 8 6 view .LVU2
  41 000e A2F54052 		sub	r2, r2, #12288
  42 0012 D2F80034 		ldr	r3, [r2, #1024]
  43 0016 43F08053 		orr	r3, r3, #268435456
  44 001a 43F48043 		orr	r3, r3, #16384
  45 001e C2F80034 		str	r3, [r2, #1024]
   9:Core/Src/main.c ****     //*(uint32_t*)(0x40020400UL + 0x00UL) |= 0x4000; //–ù–∞—Å—Ç—Ä–æ–π–∫–∞ —Ä–∞–±–æ—Ç—ã 7-–≥–æ –ø–∏–
  10:Core/Src/main.c ****       SET_BIT(GPIOB_OTYPER,GPIOB_OTYPE_PIN7_PP | GPIOB_OTYPE_PIN14_PP );
  46              		.loc 1 10 7 view .LVU3
  11:Core/Src/main.c ****     //*(uint32_t*)(0x40020400UL + 0x04UL) |= 0x00; //–ù–∞—Å—Ç—Ä–æ–π–∫–∞ –Ω–∞ PushPull —Ä–∞–±–æ—Ç—É 
  12:Core/Src/main.c ****     SET_BIT(GPIOB_OSPEEDR, GPIOB_OSPEED_PIN7_MID | GPIOB_OSPEED_PIN14_MID);
ARM GAS  C:\Users\mono\AppData\Local\Temp\ccazCkTj.s 			page 2


  47              		.loc 1 12 5 view .LVU4
  48 0022 D2F80834 		ldr	r3, [r2, #1032]
  49 0026 43F08053 		orr	r3, r3, #268435456
  50 002a 43F48043 		orr	r3, r3, #16384
  51 002e C2F80834 		str	r3, [r2, #1032]
  13:Core/Src/main.c ****     //*(uint32_t*)(0x40020400UL + 0x08UL) |= 0x4000; //–ù–∞—Å—Ç—Ä–æ–π–∫–∞ —Å–∫–æ—Ä–æ—Å—Ç–∏ —Ä–∞–±–æ
  14:Core/Src/main.c ****     SET_BIT(GPIOB_PUPDR,GPIOB_PUPDR_PIN7_NOPUPD | GPIOB_PUPDR_PIN14_NOPUPD);
  52              		.loc 1 14 5 view .LVU5
  53 0032 06E0     		b	.L2
  54              	.L5:
  15:Core/Src/main.c ****     
  16:Core/Src/main.c ****     //*(uint32_t*)(0x40020400UL + 0x0CUL) |= 0x00; //–û—Ç–∫–ª—é—á–µ–Ω–∏–µ PU/PD —Ä–µ–∑–∏—Å—Ç–æ—Ä–æ–
  17:Core/Src/main.c ****     while(1){ 
  18:Core/Src/main.c ****         if((READ_BIT(GPIOC_IDR ,GPIOC_IDR_PIN13  ) != 0)){ 
  19:Core/Src/main.c ****             SET_BIT(GPIOB_BSRR ,GPIOB_BSRR_PIN7_RESET | GPIOB_BSRR_PIN14_RESET);
  55              		.loc 1 19 13 view .LVU6
  56 0034 0B4A     		ldr	r2, .L6+4
  57 0036 D2F81834 		ldr	r3, [r2, #1048]
  58 003a 43F08143 		orr	r3, r3, #1082130432
  59 003e C2F81834 		str	r3, [r2, #1048]
  60              	.L2:
  17:Core/Src/main.c ****         if((READ_BIT(GPIOC_IDR ,GPIOC_IDR_PIN13  ) != 0)){ 
  61              		.loc 1 17 5 view .LVU7
  18:Core/Src/main.c ****             SET_BIT(GPIOB_BSRR ,GPIOB_BSRR_PIN7_RESET | GPIOB_BSRR_PIN14_RESET);
  62              		.loc 1 18 9 view .LVU8
  18:Core/Src/main.c ****             SET_BIT(GPIOB_BSRR ,GPIOB_BSRR_PIN7_RESET | GPIOB_BSRR_PIN14_RESET);
  63              		.loc 1 18 13 is_stmt 0 view .LVU9
  64 0042 084B     		ldr	r3, .L6+4
  65 0044 D3F81038 		ldr	r3, [r3, #2064]
  18:Core/Src/main.c ****             SET_BIT(GPIOB_BSRR ,GPIOB_BSRR_PIN7_RESET | GPIOB_BSRR_PIN14_RESET);
  66              		.loc 1 18 11 view .LVU10
  67 0048 13F4005F 		tst	r3, #8192
  68 004c F2D1     		bne	.L5
  20:Core/Src/main.c ****            // *(uint32_t*)(0x40020400UL + 0x18UL) |= 0x80; //–£—Å—Ç–∞–Ω–æ–≤–∫–∞ –µ–¥–∏–Ω–∏—Ü—ã –≤ 7
  21:Core/Src/main.c ****         } 
  22:Core/Src/main.c ****         else{ 
  23:Core/Src/main.c ****              SET_BIT(GPIOB_BSRR ,GPIOB_BSRR_PIN7_SET | GPIOB_BSRR_PIN14_SET);
  69              		.loc 1 23 14 is_stmt 1 view .LVU11
  70 004e 054A     		ldr	r2, .L6+4
  71 0050 D2F81834 		ldr	r3, [r2, #1048]
  72 0054 43F48143 		orr	r3, r3, #16512
  73 0058 C2F81834 		str	r3, [r2, #1048]
  74 005c F1E7     		b	.L2
  75              	.L7:
  76 005e 00BF     		.align	2
  77              	.L6:
  78 0060 00300240 		.word	1073885184
  79 0064 00000240 		.word	1073872896
  80              		.cfi_endproc
  81              	.LFE130:
  83              		.text
  84              	.Letext0:
  85              		.file 2 "D:/STM_32/gcc_download/SysGCC/arm-none-eabi/include/machine/_default_types.h"
  86              		.file 3 "D:/STM_32/gcc_download/SysGCC/arm-none-eabi/include/sys/_stdint.h"
ARM GAS  C:\Users\mono\AppData\Local\Temp\ccazCkTj.s 			page 3


DEFINED SYMBOLS
                            *ABS*:00000000 main.c
C:\Users\mono\AppData\Local\Temp\ccazCkTj.s:21     .text.main:00000000 $t
C:\Users\mono\AppData\Local\Temp\ccazCkTj.s:27     .text.main:00000000 main
C:\Users\mono\AppData\Local\Temp\ccazCkTj.s:78     .text.main:00000060 $d

NO UNDEFINED SYMBOLS
