ARM GAS  C:\Users\kseni\AppData\Local\Temp\ccbjzSK7.s 			page 1


   1              		.cpu cortex-m4
   2              		.arch armv7e-m
   3              		.fpu softvfp
   4              		.eabi_attribute 20, 1
   5              		.eabi_attribute 21, 1
   6              		.eabi_attribute 23, 3
   7              		.eabi_attribute 24, 1
   8              		.eabi_attribute 25, 1
   9              		.eabi_attribute 26, 1
  10              		.eabi_attribute 30, 1
  11              		.eabi_attribute 34, 1
  12              		.eabi_attribute 18, 4
  13              		.file	"main.c"
  14              		.text
  15              	.Ltext0:
  16              		.cfi_sections	.debug_frame
  17              		.file 1 "Core/Src/main.c"
  18              		.section	.text.check_button_state_1,"ax",%progbits
  19              		.align	1
  20              		.global	check_button_state_1
  21              		.syntax unified
  22              		.thumb
  23              		.thumb_func
  25              	check_button_state_1:
  26              	.LFB130:
   1:Core/Src/main.c **** #include <../Inc/init.h>
   2:Core/Src/main.c **** 
   3:Core/Src/main.c **** uint8_t button_state_1=0, button_state_2=0;
   4:Core/Src/main.c **** uint8_t button1_clicks=0, button2_clicks=0;
   5:Core/Src/main.c **** uint8_t led_state=0, led_num=0, alternative=0;
   6:Core/Src/main.c **** uint8_t port_C8_state=0;
   7:Core/Src/main.c **** 
   8:Core/Src/main.c **** void check_button_state_1(){
  27              		.loc 1 8 28 view -0
  28              		.cfi_startproc
  29              		@ args = 0, pretend = 0, frame = 0
  30              		@ frame_needed = 0, uses_anonymous_args = 0
  31              		@ link register save eliminated.
   9:Core/Src/main.c ****    if(button_state_1==0 && (READ_BIT(GPIOC->IDR, GPIO_IDR_IDR_13)!=0)){
  32              		.loc 1 9 4 view .LVU1
  33              		.loc 1 9 21 is_stmt 0 view .LVU2
  34 0000 174B     		ldr	r3, .L9
  35 0002 1B78     		ldrb	r3, [r3]	@ zero_extendqisi2
  36              		.loc 1 9 6 view .LVU3
  37 0004 A3B9     		cbnz	r3, .L2
  38              		.loc 1 9 29 discriminator 1 view .LVU4
  39 0006 03F18043 		add	r3, r3, #1073741824
  40 000a 03F50233 		add	r3, r3, #133120
  41 000e 1B69     		ldr	r3, [r3, #16]
  42              		.loc 1 9 25 discriminator 1 view .LVU5
  43 0010 13F4005F 		tst	r3, #8192
  44 0014 0CD0     		beq	.L2
  10:Core/Src/main.c ****       button_state_1=1;  
  45              		.loc 1 10 7 is_stmt 1 view .LVU6
  46              		.loc 1 10 21 is_stmt 0 view .LVU7
  47 0016 124B     		ldr	r3, .L9
  48 0018 0122     		movs	r2, #1
ARM GAS  C:\Users\kseni\AppData\Local\Temp\ccbjzSK7.s 			page 2


  49 001a 1A70     		strb	r2, [r3]
  11:Core/Src/main.c ****       button1_clicks+=1;
  50              		.loc 1 11 7 is_stmt 1 view .LVU8
  51              		.loc 1 11 21 is_stmt 0 view .LVU9
  52 001c 114A     		ldr	r2, .L9+4
  53 001e 1378     		ldrb	r3, [r2]	@ zero_extendqisi2
  54 0020 0133     		adds	r3, r3, #1
  55 0022 1370     		strb	r3, [r2]
  12:Core/Src/main.c ****       for(int i=0;i<750000;i++);
  56              		.loc 1 12 7 is_stmt 1 view .LVU10
  57              	.LBB2:
  58              		.loc 1 12 11 view .LVU11
  59              	.LVL0:
  60              		.loc 1 12 15 is_stmt 0 view .LVU12
  61 0024 0023     		movs	r3, #0
  62              		.loc 1 12 7 view .LVU13
  63 0026 00E0     		b	.L3
  64              	.LVL1:
  65              	.L4:
  66              		.loc 1 12 29 is_stmt 1 discriminator 3 view .LVU14
  67 0028 0133     		adds	r3, r3, #1
  68              	.LVL2:
  69              	.L3:
  70              		.loc 1 12 20 discriminator 1 view .LVU15
  71 002a 0F4A     		ldr	r2, .L9+8
  72 002c 9342     		cmp	r3, r2
  73 002e FBDD     		ble	.L4
  74              	.LVL3:
  75              	.L2:
  76              		.loc 1 12 20 is_stmt 0 discriminator 1 view .LVU16
  77              	.LBE2:
  13:Core/Src/main.c ****    }
  14:Core/Src/main.c ****    if(button_state_1==1 && (READ_BIT(GPIOC->IDR, GPIO_IDR_IDR_13)!=0)){
  78              		.loc 1 14 4 is_stmt 1 view .LVU17
  79              		.loc 1 14 21 is_stmt 0 view .LVU18
  80 0030 0B4B     		ldr	r3, .L9
  81 0032 1B78     		ldrb	r3, [r3]	@ zero_extendqisi2
  82              		.loc 1 14 6 view .LVU19
  83 0034 012B     		cmp	r3, #1
  84 0036 00D0     		beq	.L8
  85              	.L1:
  15:Core/Src/main.c ****       button_state_1=0;  
  16:Core/Src/main.c ****       button1_clicks+=1;
  17:Core/Src/main.c ****       for(int i=0;i<750000;i++);
  18:Core/Src/main.c ****    }
  19:Core/Src/main.c **** }
  86              		.loc 1 19 1 view .LVU20
  87 0038 7047     		bx	lr
  88              	.L8:
  14:Core/Src/main.c ****       button_state_1=0;  
  89              		.loc 1 14 29 discriminator 1 view .LVU21
  90 003a 0C4B     		ldr	r3, .L9+12
  91 003c 1B69     		ldr	r3, [r3, #16]
  14:Core/Src/main.c ****       button_state_1=0;  
  92              		.loc 1 14 25 discriminator 1 view .LVU22
  93 003e 13F4005F 		tst	r3, #8192
  94 0042 F9D0     		beq	.L1
ARM GAS  C:\Users\kseni\AppData\Local\Temp\ccbjzSK7.s 			page 3


  15:Core/Src/main.c ****       button_state_1=0;  
  95              		.loc 1 15 7 is_stmt 1 view .LVU23
  15:Core/Src/main.c ****       button_state_1=0;  
  96              		.loc 1 15 21 is_stmt 0 view .LVU24
  97 0044 0023     		movs	r3, #0
  98 0046 064A     		ldr	r2, .L9
  99 0048 1370     		strb	r3, [r2]
  16:Core/Src/main.c ****       for(int i=0;i<750000;i++);
 100              		.loc 1 16 7 is_stmt 1 view .LVU25
  16:Core/Src/main.c ****       for(int i=0;i<750000;i++);
 101              		.loc 1 16 21 is_stmt 0 view .LVU26
 102 004a 0649     		ldr	r1, .L9+4
 103 004c 0A78     		ldrb	r2, [r1]	@ zero_extendqisi2
 104 004e 0132     		adds	r2, r2, #1
 105 0050 0A70     		strb	r2, [r1]
  17:Core/Src/main.c ****    }
 106              		.loc 1 17 7 is_stmt 1 view .LVU27
 107              	.LBB3:
  17:Core/Src/main.c ****    }
 108              		.loc 1 17 11 view .LVU28
 109              	.LVL4:
  17:Core/Src/main.c ****    }
 110              		.loc 1 17 7 is_stmt 0 view .LVU29
 111 0052 00E0     		b	.L6
 112              	.LVL5:
 113              	.L7:
  17:Core/Src/main.c ****    }
 114              		.loc 1 17 29 is_stmt 1 discriminator 3 view .LVU30
 115 0054 0133     		adds	r3, r3, #1
 116              	.LVL6:
 117              	.L6:
  17:Core/Src/main.c ****    }
 118              		.loc 1 17 20 discriminator 1 view .LVU31
 119 0056 044A     		ldr	r2, .L9+8
 120 0058 9342     		cmp	r3, r2
 121 005a FBDD     		ble	.L7
 122 005c ECE7     		b	.L1
 123              	.L10:
 124 005e 00BF     		.align	2
 125              	.L9:
 126 0060 00000000 		.word	button_state_1
 127 0064 00000000 		.word	button1_clicks
 128 0068 AF710B00 		.word	749999
 129 006c 00080240 		.word	1073874944
 130              	.LBE3:
 131              		.cfi_endproc
 132              	.LFE130:
 134              		.section	.text.check_button_state_2,"ax",%progbits
 135              		.align	1
 136              		.global	check_button_state_2
 137              		.syntax unified
 138              		.thumb
 139              		.thumb_func
 141              	check_button_state_2:
 142              	.LFB131:
  20:Core/Src/main.c **** 
  21:Core/Src/main.c **** void check_button_state_2(){
ARM GAS  C:\Users\kseni\AppData\Local\Temp\ccbjzSK7.s 			page 4


 143              		.loc 1 21 28 view -0
 144              		.cfi_startproc
 145              		@ args = 0, pretend = 0, frame = 0
 146              		@ frame_needed = 0, uses_anonymous_args = 0
 147              		@ link register save eliminated.
  22:Core/Src/main.c ****    if(button_state_2==0 && (READ_BIT(GPIOC->IDR, GPIO_IDR_IDR_13)!=0)){
 148              		.loc 1 22 4 view .LVU33
 149              		.loc 1 22 21 is_stmt 0 view .LVU34
 150 0000 174B     		ldr	r3, .L19
 151 0002 1B78     		ldrb	r3, [r3]	@ zero_extendqisi2
 152              		.loc 1 22 6 view .LVU35
 153 0004 A3B9     		cbnz	r3, .L12
 154              		.loc 1 22 29 discriminator 1 view .LVU36
 155 0006 03F18043 		add	r3, r3, #1073741824
 156 000a 03F50233 		add	r3, r3, #133120
 157 000e 1B69     		ldr	r3, [r3, #16]
 158              		.loc 1 22 25 discriminator 1 view .LVU37
 159 0010 13F4005F 		tst	r3, #8192
 160 0014 0CD0     		beq	.L12
  23:Core/Src/main.c ****       button_state_2=1;  
 161              		.loc 1 23 7 is_stmt 1 view .LVU38
 162              		.loc 1 23 21 is_stmt 0 view .LVU39
 163 0016 124B     		ldr	r3, .L19
 164 0018 0122     		movs	r2, #1
 165 001a 1A70     		strb	r2, [r3]
  24:Core/Src/main.c ****       button2_clicks+=1;
 166              		.loc 1 24 7 is_stmt 1 view .LVU40
 167              		.loc 1 24 21 is_stmt 0 view .LVU41
 168 001c 114A     		ldr	r2, .L19+4
 169 001e 1378     		ldrb	r3, [r2]	@ zero_extendqisi2
 170 0020 0133     		adds	r3, r3, #1
 171 0022 1370     		strb	r3, [r2]
  25:Core/Src/main.c ****       for(int i=0;i<500000;i++);
 172              		.loc 1 25 7 is_stmt 1 view .LVU42
 173              	.LBB4:
 174              		.loc 1 25 11 view .LVU43
 175              	.LVL7:
 176              		.loc 1 25 15 is_stmt 0 view .LVU44
 177 0024 0023     		movs	r3, #0
 178              		.loc 1 25 7 view .LVU45
 179 0026 00E0     		b	.L13
 180              	.LVL8:
 181              	.L14:
 182              		.loc 1 25 29 is_stmt 1 discriminator 3 view .LVU46
 183 0028 0133     		adds	r3, r3, #1
 184              	.LVL9:
 185              	.L13:
 186              		.loc 1 25 20 discriminator 1 view .LVU47
 187 002a 0F4A     		ldr	r2, .L19+8
 188 002c 9342     		cmp	r3, r2
 189 002e FBDD     		ble	.L14
 190              	.LVL10:
 191              	.L12:
 192              		.loc 1 25 20 is_stmt 0 discriminator 1 view .LVU48
 193              	.LBE4:
  26:Core/Src/main.c ****    }
  27:Core/Src/main.c ****    if(button_state_2==1 && (READ_BIT(GPIOC->IDR, GPIO_IDR_IDR_13)!=0)){
ARM GAS  C:\Users\kseni\AppData\Local\Temp\ccbjzSK7.s 			page 5


 194              		.loc 1 27 4 is_stmt 1 view .LVU49
 195              		.loc 1 27 21 is_stmt 0 view .LVU50
 196 0030 0B4B     		ldr	r3, .L19
 197 0032 1B78     		ldrb	r3, [r3]	@ zero_extendqisi2
 198              		.loc 1 27 6 view .LVU51
 199 0034 012B     		cmp	r3, #1
 200 0036 00D0     		beq	.L18
 201              	.L11:
  28:Core/Src/main.c ****       button_state_2=0;  
  29:Core/Src/main.c ****       button2_clicks+=1;
  30:Core/Src/main.c ****       for(int i=0;i<500000;i++);
  31:Core/Src/main.c ****    }
  32:Core/Src/main.c **** }
 202              		.loc 1 32 1 view .LVU52
 203 0038 7047     		bx	lr
 204              	.L18:
  27:Core/Src/main.c ****       button_state_2=0;  
 205              		.loc 1 27 29 discriminator 1 view .LVU53
 206 003a 0C4B     		ldr	r3, .L19+12
 207 003c 1B69     		ldr	r3, [r3, #16]
  27:Core/Src/main.c ****       button_state_2=0;  
 208              		.loc 1 27 25 discriminator 1 view .LVU54
 209 003e 13F4005F 		tst	r3, #8192
 210 0042 F9D0     		beq	.L11
  28:Core/Src/main.c ****       button_state_2=0;  
 211              		.loc 1 28 7 is_stmt 1 view .LVU55
  28:Core/Src/main.c ****       button_state_2=0;  
 212              		.loc 1 28 21 is_stmt 0 view .LVU56
 213 0044 0023     		movs	r3, #0
 214 0046 064A     		ldr	r2, .L19
 215 0048 1370     		strb	r3, [r2]
  29:Core/Src/main.c ****       for(int i=0;i<500000;i++);
 216              		.loc 1 29 7 is_stmt 1 view .LVU57
  29:Core/Src/main.c ****       for(int i=0;i<500000;i++);
 217              		.loc 1 29 21 is_stmt 0 view .LVU58
 218 004a 0649     		ldr	r1, .L19+4
 219 004c 0A78     		ldrb	r2, [r1]	@ zero_extendqisi2
 220 004e 0132     		adds	r2, r2, #1
 221 0050 0A70     		strb	r2, [r1]
  30:Core/Src/main.c ****    }
 222              		.loc 1 30 7 is_stmt 1 view .LVU59
 223              	.LBB5:
  30:Core/Src/main.c ****    }
 224              		.loc 1 30 11 view .LVU60
 225              	.LVL11:
  30:Core/Src/main.c ****    }
 226              		.loc 1 30 7 is_stmt 0 view .LVU61
 227 0052 00E0     		b	.L16
 228              	.LVL12:
 229              	.L17:
  30:Core/Src/main.c ****    }
 230              		.loc 1 30 29 is_stmt 1 discriminator 3 view .LVU62
 231 0054 0133     		adds	r3, r3, #1
 232              	.LVL13:
 233              	.L16:
  30:Core/Src/main.c ****    }
 234              		.loc 1 30 20 discriminator 1 view .LVU63
ARM GAS  C:\Users\kseni\AppData\Local\Temp\ccbjzSK7.s 			page 6


 235 0056 044A     		ldr	r2, .L19+8
 236 0058 9342     		cmp	r3, r2
 237 005a FBDD     		ble	.L17
 238 005c ECE7     		b	.L11
 239              	.L20:
 240 005e 00BF     		.align	2
 241              	.L19:
 242 0060 00000000 		.word	button_state_2
 243 0064 00000000 		.word	button2_clicks
 244 0068 1FA10700 		.word	499999
 245 006c 00080240 		.word	1073874944
 246              	.LBE5:
 247              		.cfi_endproc
 248              	.LFE131:
 250              		.section	.text.check_alternative,"ax",%progbits
 251              		.align	1
 252              		.global	check_alternative
 253              		.syntax unified
 254              		.thumb
 255              		.thumb_func
 257              	check_alternative:
 258              	.LFB132:
  33:Core/Src/main.c **** 
  34:Core/Src/main.c **** void check_alternative(){
 259              		.loc 1 34 25 view -0
 260              		.cfi_startproc
 261              		@ args = 0, pretend = 0, frame = 0
 262              		@ frame_needed = 0, uses_anonymous_args = 0
 263              		@ link register save eliminated.
  35:Core/Src/main.c ****    if(alternative==0 && button2_clicks%6==5){
 264              		.loc 1 35 4 view .LVU65
 265              		.loc 1 35 18 is_stmt 0 view .LVU66
 266 0000 174B     		ldr	r3, .L26
 267 0002 1B78     		ldrb	r3, [r3]	@ zero_extendqisi2
 268              		.loc 1 35 6 view .LVU67
 269 0004 63B9     		cbnz	r3, .L22
 270              		.loc 1 35 41 discriminator 1 view .LVU68
 271 0006 174B     		ldr	r3, .L26+4
 272 0008 1A78     		ldrb	r2, [r3]	@ zero_extendqisi2
 273 000a 174B     		ldr	r3, .L26+8
 274 000c A3FB0213 		umull	r1, r3, r3, r2
 275 0010 9B08     		lsrs	r3, r3, #2
 276 0012 03EB4303 		add	r3, r3, r3, lsl #1
 277 0016 5900     		lsls	r1, r3, #1
 278 0018 521A     		subs	r2, r2, r1
 279 001a D2B2     		uxtb	r2, r2
 280              		.loc 1 35 22 discriminator 1 view .LVU69
 281 001c 052A     		cmp	r2, #5
 282 001e 04D0     		beq	.L24
 283              	.L22:
  36:Core/Src/main.c ****       alternative=1;
  37:Core/Src/main.c ****       button2_clicks=0;
  38:Core/Src/main.c ****    }
  39:Core/Src/main.c ****    if(alternative==1 && button2_clicks%6==5){
 284              		.loc 1 39 4 is_stmt 1 view .LVU70
 285              		.loc 1 39 18 is_stmt 0 view .LVU71
 286 0020 0F4B     		ldr	r3, .L26
ARM GAS  C:\Users\kseni\AppData\Local\Temp\ccbjzSK7.s 			page 7


 287 0022 1B78     		ldrb	r3, [r3]	@ zero_extendqisi2
 288              		.loc 1 39 6 view .LVU72
 289 0024 012B     		cmp	r3, #1
 290 0026 07D0     		beq	.L25
 291              	.L21:
  40:Core/Src/main.c ****       alternative=0;
  41:Core/Src/main.c ****       button2_clicks=0;
  42:Core/Src/main.c ****    }
  43:Core/Src/main.c **** }
 292              		.loc 1 43 1 view .LVU73
 293 0028 7047     		bx	lr
 294              	.L24:
  36:Core/Src/main.c ****       alternative=1;
 295              		.loc 1 36 7 is_stmt 1 view .LVU74
  36:Core/Src/main.c ****       alternative=1;
 296              		.loc 1 36 18 is_stmt 0 view .LVU75
 297 002a 0D4B     		ldr	r3, .L26
 298 002c 0122     		movs	r2, #1
 299 002e 1A70     		strb	r2, [r3]
  37:Core/Src/main.c ****    }
 300              		.loc 1 37 7 is_stmt 1 view .LVU76
  37:Core/Src/main.c ****    }
 301              		.loc 1 37 21 is_stmt 0 view .LVU77
 302 0030 0C4B     		ldr	r3, .L26+4
 303 0032 0022     		movs	r2, #0
 304 0034 1A70     		strb	r2, [r3]
 305 0036 F3E7     		b	.L22
 306              	.L25:
  39:Core/Src/main.c ****       alternative=0;
 307              		.loc 1 39 41 discriminator 1 view .LVU78
 308 0038 0A4B     		ldr	r3, .L26+4
 309 003a 1A78     		ldrb	r2, [r3]	@ zero_extendqisi2
 310 003c 0A4B     		ldr	r3, .L26+8
 311 003e A3FB0213 		umull	r1, r3, r3, r2
 312 0042 9B08     		lsrs	r3, r3, #2
 313 0044 03EB4303 		add	r3, r3, r3, lsl #1
 314 0048 5900     		lsls	r1, r3, #1
 315 004a 521A     		subs	r2, r2, r1
 316 004c D2B2     		uxtb	r2, r2
  39:Core/Src/main.c ****       alternative=0;
 317              		.loc 1 39 22 discriminator 1 view .LVU79
 318 004e 052A     		cmp	r2, #5
 319 0050 EAD1     		bne	.L21
  40:Core/Src/main.c ****       alternative=0;
 320              		.loc 1 40 7 is_stmt 1 view .LVU80
  40:Core/Src/main.c ****       alternative=0;
 321              		.loc 1 40 18 is_stmt 0 view .LVU81
 322 0052 0023     		movs	r3, #0
 323 0054 024A     		ldr	r2, .L26
 324 0056 1370     		strb	r3, [r2]
  41:Core/Src/main.c ****    }
 325              		.loc 1 41 7 is_stmt 1 view .LVU82
  41:Core/Src/main.c ****    }
 326              		.loc 1 41 21 is_stmt 0 view .LVU83
 327 0058 024A     		ldr	r2, .L26+4
 328 005a 1370     		strb	r3, [r2]
 329              		.loc 1 43 1 view .LVU84
ARM GAS  C:\Users\kseni\AppData\Local\Temp\ccbjzSK7.s 			page 8


 330 005c E4E7     		b	.L21
 331              	.L27:
 332 005e 00BF     		.align	2
 333              	.L26:
 334 0060 00000000 		.word	alternative
 335 0064 00000000 		.word	button2_clicks
 336 0068 ABAAAAAA 		.word	-1431655765
 337              		.cfi_endproc
 338              	.LFE132:
 340              		.section	.text.reconfigure_pin_C8_to_in,"ax",%progbits
 341              		.align	1
 342              		.global	reconfigure_pin_C8_to_in
 343              		.syntax unified
 344              		.thumb
 345              		.thumb_func
 347              	reconfigure_pin_C8_to_in:
 348              	.LFB133:
  44:Core/Src/main.c **** 
  45:Core/Src/main.c **** void reconfigure_pin_C8_to_in(){
 349              		.loc 1 45 32 is_stmt 1 view -0
 350              		.cfi_startproc
 351              		@ args = 0, pretend = 0, frame = 0
 352              		@ frame_needed = 0, uses_anonymous_args = 0
 353              		@ link register save eliminated.
  46:Core/Src/main.c ****    CLEAR_BIT(GPIOC->MODER, GPIO_MODER_MODE8_0);
 354              		.loc 1 46 4 view .LVU86
 355 0000 084B     		ldr	r3, .L29
 356 0002 1A68     		ldr	r2, [r3]
 357 0004 22F48032 		bic	r2, r2, #65536
 358 0008 1A60     		str	r2, [r3]
  47:Core/Src/main.c ****    CLEAR_BIT(GPIOC->OTYPER, GPIO_OTYPER_OT_8);
 359              		.loc 1 47 4 view .LVU87
 360 000a 5A68     		ldr	r2, [r3, #4]
 361 000c 22F48072 		bic	r2, r2, #256
 362 0010 5A60     		str	r2, [r3, #4]
  48:Core/Src/main.c ****    CLEAR_BIT(GPIOC->OSPEEDR, GPIO_OSPEEDER_OSPEEDR8_0);
 363              		.loc 1 48 4 view .LVU88
 364 0012 9A68     		ldr	r2, [r3, #8]
 365 0014 22F48032 		bic	r2, r2, #65536
 366 0018 9A60     		str	r2, [r3, #8]
  49:Core/Src/main.c ****    CLEAR_BIT(GPIOC->PUPDR, GPIO_PUPDR_PUPDR8_0);
 367              		.loc 1 49 4 view .LVU89
 368 001a DA68     		ldr	r2, [r3, #12]
 369 001c 22F48032 		bic	r2, r2, #65536
 370 0020 DA60     		str	r2, [r3, #12]
  50:Core/Src/main.c **** }
 371              		.loc 1 50 1 is_stmt 0 view .LVU90
 372 0022 7047     		bx	lr
 373              	.L30:
 374              		.align	2
 375              	.L29:
 376 0024 00080240 		.word	1073874944
 377              		.cfi_endproc
 378              	.LFE133:
 380              		.section	.text.reconfigure_pin_C8_to_out,"ax",%progbits
 381              		.align	1
 382              		.global	reconfigure_pin_C8_to_out
ARM GAS  C:\Users\kseni\AppData\Local\Temp\ccbjzSK7.s 			page 9


 383              		.syntax unified
 384              		.thumb
 385              		.thumb_func
 387              	reconfigure_pin_C8_to_out:
 388              	.LFB134:
  51:Core/Src/main.c **** void reconfigure_pin_C8_to_out(){
 389              		.loc 1 51 33 is_stmt 1 view -0
 390              		.cfi_startproc
 391              		@ args = 0, pretend = 0, frame = 0
 392              		@ frame_needed = 0, uses_anonymous_args = 0
 393              		@ link register save eliminated.
  52:Core/Src/main.c ****    SET_BIT(GPIOC->MODER, GPIO_MODER_MODE8_0);
 394              		.loc 1 52 4 view .LVU92
 395 0000 084B     		ldr	r3, .L32
 396 0002 1A68     		ldr	r2, [r3]
 397 0004 42F48032 		orr	r2, r2, #65536
 398 0008 1A60     		str	r2, [r3]
  53:Core/Src/main.c ****    CLEAR_BIT(GPIOC->OTYPER, GPIO_OTYPER_OT_8);
 399              		.loc 1 53 4 view .LVU93
 400 000a 5A68     		ldr	r2, [r3, #4]
 401 000c 22F48072 		bic	r2, r2, #256
 402 0010 5A60     		str	r2, [r3, #4]
  54:Core/Src/main.c ****    SET_BIT(GPIOC->OSPEEDR, GPIO_OSPEEDER_OSPEEDR8_0);
 403              		.loc 1 54 4 view .LVU94
 404 0012 9A68     		ldr	r2, [r3, #8]
 405 0014 42F48032 		orr	r2, r2, #65536
 406 0018 9A60     		str	r2, [r3, #8]
  55:Core/Src/main.c ****    CLEAR_BIT(GPIOC->PUPDR, GPIO_PUPDR_PUPDR8_0);
 407              		.loc 1 55 4 view .LVU95
 408 001a DA68     		ldr	r2, [r3, #12]
 409 001c 22F48032 		bic	r2, r2, #65536
 410 0020 DA60     		str	r2, [r3, #12]
  56:Core/Src/main.c **** }
 411              		.loc 1 56 1 is_stmt 0 view .LVU96
 412 0022 7047     		bx	lr
 413              	.L33:
 414              		.align	2
 415              	.L32:
 416 0024 00080240 		.word	1073874944
 417              		.cfi_endproc
 418              	.LFE134:
 420              		.section	.text.main,"ax",%progbits
 421              		.align	1
 422              		.global	main
 423              		.syntax unified
 424              		.thumb
 425              		.thumb_func
 427              	main:
 428              	.LFB135:
  57:Core/Src/main.c **** 
  58:Core/Src/main.c **** int main(void)
  59:Core/Src/main.c **** {
 429              		.loc 1 59 1 is_stmt 1 view -0
 430              		.cfi_startproc
 431              		@ Volatile: function does not return.
 432              		@ args = 0, pretend = 0, frame = 0
 433              		@ frame_needed = 0, uses_anonymous_args = 0
ARM GAS  C:\Users\kseni\AppData\Local\Temp\ccbjzSK7.s 			page 10


 434 0000 08B5     		push	{r3, lr}
 435              	.LCFI0:
 436              		.cfi_def_cfa_offset 8
 437              		.cfi_offset 3, -8
 438              		.cfi_offset 14, -4
  60:Core/Src/main.c ****    GPIO_Init_Self_Def();
 439              		.loc 1 60 4 view .LVU98
 440 0002 FFF7FEFF 		bl	GPIO_Init_Self_Def
 441              	.LVL14:
 442 0006 21E0     		b	.L41
 443              	.L46:
  61:Core/Src/main.c **** 
  62:Core/Src/main.c ****    while (1){
  63:Core/Src/main.c ****       check_alternative();
  64:Core/Src/main.c ****       if(alternative==0){
  65:Core/Src/main.c ****          if(port_C8_state==0){
  66:Core/Src/main.c ****             reconfigure_pin_C8_to_in();
 444              		.loc 1 66 13 view .LVU99
 445 0008 FFF7FEFF 		bl	reconfigure_pin_C8_to_in
 446              	.LVL15:
  67:Core/Src/main.c ****             port_C8_state=1;
 447              		.loc 1 67 13 view .LVU100
 448              		.loc 1 67 26 is_stmt 0 view .LVU101
 449 000c 354B     		ldr	r3, .L51
 450 000e 0122     		movs	r2, #1
 451 0010 1A70     		strb	r2, [r3]
 452 0012 25E0     		b	.L36
 453              	.L47:
  68:Core/Src/main.c ****          }
  69:Core/Src/main.c ****          check_button_state_1();
  70:Core/Src/main.c ****          check_button_state_2();
  71:Core/Src/main.c ****          if(button1_clicks%5==1)SET_BIT(GPIOB->BSRR, GPIO_BSRR_BS0);
 454              		.loc 1 71 33 is_stmt 1 discriminator 1 view .LVU102
 455 0014 3449     		ldr	r1, .L51+4
 456 0016 8A69     		ldr	r2, [r1, #24]
 457 0018 42F00102 		orr	r2, r2, #1
 458 001c 8A61     		str	r2, [r1, #24]
 459 001e 30E0     		b	.L37
 460              	.L48:
  72:Core/Src/main.c ****          if(button1_clicks%5==2)SET_BIT(GPIOB->BSRR, GPIO_BSRR_BS7);
 461              		.loc 1 72 33 discriminator 1 view .LVU103
 462 0020 3149     		ldr	r1, .L51+4
 463 0022 8A69     		ldr	r2, [r1, #24]
 464 0024 42F08002 		orr	r2, r2, #128
 465 0028 8A61     		str	r2, [r1, #24]
 466 002a 2CE0     		b	.L38
 467              	.L49:
  73:Core/Src/main.c ****          if(button1_clicks%5==3)SET_BIT(GPIOB->BSRR, GPIO_BSRR_BS14);
 468              		.loc 1 73 33 discriminator 1 view .LVU104
 469 002c 2E49     		ldr	r1, .L51+4
 470 002e 8A69     		ldr	r2, [r1, #24]
 471 0030 42F48042 		orr	r2, r2, #16384
 472 0034 8A61     		str	r2, [r1, #24]
 473 0036 28E0     		b	.L39
 474              	.L50:
  74:Core/Src/main.c ****          if(button1_clicks%5==4)SET_BIT(GPIOB->BSRR, GPIO_BSRR_BS12);
 475              		.loc 1 74 33 discriminator 1 view .LVU105
ARM GAS  C:\Users\kseni\AppData\Local\Temp\ccbjzSK7.s 			page 11


 476 0038 2B49     		ldr	r1, .L51+4
 477 003a 8A69     		ldr	r2, [r1, #24]
 478 003c 42F48052 		orr	r2, r2, #4096
 479 0040 8A61     		str	r2, [r1, #24]
 480 0042 24E0     		b	.L40
 481              	.L35:
  75:Core/Src/main.c ****          if(button1_clicks%5==0){
  76:Core/Src/main.c ****             SET_BIT(GPIOB->BSRR, GPIO_BSRR_BR0);
  77:Core/Src/main.c ****             SET_BIT(GPIOB->BSRR, GPIO_BSRR_BR7);
  78:Core/Src/main.c ****             SET_BIT(GPIOB->BSRR, GPIO_BSRR_BR14);
  79:Core/Src/main.c ****             SET_BIT(GPIOB->BSRR, GPIO_BSRR_BR12);
  80:Core/Src/main.c ****          }
  81:Core/Src/main.c ****       }
  82:Core/Src/main.c ****       if(alternative==1){
 482              		.loc 1 82 7 view .LVU106
 483              		.loc 1 82 21 is_stmt 0 view .LVU107
 484 0044 294B     		ldr	r3, .L51+8
 485 0046 1B78     		ldrb	r3, [r3]	@ zero_extendqisi2
 486              		.loc 1 82 9 view .LVU108
 487 0048 012B     		cmp	r3, #1
 488 004a 37D0     		beq	.L45
 489              	.L41:
  62:Core/Src/main.c ****       check_alternative();
 490              		.loc 1 62 4 is_stmt 1 view .LVU109
  63:Core/Src/main.c ****       if(alternative==0){
 491              		.loc 1 63 7 view .LVU110
 492 004c FFF7FEFF 		bl	check_alternative
 493              	.LVL16:
  64:Core/Src/main.c ****          if(port_C8_state==0){
 494              		.loc 1 64 7 view .LVU111
  64:Core/Src/main.c ****          if(port_C8_state==0){
 495              		.loc 1 64 21 is_stmt 0 view .LVU112
 496 0050 264B     		ldr	r3, .L51+8
 497 0052 1B78     		ldrb	r3, [r3]	@ zero_extendqisi2
  64:Core/Src/main.c ****          if(port_C8_state==0){
 498              		.loc 1 64 9 view .LVU113
 499 0054 002B     		cmp	r3, #0
 500 0056 F5D1     		bne	.L35
  65:Core/Src/main.c ****             reconfigure_pin_C8_to_in();
 501              		.loc 1 65 10 is_stmt 1 view .LVU114
  65:Core/Src/main.c ****             reconfigure_pin_C8_to_in();
 502              		.loc 1 65 26 is_stmt 0 view .LVU115
 503 0058 224B     		ldr	r3, .L51
 504 005a 1B78     		ldrb	r3, [r3]	@ zero_extendqisi2
  65:Core/Src/main.c ****             reconfigure_pin_C8_to_in();
 505              		.loc 1 65 12 view .LVU116
 506 005c 002B     		cmp	r3, #0
 507 005e D3D0     		beq	.L46
 508              	.L36:
  69:Core/Src/main.c ****          check_button_state_2();
 509              		.loc 1 69 10 is_stmt 1 view .LVU117
 510 0060 FFF7FEFF 		bl	check_button_state_1
 511              	.LVL17:
  70:Core/Src/main.c ****          if(button1_clicks%5==1)SET_BIT(GPIOB->BSRR, GPIO_BSRR_BS0);
 512              		.loc 1 70 10 view .LVU118
 513 0064 FFF7FEFF 		bl	check_button_state_2
 514              	.LVL18:
ARM GAS  C:\Users\kseni\AppData\Local\Temp\ccbjzSK7.s 			page 12


  71:Core/Src/main.c ****          if(button1_clicks%5==2)SET_BIT(GPIOB->BSRR, GPIO_BSRR_BS7);
 515              		.loc 1 71 10 view .LVU119
  71:Core/Src/main.c ****          if(button1_clicks%5==2)SET_BIT(GPIOB->BSRR, GPIO_BSRR_BS7);
 516              		.loc 1 71 29 is_stmt 0 view .LVU120
 517 0068 214B     		ldr	r3, .L51+12
 518 006a 1B78     		ldrb	r3, [r3]	@ zero_extendqisi2
 519 006c 214A     		ldr	r2, .L51+16
 520 006e A2FB0312 		umull	r1, r2, r2, r3
 521 0072 02F0FC01 		and	r1, r2, #252
 522 0076 01EB9202 		add	r2, r1, r2, lsr #2
 523 007a 9B1A     		subs	r3, r3, r2
 524 007c DBB2     		uxtb	r3, r3
  71:Core/Src/main.c ****          if(button1_clicks%5==2)SET_BIT(GPIOB->BSRR, GPIO_BSRR_BS7);
 525              		.loc 1 71 12 view .LVU121
 526 007e 012B     		cmp	r3, #1
 527 0080 C8D0     		beq	.L47
 528              	.L37:
  72:Core/Src/main.c ****          if(button1_clicks%5==3)SET_BIT(GPIOB->BSRR, GPIO_BSRR_BS14);
 529              		.loc 1 72 10 is_stmt 1 view .LVU122
  72:Core/Src/main.c ****          if(button1_clicks%5==3)SET_BIT(GPIOB->BSRR, GPIO_BSRR_BS14);
 530              		.loc 1 72 12 is_stmt 0 view .LVU123
 531 0082 022B     		cmp	r3, #2
 532 0084 CCD0     		beq	.L48
 533              	.L38:
  73:Core/Src/main.c ****          if(button1_clicks%5==4)SET_BIT(GPIOB->BSRR, GPIO_BSRR_BS12);
 534              		.loc 1 73 10 is_stmt 1 view .LVU124
  73:Core/Src/main.c ****          if(button1_clicks%5==4)SET_BIT(GPIOB->BSRR, GPIO_BSRR_BS12);
 535              		.loc 1 73 12 is_stmt 0 view .LVU125
 536 0086 032B     		cmp	r3, #3
 537 0088 D0D0     		beq	.L49
 538              	.L39:
  74:Core/Src/main.c ****          if(button1_clicks%5==0){
 539              		.loc 1 74 10 is_stmt 1 view .LVU126
  74:Core/Src/main.c ****          if(button1_clicks%5==0){
 540              		.loc 1 74 12 is_stmt 0 view .LVU127
 541 008a 042B     		cmp	r3, #4
 542 008c D4D0     		beq	.L50
 543              	.L40:
  75:Core/Src/main.c ****             SET_BIT(GPIOB->BSRR, GPIO_BSRR_BR0);
 544              		.loc 1 75 10 is_stmt 1 view .LVU128
  75:Core/Src/main.c ****             SET_BIT(GPIOB->BSRR, GPIO_BSRR_BR0);
 545              		.loc 1 75 12 is_stmt 0 view .LVU129
 546 008e 002B     		cmp	r3, #0
 547 0090 D8D1     		bne	.L35
  76:Core/Src/main.c ****             SET_BIT(GPIOB->BSRR, GPIO_BSRR_BR7);
 548              		.loc 1 76 13 is_stmt 1 view .LVU130
 549 0092 03F18043 		add	r3, r3, #1073741824
 550 0096 03F50133 		add	r3, r3, #132096
 551 009a 9A69     		ldr	r2, [r3, #24]
 552 009c 42F48032 		orr	r2, r2, #65536
 553 00a0 9A61     		str	r2, [r3, #24]
  77:Core/Src/main.c ****             SET_BIT(GPIOB->BSRR, GPIO_BSRR_BR14);
 554              		.loc 1 77 13 view .LVU131
 555 00a2 9A69     		ldr	r2, [r3, #24]
 556 00a4 42F40002 		orr	r2, r2, #8388608
 557 00a8 9A61     		str	r2, [r3, #24]
  78:Core/Src/main.c ****             SET_BIT(GPIOB->BSRR, GPIO_BSRR_BR12);
ARM GAS  C:\Users\kseni\AppData\Local\Temp\ccbjzSK7.s 			page 13


 558              		.loc 1 78 13 view .LVU132
 559 00aa 9A69     		ldr	r2, [r3, #24]
 560 00ac 42F08042 		orr	r2, r2, #1073741824
 561 00b0 9A61     		str	r2, [r3, #24]
  79:Core/Src/main.c ****          }
 562              		.loc 1 79 13 view .LVU133
 563 00b2 9A69     		ldr	r2, [r3, #24]
 564 00b4 42F08052 		orr	r2, r2, #268435456
 565 00b8 9A61     		str	r2, [r3, #24]
 566 00ba C3E7     		b	.L35
 567              	.L45:
  83:Core/Src/main.c ****          if(port_C8_state==1){
 568              		.loc 1 83 10 view .LVU134
 569              		.loc 1 83 26 is_stmt 0 view .LVU135
 570 00bc 094B     		ldr	r3, .L51
 571 00be 1B78     		ldrb	r3, [r3]	@ zero_extendqisi2
 572              		.loc 1 83 12 view .LVU136
 573 00c0 012B     		cmp	r3, #1
 574 00c2 0CD1     		bne	.L42
  84:Core/Src/main.c ****             reconfigure_pin_C8_to_out();
 575              		.loc 1 84 13 is_stmt 1 view .LVU137
 576 00c4 FFF7FEFF 		bl	reconfigure_pin_C8_to_out
 577              	.LVL19:
  85:Core/Src/main.c ****             port_C8_state=0;
 578              		.loc 1 85 13 view .LVU138
 579              		.loc 1 85 26 is_stmt 0 view .LVU139
 580 00c8 064B     		ldr	r3, .L51
 581 00ca 0022     		movs	r2, #0
 582 00cc 1A70     		strb	r2, [r3]
  86:Core/Src/main.c ****             SET_BIT(GPIOC->BSRR, GPIO_BSRR_BS8);
 583              		.loc 1 86 13 is_stmt 1 view .LVU140
 584 00ce 02F18042 		add	r2, r2, #1073741824
 585 00d2 02F50232 		add	r2, r2, #133120
 586 00d6 9369     		ldr	r3, [r2, #24]
 587 00d8 43F48073 		orr	r3, r3, #256
 588 00dc 9361     		str	r3, [r2, #24]
 589              	.L42:
  87:Core/Src/main.c ****          }
  88:Core/Src/main.c ****          check_button_state_2();
 590              		.loc 1 88 10 view .LVU141
 591 00de FFF7FEFF 		bl	check_button_state_2
 592              	.LVL20:
 593 00e2 B3E7     		b	.L41
 594              	.L52:
 595              		.align	2
 596              	.L51:
 597 00e4 00000000 		.word	port_C8_state
 598 00e8 00040240 		.word	1073873920
 599 00ec 00000000 		.word	alternative
 600 00f0 00000000 		.word	button1_clicks
 601 00f4 CDCCCCCC 		.word	-858993459
 602              		.cfi_endproc
 603              	.LFE135:
 605              		.global	port_C8_state
 606              		.section	.bss.port_C8_state,"aw",%nobits
 609              	port_C8_state:
 610 0000 00       		.space	1
ARM GAS  C:\Users\kseni\AppData\Local\Temp\ccbjzSK7.s 			page 14


 611              		.global	alternative
 612              		.section	.bss.alternative,"aw",%nobits
 615              	alternative:
 616 0000 00       		.space	1
 617              		.global	led_num
 618              		.section	.bss.led_num,"aw",%nobits
 621              	led_num:
 622 0000 00       		.space	1
 623              		.global	led_state
 624              		.section	.bss.led_state,"aw",%nobits
 627              	led_state:
 628 0000 00       		.space	1
 629              		.global	button2_clicks
 630              		.section	.bss.button2_clicks,"aw",%nobits
 633              	button2_clicks:
 634 0000 00       		.space	1
 635              		.global	button1_clicks
 636              		.section	.bss.button1_clicks,"aw",%nobits
 639              	button1_clicks:
 640 0000 00       		.space	1
 641              		.global	button_state_2
 642              		.section	.bss.button_state_2,"aw",%nobits
 645              	button_state_2:
 646 0000 00       		.space	1
 647              		.global	button_state_1
 648              		.section	.bss.button_state_1,"aw",%nobits
 651              	button_state_1:
 652 0000 00       		.space	1
 653              		.text
 654              	.Letext0:
 655              		.file 2 "C:/tools/GCC/arm-none-eabi/include/machine/_default_types.h"
 656              		.file 3 "C:/tools/GCC/arm-none-eabi/include/sys/_stdint.h"
 657              		.file 4 "Core/Inc/../Inc/../../CMSIS/Devices/stm32f429xx.h"
 658              		.file 5 "Core/Inc/../Inc/init.h"
ARM GAS  C:\Users\kseni\AppData\Local\Temp\ccbjzSK7.s 			page 15


DEFINED SYMBOLS
                            *ABS*:00000000 main.c
C:\Users\kseni\AppData\Local\Temp\ccbjzSK7.s:19     .text.check_button_state_1:00000000 $t
C:\Users\kseni\AppData\Local\Temp\ccbjzSK7.s:25     .text.check_button_state_1:00000000 check_button_state_1
C:\Users\kseni\AppData\Local\Temp\ccbjzSK7.s:126    .text.check_button_state_1:00000060 $d
C:\Users\kseni\AppData\Local\Temp\ccbjzSK7.s:651    .bss.button_state_1:00000000 button_state_1
C:\Users\kseni\AppData\Local\Temp\ccbjzSK7.s:639    .bss.button1_clicks:00000000 button1_clicks
C:\Users\kseni\AppData\Local\Temp\ccbjzSK7.s:135    .text.check_button_state_2:00000000 $t
C:\Users\kseni\AppData\Local\Temp\ccbjzSK7.s:141    .text.check_button_state_2:00000000 check_button_state_2
C:\Users\kseni\AppData\Local\Temp\ccbjzSK7.s:242    .text.check_button_state_2:00000060 $d
C:\Users\kseni\AppData\Local\Temp\ccbjzSK7.s:645    .bss.button_state_2:00000000 button_state_2
C:\Users\kseni\AppData\Local\Temp\ccbjzSK7.s:633    .bss.button2_clicks:00000000 button2_clicks
C:\Users\kseni\AppData\Local\Temp\ccbjzSK7.s:251    .text.check_alternative:00000000 $t
C:\Users\kseni\AppData\Local\Temp\ccbjzSK7.s:257    .text.check_alternative:00000000 check_alternative
C:\Users\kseni\AppData\Local\Temp\ccbjzSK7.s:334    .text.check_alternative:00000060 $d
C:\Users\kseni\AppData\Local\Temp\ccbjzSK7.s:615    .bss.alternative:00000000 alternative
C:\Users\kseni\AppData\Local\Temp\ccbjzSK7.s:341    .text.reconfigure_pin_C8_to_in:00000000 $t
C:\Users\kseni\AppData\Local\Temp\ccbjzSK7.s:347    .text.reconfigure_pin_C8_to_in:00000000 reconfigure_pin_C8_to_in
C:\Users\kseni\AppData\Local\Temp\ccbjzSK7.s:376    .text.reconfigure_pin_C8_to_in:00000024 $d
C:\Users\kseni\AppData\Local\Temp\ccbjzSK7.s:381    .text.reconfigure_pin_C8_to_out:00000000 $t
C:\Users\kseni\AppData\Local\Temp\ccbjzSK7.s:387    .text.reconfigure_pin_C8_to_out:00000000 reconfigure_pin_C8_to_out
C:\Users\kseni\AppData\Local\Temp\ccbjzSK7.s:416    .text.reconfigure_pin_C8_to_out:00000024 $d
C:\Users\kseni\AppData\Local\Temp\ccbjzSK7.s:421    .text.main:00000000 $t
C:\Users\kseni\AppData\Local\Temp\ccbjzSK7.s:427    .text.main:00000000 main
C:\Users\kseni\AppData\Local\Temp\ccbjzSK7.s:597    .text.main:000000e4 $d
C:\Users\kseni\AppData\Local\Temp\ccbjzSK7.s:609    .bss.port_C8_state:00000000 port_C8_state
C:\Users\kseni\AppData\Local\Temp\ccbjzSK7.s:610    .bss.port_C8_state:00000000 $d
C:\Users\kseni\AppData\Local\Temp\ccbjzSK7.s:616    .bss.alternative:00000000 $d
C:\Users\kseni\AppData\Local\Temp\ccbjzSK7.s:621    .bss.led_num:00000000 led_num
C:\Users\kseni\AppData\Local\Temp\ccbjzSK7.s:622    .bss.led_num:00000000 $d
C:\Users\kseni\AppData\Local\Temp\ccbjzSK7.s:627    .bss.led_state:00000000 led_state
C:\Users\kseni\AppData\Local\Temp\ccbjzSK7.s:628    .bss.led_state:00000000 $d
C:\Users\kseni\AppData\Local\Temp\ccbjzSK7.s:634    .bss.button2_clicks:00000000 $d
C:\Users\kseni\AppData\Local\Temp\ccbjzSK7.s:640    .bss.button1_clicks:00000000 $d
C:\Users\kseni\AppData\Local\Temp\ccbjzSK7.s:646    .bss.button_state_2:00000000 $d
C:\Users\kseni\AppData\Local\Temp\ccbjzSK7.s:652    .bss.button_state_1:00000000 $d

UNDEFINED SYMBOLS
GPIO_Init_Self_Def
