ARM GAS  C:\Users\∑∂\AppData\Local\Temp\ccLwiZqD.s 			page 1


   1              		.cpu cortex-m4
   2              		.arch armv7e-m
   3              		.fpu fpv4-sp-d16
   4              		.eabi_attribute 27, 1
   5              		.eabi_attribute 28, 1
   6              		.eabi_attribute 20, 1
   7              		.eabi_attribute 21, 1
   8              		.eabi_attribute 23, 3
   9              		.eabi_attribute 24, 1
  10              		.eabi_attribute 25, 1
  11              		.eabi_attribute 26, 1
  12              		.eabi_attribute 30, 1
  13              		.eabi_attribute 34, 1
  14              		.eabi_attribute 18, 4
  15              		.file	"main.c"
  16              		.text
  17              	.Ltext0:
  18              		.cfi_sections	.debug_frame
  19              		.file 1 "Core/Src/main.c"
  20              		.section	.text.turnOnLed,"ax",%progbits
  21              		.align	1
  22              		.syntax unified
  23              		.thumb
  24              		.thumb_func
  26              	turnOnLed:
  27              	.LVL0:
  28              	.LFB130:
   1:Core/Src/main.c **** #include "init.h"
   2:Core/Src/main.c **** 
   3:Core/Src/main.c **** static void turnOnLed(uint8_t pin)
   4:Core/Src/main.c **** {
  29              		.loc 1 4 1 view -0
  30              		.cfi_startproc
  31              		@ args = 0, pretend = 0, frame = 0
  32              		@ frame_needed = 0, uses_anonymous_args = 0
  33              		@ link register save eliminated.
   5:Core/Src/main.c ****     // ÈÄöËøáBSRRÁöÑÁΩÆ‰ΩçÊÆµ(‰Ωé16‰Ωç)ÂÜô1Âç≥ÂèØ
   6:Core/Src/main.c ****     GPIOB->BSRR = (1 << pin);
  34              		.loc 1 6 5 view .LVU1
  35              		.loc 1 6 22 is_stmt 0 view .LVU2
  36 0000 0123     		movs	r3, #1
  37 0002 8340     		lsls	r3, r3, r0
  38              		.loc 1 6 17 view .LVU3
  39 0004 014A     		ldr	r2, .L2
  40 0006 9361     		str	r3, [r2, #24]
   7:Core/Src/main.c **** }
  41              		.loc 1 7 1 view .LVU4
  42 0008 7047     		bx	lr
  43              	.L3:
  44 000a 00BF     		.align	2
  45              	.L2:
  46 000c 00040240 		.word	1073873920
  47              		.cfi_endproc
  48              	.LFE130:
  50              		.section	.text.turnOffLed,"ax",%progbits
  51              		.align	1
  52              		.syntax unified
ARM GAS  C:\Users\∑∂\AppData\Local\Temp\ccLwiZqD.s 			page 2


  53              		.thumb
  54              		.thumb_func
  56              	turnOffLed:
  57              	.LVL1:
  58              	.LFB131:
   8:Core/Src/main.c **** 
   9:Core/Src/main.c **** static void turnOffLed(uint8_t pin)
  10:Core/Src/main.c **** {
  59              		.loc 1 10 1 is_stmt 1 view -0
  60              		.cfi_startproc
  61              		@ args = 0, pretend = 0, frame = 0
  62              		@ frame_needed = 0, uses_anonymous_args = 0
  63              		@ link register save eliminated.
  11:Core/Src/main.c ****     // ÈÄöËøáBSRRÁöÑÂ§ç‰ΩçÊÆµ(È´ò16‰Ωç)ÂÜô1Âç≥ÂèØ
  12:Core/Src/main.c ****     GPIOB->BSRR = (1 << (pin + 16));
  64              		.loc 1 12 5 view .LVU6
  65              		.loc 1 12 30 is_stmt 0 view .LVU7
  66 0000 1030     		adds	r0, r0, #16
  67              	.LVL2:
  68              		.loc 1 12 22 view .LVU8
  69 0002 0123     		movs	r3, #1
  70 0004 8340     		lsls	r3, r3, r0
  71              		.loc 1 12 17 view .LVU9
  72 0006 014A     		ldr	r2, .L5
  73 0008 9361     		str	r3, [r2, #24]
  13:Core/Src/main.c **** }
  74              		.loc 1 13 1 view .LVU10
  75 000a 7047     		bx	lr
  76              	.L6:
  77              		.align	2
  78              	.L5:
  79 000c 00040240 		.word	1073873920
  80              		.cfi_endproc
  81              	.LFE131:
  83              		.section	.text.isButtonPressed,"ax",%progbits
  84              		.align	1
  85              		.syntax unified
  86              		.thumb
  87              		.thumb_func
  89              	isButtonPressed:
  90              	.LVL3:
  91              	.LFB132:
  14:Core/Src/main.c **** 
  15:Core/Src/main.c **** static uint8_t isButtonPressed(uint8_t pin)
  16:Core/Src/main.c **** {
  92              		.loc 1 16 1 is_stmt 1 view -0
  93              		.cfi_startproc
  94              		@ args = 0, pretend = 0, frame = 0
  95              		@ frame_needed = 0, uses_anonymous_args = 0
  96              		@ link register save eliminated.
  17:Core/Src/main.c ****     // Êåâ‰∏ã=0 (Âõ†‰∏∫ÂÜÖÈÉ®‰∏äÊãâ)
  18:Core/Src/main.c ****     return ( (GPIOC->IDR & (1 << pin)) == 0 );
  97              		.loc 1 18 5 view .LVU12
  98              		.loc 1 18 20 is_stmt 0 view .LVU13
  99 0000 044B     		ldr	r3, .L8
 100 0002 1A69     		ldr	r2, [r3, #16]
 101              		.loc 1 18 31 view .LVU14
ARM GAS  C:\Users\∑∂\AppData\Local\Temp\ccLwiZqD.s 			page 3


 102 0004 0123     		movs	r3, #1
 103 0006 8340     		lsls	r3, r3, r0
 104              		.loc 1 18 40 view .LVU15
 105 0008 1A42     		tst	r2, r3
  19:Core/Src/main.c **** }
 106              		.loc 1 19 1 view .LVU16
 107 000a 0CBF     		ite	eq
 108 000c 0120     		moveq	r0, #1
 109              	.LVL4:
 110              		.loc 1 19 1 view .LVU17
 111 000e 0020     		movne	r0, #0
 112 0010 7047     		bx	lr
 113              	.L9:
 114 0012 00BF     		.align	2
 115              	.L8:
 116 0014 00080240 		.word	1073874944
 117              		.cfi_endproc
 118              	.LFE132:
 120              		.section	.text.main,"ax",%progbits
 121              		.align	1
 122              		.global	main
 123              		.syntax unified
 124              		.thumb
 125              		.thumb_func
 127              	main:
 128              	.LFB133:
  20:Core/Src/main.c **** 
  21:Core/Src/main.c **** int main(void)
  22:Core/Src/main.c **** {
 129              		.loc 1 22 1 is_stmt 1 view -0
 130              		.cfi_startproc
 131              		@ args = 0, pretend = 0, frame = 0
 132              		@ frame_needed = 0, uses_anonymous_args = 0
 133 0000 10B5     		push	{r4, lr}
 134              	.LCFI0:
 135              		.cfi_def_cfa_offset 8
 136              		.cfi_offset 4, -8
 137              		.cfi_offset 14, -4
  23:Core/Src/main.c ****     // ÂàùÂßãÂåñÊó∂Èíü„ÄÅGPIOÁ≠â
  24:Core/Src/main.c ****     GPIO_Init();
 138              		.loc 1 24 5 view .LVU19
 139 0002 FFF7FEFF 		bl	GPIO_Init
 140              	.LVL5:
  25:Core/Src/main.c ****     
  26:Core/Src/main.c ****     // Ê®°ÂºèÂèòÈáè
  27:Core/Src/main.c ****     uint8_t mode = 1;  // ÈªòËÆ§Ê®°Âºè1
 141              		.loc 1 27 5 view .LVU20
 142              		.loc 1 27 13 is_stmt 0 view .LVU21
 143 0006 0124     		movs	r4, #1
 144 0008 38E0     		b	.L25
 145              	.LVL6:
 146              	.L28:
  28:Core/Src/main.c ****     
  29:Core/Src/main.c ****     while(1)
  30:Core/Src/main.c ****     {
  31:Core/Src/main.c ****         // ========== 1. Ê£ÄÊµãÊ®°ÂºèÂàáÊç¢ÊåâÈîÆ (PC12) ==========
  32:Core/Src/main.c ****         if(isButtonPressed(BTN_MODE_PIN))
ARM GAS  C:\Users\∑∂\AppData\Local\Temp\ccLwiZqD.s 			page 4


  33:Core/Src/main.c ****         {
  34:Core/Src/main.c ****             // ÁÆÄÊòìÈò≤ÊäñÔºöÁ≠âÂæÖÊùæÂºÄ
  35:Core/Src/main.c ****             delay_ms(20);
 147              		.loc 1 35 13 is_stmt 1 view .LVU22
 148 000a 1420     		movs	r0, #20
 149 000c FFF7FEFF 		bl	delay_ms
 150              	.LVL7:
  36:Core/Src/main.c ****             if(isButtonPressed(BTN_MODE_PIN))
 151              		.loc 1 36 13 view .LVU23
 152              		.loc 1 36 16 is_stmt 0 view .LVU24
 153 0010 0C20     		movs	r0, #12
 154 0012 FFF7FEFF 		bl	isButtonPressed
 155              	.LVL8:
 156              		.loc 1 36 15 discriminator 1 view .LVU25
 157 0016 B0B3     		cbz	r0, .L11
 158              	.L12:
  37:Core/Src/main.c ****             {
  38:Core/Src/main.c ****                 // Á≠âÊåâÈîÆÊùæÂºÄÂÜçËØ¥
  39:Core/Src/main.c ****                 while(isButtonPressed(BTN_MODE_PIN)) { /*Á©∫Á≠â*/ }
 159              		.loc 1 39 67 is_stmt 1 discriminator 1 view .LVU26
 160              		.loc 1 39 23 discriminator 1 view .LVU27
 161 0018 0C20     		movs	r0, #12
 162 001a FFF7FEFF 		bl	isButtonPressed
 163              	.LVL9:
 164 001e 0028     		cmp	r0, #0
 165 0020 FAD1     		bne	.L12
  40:Core/Src/main.c ****                 
  41:Core/Src/main.c ****                 // ÂàáÊç¢Ê®°Âºè
  42:Core/Src/main.c ****                 mode++;
 166              		.loc 1 42 17 view .LVU28
 167              		.loc 1 42 21 is_stmt 0 view .LVU29
 168 0022 0134     		adds	r4, r4, #1
 169              	.LVL10:
 170              		.loc 1 42 21 view .LVU30
 171 0024 E4B2     		uxtb	r4, r4
 172              	.LVL11:
  43:Core/Src/main.c ****                 if(mode > 3) mode = 1;
 173              		.loc 1 43 17 is_stmt 1 view .LVU31
 174              		.loc 1 43 19 is_stmt 0 view .LVU32
 175 0026 032C     		cmp	r4, #3
 176 0028 2DD9     		bls	.L11
 177              		.loc 1 43 35 discriminator 1 view .LVU33
 178 002a 0124     		movs	r4, #1
 179              	.LVL12:
 180              		.loc 1 43 35 discriminator 1 view .LVU34
 181 002c 2BE0     		b	.L11
 182              	.LVL13:
 183              	.L29:
  44:Core/Src/main.c ****             }
  45:Core/Src/main.c ****         }
  46:Core/Src/main.c ****         
  47:Core/Src/main.c ****         // ========== 2. Ê†πÊçÆmodeÁÇπ‰∫ÆÁõ∏Â∫îÁöÑÊ®°ÂºèÊåáÁ§∫ÁÅØ ==========
  48:Core/Src/main.c ****         // ÂÖàÂÖ®ÁÅ≠
  49:Core/Src/main.c ****         turnOffLed(LED_MODE1_PIN);
  50:Core/Src/main.c ****         turnOffLed(LED_MODE2_PIN);
  51:Core/Src/main.c ****         turnOffLed(LED_MODE3_PIN);
  52:Core/Src/main.c ****         
ARM GAS  C:\Users\∑∂\AppData\Local\Temp\ccLwiZqD.s 			page 5


  53:Core/Src/main.c ****         // ÂÜç‰∫ÆÂΩìÂâç
  54:Core/Src/main.c ****         if(mode == 1) turnOnLed(LED_MODE1_PIN);
 184              		.loc 1 54 23 is_stmt 1 discriminator 1 view .LVU35
 185 002e 0120     		movs	r0, #1
 186 0030 FFF7FEFF 		bl	turnOnLed
 187              	.LVL14:
 188 0034 36E0     		b	.L14
 189              	.L30:
  55:Core/Src/main.c ****         else if(mode == 2) turnOnLed(LED_MODE2_PIN);
 190              		.loc 1 55 28 discriminator 1 view .LVU36
 191 0036 0220     		movs	r0, #2
 192 0038 FFF7FEFF 		bl	turnOnLed
 193              	.LVL15:
 194 003c 32E0     		b	.L14
 195              	.L31:
  56:Core/Src/main.c ****         else if(mode == 3) turnOnLed(LED_MODE3_PIN);
 196              		.loc 1 56 28 discriminator 1 view .LVU37
 197 003e 0620     		movs	r0, #6
 198 0040 FFF7FEFF 		bl	turnOnLed
 199              	.LVL16:
 200 0044 2EE0     		b	.L14
 201              	.L17:
  57:Core/Src/main.c ****         
  58:Core/Src/main.c ****         // ========== 3. Â§ÑÁêÜ‰∏â‰∏™‚ÄúÈ¢úËâ≤ÊéßÂà∂‚ÄùÊåâÈîÆ (PC8/9/10) ==========
  59:Core/Src/main.c ****         // ÂÖàÊää‰∏âËâ≤LEDÂÖ®ÁÅ≠
  60:Core/Src/main.c ****         turnOffLed(LED_GREEN_PIN);
  61:Core/Src/main.c ****         turnOffLed(LED_BLUE_PIN);
  62:Core/Src/main.c ****         turnOffLed(LED_RED_PIN);
  63:Core/Src/main.c ****         
  64:Core/Src/main.c ****         // Button1 => PC8
  65:Core/Src/main.c ****         if(isButtonPressed(BTN1_PIN))
  66:Core/Src/main.c ****         {
  67:Core/Src/main.c ****             switch(mode)
  68:Core/Src/main.c ****             {
  69:Core/Src/main.c ****                 case 1: turnOnLed(LED_GREEN_PIN); break;
  70:Core/Src/main.c ****                 case 2: turnOnLed(LED_RED_PIN);   break;
 202              		.loc 1 70 25 view .LVU38
 203 0046 0E20     		movs	r0, #14
 204 0048 FFF7FEFF 		bl	turnOnLed
 205              	.LVL17:
 206              		.loc 1 70 51 discriminator 1 view .LVU39
 207              		.loc 1 70 51 is_stmt 0 view .LVU40
 208 004c 40E0     		b	.L16
 209              	.L18:
  71:Core/Src/main.c ****                 case 3: turnOnLed(LED_BLUE_PIN);  break;
 210              		.loc 1 71 25 is_stmt 1 view .LVU41
 211 004e 0720     		movs	r0, #7
 212 0050 FFF7FEFF 		bl	turnOnLed
 213              	.LVL18:
 214              		.loc 1 71 51 discriminator 1 view .LVU42
 215              		.loc 1 71 51 is_stmt 0 view .LVU43
 216 0054 3CE0     		b	.L16
 217              	.L32:
  72:Core/Src/main.c ****             }
  73:Core/Src/main.c ****         }
  74:Core/Src/main.c ****         
  75:Core/Src/main.c ****         // Button2 => PC9
ARM GAS  C:\Users\∑∂\AppData\Local\Temp\ccLwiZqD.s 			page 6


  76:Core/Src/main.c ****         if(isButtonPressed(BTN2_PIN))
  77:Core/Src/main.c ****         {
  78:Core/Src/main.c ****             switch(mode)
  79:Core/Src/main.c ****             {
  80:Core/Src/main.c ****                 case 1: turnOnLed(LED_BLUE_PIN);  break;
 218              		.loc 1 80 25 is_stmt 1 view .LVU44
 219 0056 0720     		movs	r0, #7
 220 0058 FFF7FEFF 		bl	turnOnLed
 221              	.LVL19:
 222              		.loc 1 80 51 discriminator 1 view .LVU45
 223              	.L19:
  81:Core/Src/main.c ****                 case 2: turnOnLed(LED_GREEN_PIN); break;
  82:Core/Src/main.c ****                 case 3: turnOnLed(LED_RED_PIN);   break;
  83:Core/Src/main.c ****             }
  84:Core/Src/main.c ****         }
  85:Core/Src/main.c ****         
  86:Core/Src/main.c ****         // Button3 => PC10
  87:Core/Src/main.c ****         if(isButtonPressed(BTN3_PIN))
 224              		.loc 1 87 9 view .LVU46
 225              		.loc 1 87 12 is_stmt 0 view .LVU47
 226 005c 0A20     		movs	r0, #10
 227 005e FFF7FEFF 		bl	isButtonPressed
 228              	.LVL20:
 229              		.loc 1 87 11 discriminator 1 view .LVU48
 230 0062 40B1     		cbz	r0, .L22
  88:Core/Src/main.c ****         {
  89:Core/Src/main.c ****             switch(mode)
 231              		.loc 1 89 13 is_stmt 1 view .LVU49
 232 0064 022C     		cmp	r4, #2
 233 0066 47D0     		beq	.L23
 234 0068 032C     		cmp	r4, #3
 235 006a 49D0     		beq	.L24
 236 006c 012C     		cmp	r4, #1
 237 006e 02D1     		bne	.L22
  90:Core/Src/main.c ****             {
  91:Core/Src/main.c ****                 case 1: turnOnLed(LED_RED_PIN);    break;
 238              		.loc 1 91 25 view .LVU50
 239 0070 0E20     		movs	r0, #14
 240 0072 FFF7FEFF 		bl	turnOnLed
 241              	.LVL21:
 242              		.loc 1 91 52 discriminator 1 view .LVU51
 243              	.L22:
  92:Core/Src/main.c ****                 case 2: turnOnLed(LED_BLUE_PIN);   break;
  93:Core/Src/main.c ****                 case 3: turnOnLed(LED_GREEN_PIN);  break;
  94:Core/Src/main.c ****             }
  95:Core/Src/main.c ****         }
  96:Core/Src/main.c ****         
  97:Core/Src/main.c ****         // ÂÅö‰∏ÄÁÇπÂª∂Êó∂Ôºå‰ª•ÂÖçËΩÆËØ¢ËøáÂø´
  98:Core/Src/main.c ****         delay_ms(10);
 244              		.loc 1 98 9 view .LVU52
 245 0076 0A20     		movs	r0, #10
 246 0078 FFF7FEFF 		bl	delay_ms
 247              	.LVL22:
  29:Core/Src/main.c ****     {
 248              		.loc 1 29 10 view .LVU53
 249              	.L25:
  29:Core/Src/main.c ****     {
ARM GAS  C:\Users\∑∂\AppData\Local\Temp\ccLwiZqD.s 			page 7


 250              		.loc 1 29 5 view .LVU54
  32:Core/Src/main.c ****         {
 251              		.loc 1 32 9 view .LVU55
  32:Core/Src/main.c ****         {
 252              		.loc 1 32 12 is_stmt 0 view .LVU56
 253 007c 0C20     		movs	r0, #12
 254 007e FFF7FEFF 		bl	isButtonPressed
 255              	.LVL23:
  32:Core/Src/main.c ****         {
 256              		.loc 1 32 11 discriminator 1 view .LVU57
 257 0082 0028     		cmp	r0, #0
 258 0084 C1D1     		bne	.L28
 259              	.LVL24:
 260              	.L11:
  49:Core/Src/main.c ****         turnOffLed(LED_MODE2_PIN);
 261              		.loc 1 49 9 is_stmt 1 view .LVU58
 262 0086 0120     		movs	r0, #1
 263 0088 FFF7FEFF 		bl	turnOffLed
 264              	.LVL25:
  50:Core/Src/main.c ****         turnOffLed(LED_MODE3_PIN);
 265              		.loc 1 50 9 view .LVU59
 266 008c 0220     		movs	r0, #2
 267 008e FFF7FEFF 		bl	turnOffLed
 268              	.LVL26:
  51:Core/Src/main.c ****         
 269              		.loc 1 51 9 view .LVU60
 270 0092 0620     		movs	r0, #6
 271 0094 FFF7FEFF 		bl	turnOffLed
 272              	.LVL27:
  54:Core/Src/main.c ****         else if(mode == 2) turnOnLed(LED_MODE2_PIN);
 273              		.loc 1 54 9 view .LVU61
  54:Core/Src/main.c ****         else if(mode == 2) turnOnLed(LED_MODE2_PIN);
 274              		.loc 1 54 11 is_stmt 0 view .LVU62
 275 0098 012C     		cmp	r4, #1
 276 009a C8D0     		beq	.L29
  55:Core/Src/main.c ****         else if(mode == 3) turnOnLed(LED_MODE3_PIN);
 277              		.loc 1 55 14 is_stmt 1 view .LVU63
  55:Core/Src/main.c ****         else if(mode == 3) turnOnLed(LED_MODE3_PIN);
 278              		.loc 1 55 16 is_stmt 0 view .LVU64
 279 009c 022C     		cmp	r4, #2
 280 009e CAD0     		beq	.L30
  56:Core/Src/main.c ****         
 281              		.loc 1 56 14 is_stmt 1 view .LVU65
  56:Core/Src/main.c ****         
 282              		.loc 1 56 16 is_stmt 0 view .LVU66
 283 00a0 032C     		cmp	r4, #3
 284 00a2 CCD0     		beq	.L31
 285              	.L14:
  60:Core/Src/main.c ****         turnOffLed(LED_BLUE_PIN);
 286              		.loc 1 60 9 is_stmt 1 view .LVU67
 287 00a4 0020     		movs	r0, #0
 288 00a6 FFF7FEFF 		bl	turnOffLed
 289              	.LVL28:
  61:Core/Src/main.c ****         turnOffLed(LED_RED_PIN);
 290              		.loc 1 61 9 view .LVU68
 291 00aa 0720     		movs	r0, #7
 292 00ac FFF7FEFF 		bl	turnOffLed
ARM GAS  C:\Users\∑∂\AppData\Local\Temp\ccLwiZqD.s 			page 8


 293              	.LVL29:
  62:Core/Src/main.c ****         
 294              		.loc 1 62 9 view .LVU69
 295 00b0 0E20     		movs	r0, #14
 296 00b2 FFF7FEFF 		bl	turnOffLed
 297              	.LVL30:
  65:Core/Src/main.c ****         {
 298              		.loc 1 65 9 view .LVU70
  65:Core/Src/main.c ****         {
 299              		.loc 1 65 12 is_stmt 0 view .LVU71
 300 00b6 0820     		movs	r0, #8
 301 00b8 FFF7FEFF 		bl	isButtonPressed
 302              	.LVL31:
  65:Core/Src/main.c ****         {
 303              		.loc 1 65 11 discriminator 1 view .LVU72
 304 00bc 40B1     		cbz	r0, .L16
  67:Core/Src/main.c ****             {
 305              		.loc 1 67 13 is_stmt 1 view .LVU73
 306 00be 022C     		cmp	r4, #2
 307 00c0 C1D0     		beq	.L17
 308 00c2 032C     		cmp	r4, #3
 309 00c4 C3D0     		beq	.L18
 310 00c6 012C     		cmp	r4, #1
 311 00c8 02D1     		bne	.L16
  69:Core/Src/main.c ****                 case 2: turnOnLed(LED_RED_PIN);   break;
 312              		.loc 1 69 25 view .LVU74
 313 00ca 0020     		movs	r0, #0
 314 00cc FFF7FEFF 		bl	turnOnLed
 315              	.LVL32:
  69:Core/Src/main.c ****                 case 2: turnOnLed(LED_RED_PIN);   break;
 316              		.loc 1 69 51 discriminator 1 view .LVU75
 317              	.L16:
  76:Core/Src/main.c ****         {
 318              		.loc 1 76 9 view .LVU76
  76:Core/Src/main.c ****         {
 319              		.loc 1 76 12 is_stmt 0 view .LVU77
 320 00d0 0920     		movs	r0, #9
 321 00d2 FFF7FEFF 		bl	isButtonPressed
 322              	.LVL33:
  76:Core/Src/main.c ****         {
 323              		.loc 1 76 11 discriminator 1 view .LVU78
 324 00d6 0028     		cmp	r0, #0
 325 00d8 C0D0     		beq	.L19
  78:Core/Src/main.c ****             {
 326              		.loc 1 78 13 is_stmt 1 view .LVU79
 327 00da 022C     		cmp	r4, #2
 328 00dc 04D0     		beq	.L20
 329 00de 032C     		cmp	r4, #3
 330 00e0 06D0     		beq	.L21
 331 00e2 012C     		cmp	r4, #1
 332 00e4 BAD1     		bne	.L19
 333 00e6 B6E7     		b	.L32
 334              	.L20:
  81:Core/Src/main.c ****                 case 3: turnOnLed(LED_RED_PIN);   break;
 335              		.loc 1 81 25 view .LVU80
 336 00e8 0020     		movs	r0, #0
 337 00ea FFF7FEFF 		bl	turnOnLed
ARM GAS  C:\Users\∑∂\AppData\Local\Temp\ccLwiZqD.s 			page 9


 338              	.LVL34:
  81:Core/Src/main.c ****                 case 3: turnOnLed(LED_RED_PIN);   break;
 339              		.loc 1 81 51 discriminator 1 view .LVU81
  81:Core/Src/main.c ****                 case 3: turnOnLed(LED_RED_PIN);   break;
 340              		.loc 1 81 51 is_stmt 0 view .LVU82
 341 00ee B5E7     		b	.L19
 342              	.L21:
  82:Core/Src/main.c ****             }
 343              		.loc 1 82 25 is_stmt 1 view .LVU83
 344 00f0 0E20     		movs	r0, #14
 345 00f2 FFF7FEFF 		bl	turnOnLed
 346              	.LVL35:
  82:Core/Src/main.c ****             }
 347              		.loc 1 82 51 discriminator 1 view .LVU84
  82:Core/Src/main.c ****             }
 348              		.loc 1 82 51 is_stmt 0 view .LVU85
 349 00f6 B1E7     		b	.L19
 350              	.L23:
  92:Core/Src/main.c ****                 case 3: turnOnLed(LED_GREEN_PIN);  break;
 351              		.loc 1 92 25 is_stmt 1 view .LVU86
 352 00f8 0720     		movs	r0, #7
 353 00fa FFF7FEFF 		bl	turnOnLed
 354              	.LVL36:
  92:Core/Src/main.c ****                 case 3: turnOnLed(LED_GREEN_PIN);  break;
 355              		.loc 1 92 52 discriminator 1 view .LVU87
  92:Core/Src/main.c ****                 case 3: turnOnLed(LED_GREEN_PIN);  break;
 356              		.loc 1 92 52 is_stmt 0 view .LVU88
 357 00fe BAE7     		b	.L22
 358              	.L24:
  93:Core/Src/main.c ****             }
 359              		.loc 1 93 25 is_stmt 1 view .LVU89
 360 0100 0020     		movs	r0, #0
 361 0102 FFF7FEFF 		bl	turnOnLed
 362              	.LVL37:
  93:Core/Src/main.c ****             }
 363              		.loc 1 93 52 discriminator 1 view .LVU90
  93:Core/Src/main.c ****             }
 364              		.loc 1 93 52 is_stmt 0 view .LVU91
 365 0106 B6E7     		b	.L22
 366              		.cfi_endproc
 367              	.LFE133:
 369              		.text
 370              	.Letext0:
 371              		.file 2 "F:/STM32Tools/SysGCC/arm-none-eabi/include/machine/_default_types.h"
 372              		.file 3 "F:/STM32Tools/SysGCC/arm-none-eabi/include/sys/_stdint.h"
 373              		.file 4 "CMSIS/Devices/stm32f429xx.h"
 374              		.file 5 "Core/Inc/init.h"
ARM GAS  C:\Users\∑∂\AppData\Local\Temp\ccLwiZqD.s 			page 10


DEFINED SYMBOLS
                            *ABS*:00000000 main.c
C:\Users\∑∂\AppData\Local\Temp\ccLwiZqD.s:21     .text.turnOnLed:00000000 $t
C:\Users\∑∂\AppData\Local\Temp\ccLwiZqD.s:26     .text.turnOnLed:00000000 turnOnLed
C:\Users\∑∂\AppData\Local\Temp\ccLwiZqD.s:46     .text.turnOnLed:0000000c $d
C:\Users\∑∂\AppData\Local\Temp\ccLwiZqD.s:51     .text.turnOffLed:00000000 $t
C:\Users\∑∂\AppData\Local\Temp\ccLwiZqD.s:56     .text.turnOffLed:00000000 turnOffLed
C:\Users\∑∂\AppData\Local\Temp\ccLwiZqD.s:79     .text.turnOffLed:0000000c $d
C:\Users\∑∂\AppData\Local\Temp\ccLwiZqD.s:84     .text.isButtonPressed:00000000 $t
C:\Users\∑∂\AppData\Local\Temp\ccLwiZqD.s:89     .text.isButtonPressed:00000000 isButtonPressed
C:\Users\∑∂\AppData\Local\Temp\ccLwiZqD.s:116    .text.isButtonPressed:00000014 $d
C:\Users\∑∂\AppData\Local\Temp\ccLwiZqD.s:121    .text.main:00000000 $t
C:\Users\∑∂\AppData\Local\Temp\ccLwiZqD.s:127    .text.main:00000000 main

UNDEFINED SYMBOLS
GPIO_Init
delay_ms
