ARM GAS  C:\Users\25084\AppData\Local\Temp\ccX087Ys.s 			page 1


   1              		.cpu cortex-m4
   2              		.arch armv7e-m
   3              		.fpu softvfp
   4              		.eabi_attribute 20, 1
   5              		.eabi_attribute 21, 1
   6              		.eabi_attribute 23, 3
   7              		.eabi_attribute 24, 1
   8              		.eabi_attribute 25, 1
   9              		.eabi_attribute 26, 1
  10              		.eabi_attribute 30, 1
  11              		.eabi_attribute 34, 1
  12              		.eabi_attribute 18, 4
  13              		.file	"main.c"
  14              		.text
  15              	.Ltext0:
  16              		.cfi_sections	.debug_frame
  17              		.file 1 "Core/Src/main.c"
  18              		.section	.text.main,"ax",%progbits
  19              		.align	1
  20              		.global	main
  21              		.syntax unified
  22              		.thumb
  23              		.thumb_func
  25              	main:
  26              	.LFB130:
   1:Core/Src/main.c **** // #include "../Inc/init.h"
   2:Core/Src/main.c **** // #include "../Inc/it_handlers.h"
   3:Core/Src/main.c **** 
   4:Core/Src/main.c **** // // å®šä¹‰ä¸€äº›å…¨å±€å˜é‡
   5:Core/Src/main.c **** // uint16_t DelayTickCount = 0;                 // å»¶è¿Ÿè®¡æ•°å™¨
   6:Core/Src/main.c **** // uint32_t GlobalTickBut1Wait = 0;             // æŒ‰é’®1çš„ç­‰å¾…æ—¶é—´è®¡æ•°å™¨
   7:Core/Src/main.c **** // uint32_t GlobalTickBut2Wait = 0;             // æŒ‰é’®2çš„ç­‰å¾…æ—¶é—´è®¡æ•°å™¨
   8:Core/Src/main.c **** // uint16_t CurrentLedFrequency = 0;            // å½“å‰LEDé¢‘ç‡
   9:Core/Src/main.c **** 
  10:Core/Src/main.c **** // // LEDé…ç½®ï¼šæ¯ä¸ªLEDçš„å¯¹åº”å¼•è„š
  11:Core/Src/main.c **** // const uint8_t Led_Off_set[6] = {0U, 7U, 14U, 8U, 9U, 10U};
  12:Core/Src/main.c **** 
  13:Core/Src/main.c **** // // å½“å‰çš„çŠ¶æ€ï¼Œåˆå§‹åŒ–ä¸º6
  14:Core/Src/main.c **** // uint8_t Current_state = 6;
  15:Core/Src/main.c **** // // å½“å‰æ¿€æ´»çš„LEDç´¢å¼•
  16:Core/Src/main.c **** // uint8_t Current_led = 0;
  17:Core/Src/main.c **** // // è®¡æ•°å™¨ï¼Œç”¨äºçŠ¶æ€å¾ªç¯
  18:Core/Src/main.c **** // uint8_t Numb = 0;
  19:Core/Src/main.c **** // // æŒ‰é’®1å’ŒæŒ‰é’®2çš„è®¡æ•°å™¨
  20:Core/Src/main.c **** // uint8_t counterbut1 = 0, counterbut2 = 0;
  21:Core/Src/main.c **** // // æŒ‰é’®1å’ŒæŒ‰é’®2çš„çŠ¶æ€æ ‡å¿—
  22:Core/Src/main.c **** // uint8_t flagbut1 = 0, flagbut2 = 0;
  23:Core/Src/main.c **** // // æŒ‰é’®1å’ŒæŒ‰é’®2çš„é•¿æŒ‰æ ‡å¿—
  24:Core/Src/main.c **** // uint8_t flagbut1long = 0, flagbut2long = 0;
  25:Core/Src/main.c **** 
  26:Core/Src/main.c **** // // LEDçš„é¢‘ç‡èŒƒå›´é…ç½®ï¼šæ¯ä¸ªé¢‘ç‡å¯¹åº”ä¸€ä¸ªLEDçš„é¢‘ç‡å€¼
  27:Core/Src/main.c **** // uint16_t led_freq_range[3][3] = {{1250, 384, 250},{833, 312, 227},{625, 263, 200}};
  28:Core/Src/main.c **** // // å½“å‰LEDçš„é¢‘ç‡ï¼šæ¯ä¸ªLEDæœ‰2ä¸ªé¢‘ç‡ï¼Œåˆ†åˆ«è¡¨ç¤ºä¸¤ä¸ªæŒ‰é”®çš„é¢‘ç‡
  29:Core/Src/main.c **** // uint8_t Current_freq[6][2] = {{0, 0},{0, 0},{0, 0},{0, 0},{0, 0},{0, 0}};
  30:Core/Src/main.c **** // // æ¯ä¸ªLEDçš„è´Ÿè½½é¢‘ç‡
  31:Core/Src/main.c **** // uint16_t Led_load[6] = {0, 0, 0, 0, 0, 0};
  32:Core/Src/main.c **** // // æ¯ä¸ªLEDçš„è®¡æ•°å™¨
ARM GAS  C:\Users\25084\AppData\Local\Temp\ccX087Ys.s 			page 2


  33:Core/Src/main.c **** // uint16_t Led_count[6] = {0, 0, 0, 0, 0, 0};
  34:Core/Src/main.c **** // // LEDçš„å¼€å…³çŠ¶æ€æ ‡å¿—æ•°ç»„ï¼Œ0è¡¨ç¤ºå…³é—­ï¼Œ1è¡¨ç¤ºå¼€å¯
  35:Core/Src/main.c **** // uint8_t Ledflag[2][6] = {{1, 1, 1, 1, 1, 1},{0, 0, 0, 0, 0, 0}};
  36:Core/Src/main.c **** // // LED1å’ŒLED2çš„å¼€å…³æ ‡å¿—
  37:Core/Src/main.c **** // uint8_t Led1flag = 0;
  38:Core/Src/main.c **** // uint8_t Led2flag = 0;
  39:Core/Src/main.c **** 
  40:Core/Src/main.c **** // // LEDåˆå§‹åŒ–å‡½æ•°å£°æ˜
  41:Core/Src/main.c **** // void LedVal_Init();
  42:Core/Src/main.c **** // // æ§åˆ¶LEDç¯äº®ç­çš„å‡½æ•°å£°æ˜
  43:Core/Src/main.c **** // void Led_light();
  44:Core/Src/main.c **** 
  45:Core/Src/main.c **** // int main(void) 
  46:Core/Src/main.c **** // { 
  47:Core/Src/main.c **** //     // åˆå§‹åŒ–GPIOã€æ—¶é’Ÿã€å¤–éƒ¨ä¸­æ–­ã€SysTickç­‰
  48:Core/Src/main.c **** //     GPIO_Init();
  49:Core/Src/main.c **** //     RCC_Init();      // ç³»ç»Ÿæ—¶é’Ÿåˆå§‹åŒ–
  50:Core/Src/main.c **** //     EXTI_ITR_Init(); // å¤–éƒ¨ä¸­æ–­åˆå§‹åŒ–
  51:Core/Src/main.c **** //     SysTick_Init();  // SysTickå®šæ—¶å™¨åˆå§‹åŒ–
  52:Core/Src/main.c **** //     LedVal_Init();   // LEDç›¸å…³å€¼åˆå§‹åŒ–
  53:Core/Src/main.c **** 
  54:Core/Src/main.c **** //     while (1) 
  55:Core/Src/main.c **** //     {
  56:Core/Src/main.c **** //         // éå†6ä¸ªLEDï¼Œæ£€æŸ¥LEDè®¡æ•°å™¨æ˜¯å¦è¶…è¿‡LEDè´Ÿè½½å€¼ï¼Œè¶…å‡ºåˆ™åˆ‡æ¢LEDçš„çŠ¶
  57:Core/Src/main.c **** //         for (uint8_t i = 0; i < 6; i++){
  58:Core/Src/main.c **** //             // å¦‚æœLEDè®¡æ•°å™¨è¶…è¿‡è´Ÿè½½å€¼ï¼Œå¤ä½è®¡æ•°å™¨å¹¶åˆ‡æ¢LEDçŠ¶æ€
  59:Core/Src/main.c **** //             if (Led_count[i] >= Led_load[i])
  60:Core/Src/main.c **** //             {
  61:Core/Src/main.c **** //                 Led_count[i] = 0; // å¤ä½LEDè®¡æ•°å™¨
  62:Core/Src/main.c **** //                 if (Ledflag[1][i] == 1)
  63:Core/Src/main.c **** //                 {         
  64:Core/Src/main.c **** //                     Ledflag[1][i] = 0; // å…³é—­LED
  65:Core/Src/main.c **** //                 }
  66:Core/Src/main.c **** //                 else
  67:Core/Src/main.c **** //                 {
  68:Core/Src/main.c **** //                     Ledflag[1][i] = 1; // æ‰“å¼€LED
  69:Core/Src/main.c **** //                 }
  70:Core/Src/main.c **** //                 // æ›´æ–°LED1å’ŒLED2çš„çŠ¶æ€æ ‡å¿—
  71:Core/Src/main.c **** //                 Led1flag = Ledflag[1][0];
  72:Core/Src/main.c **** //                 Led2flag = Ledflag[1][1];
  73:Core/Src/main.c **** //             }
  74:Core/Src/main.c **** //         }
  75:Core/Src/main.c **** 
  76:Core/Src/main.c **** //         // è®¡ç®—å½“å‰çŠ¶æ€å¯¹åº”çš„LEDæ•°é‡
  77:Core/Src/main.c **** //         Numb = Current_state % 7;
  78:Core/Src/main.c **** //         // å¦‚æœNumbä¸ä¸º0ï¼Œåˆ™ç‚¹äº®å¯¹åº”æ•°é‡çš„LED
  79:Core/Src/main.c **** //         if (Numb != 0)
  80:Core/Src/main.c **** //         {
  81:Core/Src/main.c **** //             for (uint8_t i = 0; i < Numb; i++){
  82:Core/Src/main.c **** //                 Ledflag[0][i] = 1;  // æ‰“å¼€LED
  83:Core/Src/main.c **** //             }
  84:Core/Src/main.c **** //         }
  85:Core/Src/main.c **** //         else
  86:Core/Src/main.c **** //         {
  87:Core/Src/main.c **** //             // å¦åˆ™ï¼Œå…³é—­æ‰€æœ‰LEDï¼Œå¹¶é‡ç½®å½“å‰çŠ¶æ€
  88:Core/Src/main.c **** //             for (uint8_t i = 0; i < 6; i++)
  89:Core/Src/main.c **** //             {
ARM GAS  C:\Users\25084\AppData\Local\Temp\ccX087Ys.s 			page 3


  90:Core/Src/main.c **** //                 Ledflag[0][i] = 0;  // å…³é—­LED
  91:Core/Src/main.c **** //             }
  92:Core/Src/main.c **** //             Current_state = 0; // é‡ç½®å½“å‰çŠ¶æ€
  93:Core/Src/main.c **** //         }
  94:Core/Src/main.c **** 
  95:Core/Src/main.c **** //         // å¤„ç†æŒ‰é’®1é•¿æŒ‰äº‹ä»¶ï¼šå¦‚æœæŒ‰é’®1é•¿æŒ‰ï¼Œä¿®æ”¹å½“å‰LEDçš„é¢‘ç‡
  96:Core/Src/main.c **** //         if(flagbut1long == 1){ 
  97:Core/Src/main.c **** //             // å¦‚æœé¢‘ç‡å·²è¾¾åˆ°æœ€å¤§å€¼3ï¼Œåˆ™é‡ç½®ä¸º0
  98:Core/Src/main.c **** //             if (Current_freq[Current_led][0] >= 3)
  99:Core/Src/main.c **** //             {
 100:Core/Src/main.c **** //                 Current_freq[Current_led][0] = 0;
 101:Core/Src/main.c **** //             }
 102:Core/Src/main.c **** //             // æ ¹æ®å½“å‰é¢‘ç‡å€¼è®¾ç½®LEDçš„è´Ÿè½½é¢‘ç‡
 103:Core/Src/main.c **** //             Led_load[Current_led % 6] = led_freq_range[Current_freq[Current_led][1]][Current_fre
 104:Core/Src/main.c **** //             flagbut1long = 0; // é‡ç½®é•¿æŒ‰æ ‡å¿—
 105:Core/Src/main.c **** //         } 
 106:Core/Src/main.c **** 
 107:Core/Src/main.c **** //         // å¤„ç†æŒ‰é’®2é•¿æŒ‰äº‹ä»¶ï¼šå¦‚æœæŒ‰é’®2é•¿æŒ‰ï¼Œä¿®æ”¹å½“å‰LEDçš„é¢‘ç‡
 108:Core/Src/main.c **** //         if(flagbut2long == 1){     
 109:Core/Src/main.c **** //             // å¦‚æœé¢‘ç‡å·²è¾¾åˆ°æœ€å¤§å€¼3ï¼Œåˆ™é‡ç½®ä¸º0
 110:Core/Src/main.c **** //             if (Current_freq[Current_led][1] >= 3)
 111:Core/Src/main.c **** //             {
 112:Core/Src/main.c **** //                 Current_freq[Current_led][1] = 0;
 113:Core/Src/main.c **** //             }
 114:Core/Src/main.c **** //             // æ ¹æ®å½“å‰é¢‘ç‡å€¼è®¾ç½®LEDçš„è´Ÿè½½é¢‘ç‡
 115:Core/Src/main.c **** //             Led_load[Current_led % 6] = led_freq_range[Current_freq[Current_led][1]][Current_fre
 116:Core/Src/main.c **** //             flagbut2long = 0; // é‡ç½®é•¿æŒ‰æ ‡å¿—
 117:Core/Src/main.c **** //         }
 118:Core/Src/main.c **** 
 119:Core/Src/main.c **** //         // æ£€æµ‹æŒ‰é’®1çŸ­æŒ‰ï¼šå¦‚æœæŒ‰é’®1çŸ­æŒ‰å¹¶ä¸”ç­‰å¾…æ—¶é—´è¶…è¿‡50msï¼Œåˆ™é‡ç½®æŒ‰é
 120:Core/Src/main.c **** //         if(flagbut1 == 1 && READ_BIT(GPIOC->IDR, GPIO_IDR_ID6) == 0  && GlobalTickBut1Wait >= 50
 121:Core/Src/main.c **** //             flagbut1 = 0;
 122:Core/Src/main.c **** //         }  
 123:Core/Src/main.c **** 
 124:Core/Src/main.c **** //         // æ£€æµ‹æŒ‰é’®2çŸ­æŒ‰ï¼šå¦‚æœæŒ‰é’®2çŸ­æŒ‰å¹¶ä¸”ç­‰å¾…æ—¶é—´è¶…è¿‡50msï¼Œåˆ™é‡ç½®æŒ‰é
 125:Core/Src/main.c **** //         if(flagbut2 == 1 && READ_BIT(GPIOC->IDR, GPIO_IDR_ID10) == 0 && GlobalTickBut2Wait >= 50
 126:Core/Src/main.c **** //             flagbut2 = 0;
 127:Core/Src/main.c **** //         }  
 128:Core/Src/main.c **** 
 129:Core/Src/main.c **** //         // æ›´æ–°LEDçš„çŠ¶æ€
 130:Core/Src/main.c **** //         Led_light();
 131:Core/Src/main.c **** //     } 
 132:Core/Src/main.c **** // }
 133:Core/Src/main.c **** 
 134:Core/Src/main.c **** // // æ§åˆ¶LEDç¯äº®ç­çš„å‡½æ•°
 135:Core/Src/main.c **** // void Led_light()
 136:Core/Src/main.c **** // {
 137:Core/Src/main.c **** //     uint32_t ODR_clear = 0x0UL;  // å­˜å‚¨è¦æ¸…é™¤çš„ä½
 138:Core/Src/main.c **** //     uint32_t ODR_set = 0x0UL;    // å­˜å‚¨è¦è®¾ç½®çš„ä½
 139:Core/Src/main.c **** 
 140:Core/Src/main.c **** //     // éå†6ä¸ªLEDï¼Œæ ¹æ®å®ƒä»¬çš„å¼€å…³çŠ¶æ€æ¥å†³å®šæ˜¯ç‚¹äº®è¿˜æ˜¯ç†„ç­
 141:Core/Src/main.c **** //     for (uint8_t i = 0; i < 6; i++){
 142:Core/Src/main.c **** //         if ((Ledflag[0][i] == 1) && (Ledflag[1][i] == 1)){
 143:Core/Src/main.c **** //             ODR_set = ODR_set + (0x1UL << (Led_Off_set[i]));  // ç‚¹äº®LED
 144:Core/Src/main.c **** //         }
 145:Core/Src/main.c **** //         else{
 146:Core/Src/main.c **** //             ODR_clear = ODR_clear + (0x1UL << (Led_Off_set[i])); // ç†„ç­LED
ARM GAS  C:\Users\25084\AppData\Local\Temp\ccX087Ys.s 			page 4


 147:Core/Src/main.c **** //         }
 148:Core/Src/main.c **** //     }
 149:Core/Src/main.c **** 
 150:Core/Src/main.c **** //     // ä¿®æ”¹GPIOBçš„è¾“å‡ºæ•°æ®å¯„å­˜å™¨ï¼ˆODRï¼‰ï¼Œæ ¹æ®LEDçŠ¶æ€è®¾ç½®å¯¹åº”å¼•è„šçš„ç”µå¹³
 151:Core/Src/main.c **** //     MODIFY_REG(GPIOB->ODR, ODR_clear, ODR_set);
 152:Core/Src/main.c **** // }
 153:Core/Src/main.c **** 
 154:Core/Src/main.c **** // // åˆå§‹åŒ–LEDçš„é¢‘ç‡å€¼
 155:Core/Src/main.c **** // void LedVal_Init()
 156:Core/Src/main.c **** // {
 157:Core/Src/main.c **** //     // åˆå§‹åŒ–æ¯ä¸ªLEDçš„è´Ÿè½½é¢‘ç‡ï¼Œå¹¶è®¾ç½®å…¶è®¡æ•°å™¨ä¸ºè´Ÿè½½é¢‘ç‡å€¼
 158:Core/Src/main.c **** //     for (uint8_t i = 0; i < 6; i++){
 159:Core/Src/main.c **** //         Led_load[i] = led_freq_range[Current_freq[i][0]][Current_freq[i][1]];
 160:Core/Src/main.c **** //         Led_count[i] = Led_load[i];  // åˆå§‹åŒ–è®¡æ•°å™¨ä¸ºè´Ÿè½½é¢‘ç‡
 161:Core/Src/main.c **** //     }
 162:Core/Src/main.c **** // }
 163:Core/Src/main.c **** 
 164:Core/Src/main.c **** 
 165:Core/Src/main.c **** #include <stdint.h> 
 166:Core/Src/main.c **** #include "../Inc/init.h"
 167:Core/Src/main.c **** 
 168:Core/Src/main.c **** volatile uint8_t led_states[4] = {0, 0, 0, 0}; // è®°å½•æ¯ä¸ª LED çš„çŠ¶æ€
 169:Core/Src/main.c **** volatile uint8_t button_count = 0;            // æŒ‰é’®æŒ‰ä¸‹æ¬¡æ•°
 170:Core/Src/main.c **** volatile uint8_t button_flag = 0;
 171:Core/Src/main.c **** 
 172:Core/Src/main.c **** int main(void) {
  27              		.loc 1 172 16 view -0
  28              		.cfi_startproc
  29              		@ args = 0, pretend = 0, frame = 8
  30              		@ frame_needed = 0, uses_anonymous_args = 0
  31 0000 10B5     		push	{r4, lr}
  32              	.LCFI0:
  33              		.cfi_def_cfa_offset 8
  34              		.cfi_offset 4, -8
  35              		.cfi_offset 14, -4
  36 0002 82B0     		sub	sp, sp, #8
  37              	.LCFI1:
  38              		.cfi_def_cfa_offset 16
 173:Core/Src/main.c ****     uint8_t button_pressed = 0; // æŒ‰é’®çŠ¶æ€
  39              		.loc 1 173 5 view .LVU1
  40              	.LVL0:
 174:Core/Src/main.c ****     GPIO_Ini();                 // åˆå§‹åŒ– GPIO
  41              		.loc 1 174 5 view .LVU2
  42 0004 FFF7FEFF 		bl	GPIO_Ini
  43              	.LVL1:
 173:Core/Src/main.c ****     uint8_t button_pressed = 0; // æŒ‰é’®çŠ¶æ€
  44              		.loc 1 173 13 is_stmt 0 view .LVU3
  45 0008 0024     		movs	r4, #0
  46 000a 00E0     		b	.L3
  47              	.LVL2:
  48              	.L20:
 175:Core/Src/main.c **** 
 176:Core/Src/main.c ****     while (1) {
 177:Core/Src/main.c ****         // æ›´æ–°æŒ‰é’®çŠ¶æ€
 178:Core/Src/main.c ****         button_flag = READ_BIT(*(volatile uint32_t *)GPIOC_IDR, GPIOC_IDR_PIN13) ? 1 : 0;
 179:Core/Src/main.c **** 
 180:Core/Src/main.c ****         // æ£€æµ‹æŒ‰é’®æ˜¯å¦æŒ‰ä¸‹
ARM GAS  C:\Users\25084\AppData\Local\Temp\ccX087Ys.s 			page 5


 181:Core/Src/main.c ****         if (READ_BIT(*(volatile uint32_t *)GPIOC_IDR, GPIOC_IDR_PIN13) != 0) { // æŒ‰é’®æŒ‰ä¸‹
 182:Core/Src/main.c ****             for (volatile int i = 0; i < 100000; i++); // ç®€å•å»¶æ—¶ï¼Œç”¨äºæ¶ˆæŠ–
 183:Core/Src/main.c ****             if (READ_BIT(*(volatile uint32_t *)GPIOC_IDR, GPIOC_IDR_PIN13) == 0 && button_pressed =
 184:Core/Src/main.c ****                 button_pressed = 1; // æ ‡è®°æŒ‰é’®å·²ç»æŒ‰ä¸‹
 185:Core/Src/main.c ****                 button_count++;     // å¢åŠ æŒ‰é’®æŒ‰ä¸‹æ¬¡æ•°
 186:Core/Src/main.c **** 
 187:Core/Src/main.c ****                 // æ ¹æ®æŒ‰é’®æŒ‰ä¸‹æ¬¡æ•°æ§åˆ¶ç¯
 188:Core/Src/main.c ****                 if (button_count >= 1 && button_count <= 4) {
 189:Core/Src/main.c ****                     // ç‚¹äº®æŒ‡å®šæ•°é‡çš„ LED
 190:Core/Src/main.c ****                     for (uint8_t i = 0; i < 4; i++) {
 191:Core/Src/main.c ****                         if (i < button_count) {
 192:Core/Src/main.c ****                             ToggleLED(i + 1, 1); // æ‰“å¼€ LED
 193:Core/Src/main.c ****                             led_states[i] = 1;  // æ›´æ–°çŠ¶æ€
 194:Core/Src/main.c ****                         } else {
 195:Core/Src/main.c ****                             ToggleLED(i + 1, 0); // å…³é—­ LED
 196:Core/Src/main.c ****                             led_states[i] = 0;  // æ›´æ–°çŠ¶æ€
 197:Core/Src/main.c ****                         }
 198:Core/Src/main.c ****                     }
 199:Core/Src/main.c ****                 } else if (button_count == 5) {
 200:Core/Src/main.c ****                     // å…³é—­æ‰€æœ‰ LED
 201:Core/Src/main.c ****                     TurnOffAllLEDs();
 202:Core/Src/main.c ****                     for (uint8_t i = 0; i < 4; i++) {
 203:Core/Src/main.c ****                         led_states[i] = 0; // æ›´æ–°çŠ¶æ€
 204:Core/Src/main.c ****                     }
 205:Core/Src/main.c ****                 } else if (button_count == 6) {
 206:Core/Src/main.c ****                     // ç‚¹äº®æ‰€æœ‰ LED
 207:Core/Src/main.c ****                     TurnOnAllLEDs();
 208:Core/Src/main.c ****                     for (uint8_t i = 0; i < 4; i++) {
 209:Core/Src/main.c ****                         led_states[i] = 1; // æ›´æ–°çŠ¶æ€
 210:Core/Src/main.c ****                     }
 211:Core/Src/main.c ****                 } else if (button_count > 6) {
 212:Core/Src/main.c ****                     // é‡ç½®é€»è¾‘å¹¶é‡æ–°å¼€å§‹
 213:Core/Src/main.c ****                     TurnOffAllLEDs();
 214:Core/Src/main.c ****                     for (uint8_t i = 0; i < 4; i++) {
 215:Core/Src/main.c ****                         led_states[i] = 0; // æ›´æ–°çŠ¶æ€
 216:Core/Src/main.c ****                     }
 217:Core/Src/main.c ****                     button_count = 0; // é‡ç½®è®¡æ•°
 218:Core/Src/main.c ****                 }
 219:Core/Src/main.c ****             }
 220:Core/Src/main.c ****         } else {
 221:Core/Src/main.c ****             button_pressed = 0; // æŒ‰é’®é‡Šæ”¾
  49              		.loc 1 221 28 view .LVU4
  50 000c 0024     		movs	r4, #0
  51              	.LVL3:
  52              	.L3:
 176:Core/Src/main.c ****         // æ›´æ–°æŒ‰é’®çŠ¶æ€
  53              		.loc 1 176 5 is_stmt 1 view .LVU5
 178:Core/Src/main.c **** 
  54              		.loc 1 178 9 view .LVU6
 178:Core/Src/main.c **** 
  55              		.loc 1 178 23 is_stmt 0 view .LVU7
  56 000e 3E4A     		ldr	r2, .L28
  57 0010 D2F81038 		ldr	r3, [r2, #2064]
 178:Core/Src/main.c **** 
  58              		.loc 1 178 86 view .LVU8
  59 0014 C3F34033 		ubfx	r3, r3, #13, #1
 178:Core/Src/main.c **** 
ARM GAS  C:\Users\25084\AppData\Local\Temp\ccX087Ys.s 			page 6


  60              		.loc 1 178 21 view .LVU9
  61 0018 3C49     		ldr	r1, .L28+4
  62 001a 0B70     		strb	r3, [r1]
 181:Core/Src/main.c ****             for (volatile int i = 0; i < 100000; i++); // ç®€å•å»¶æ—¶ï¼Œç”¨äºæ¶ˆæŠ–
  63              		.loc 1 181 9 is_stmt 1 view .LVU10
 181:Core/Src/main.c ****             for (volatile int i = 0; i < 100000; i++); // ç®€å•å»¶æ—¶ï¼Œç”¨äºæ¶ˆæŠ–
  64              		.loc 1 181 13 is_stmt 0 view .LVU11
  65 001c D2F81038 		ldr	r3, [r2, #2064]
 181:Core/Src/main.c ****             for (volatile int i = 0; i < 100000; i++); // ç®€å•å»¶æ—¶ï¼Œç”¨äºæ¶ˆæŠ–
  66              		.loc 1 181 12 view .LVU12
  67 0020 13F4005F 		tst	r3, #8192
  68 0024 F2D0     		beq	.L20
 182:Core/Src/main.c ****             if (READ_BIT(*(volatile uint32_t *)GPIOC_IDR, GPIOC_IDR_PIN13) == 0 && button_pressed =
  69              		.loc 1 182 13 is_stmt 1 view .LVU13
  70              	.LBB2:
 182:Core/Src/main.c ****             if (READ_BIT(*(volatile uint32_t *)GPIOC_IDR, GPIOC_IDR_PIN13) == 0 && button_pressed =
  71              		.loc 1 182 18 view .LVU14
 182:Core/Src/main.c ****             if (READ_BIT(*(volatile uint32_t *)GPIOC_IDR, GPIOC_IDR_PIN13) == 0 && button_pressed =
  72              		.loc 1 182 31 is_stmt 0 view .LVU15
  73 0026 0023     		movs	r3, #0
  74 0028 0193     		str	r3, [sp, #4]
 182:Core/Src/main.c ****             if (READ_BIT(*(volatile uint32_t *)GPIOC_IDR, GPIOC_IDR_PIN13) == 0 && button_pressed =
  75              		.loc 1 182 13 view .LVU16
  76 002a 02E0     		b	.L4
  77              	.L5:
 182:Core/Src/main.c ****             if (READ_BIT(*(volatile uint32_t *)GPIOC_IDR, GPIOC_IDR_PIN13) == 0 && button_pressed =
  78              		.loc 1 182 51 is_stmt 1 discriminator 3 view .LVU17
  79 002c 019B     		ldr	r3, [sp, #4]
  80 002e 0133     		adds	r3, r3, #1
  81 0030 0193     		str	r3, [sp, #4]
  82              	.L4:
 182:Core/Src/main.c ****             if (READ_BIT(*(volatile uint32_t *)GPIOC_IDR, GPIOC_IDR_PIN13) == 0 && button_pressed =
  83              		.loc 1 182 40 discriminator 1 view .LVU18
  84 0032 019A     		ldr	r2, [sp, #4]
  85 0034 364B     		ldr	r3, .L28+8
  86 0036 9A42     		cmp	r2, r3
  87 0038 F8DD     		ble	.L5
  88              	.LBE2:
 183:Core/Src/main.c ****                 button_pressed = 1; // æ ‡è®°æŒ‰é’®å·²ç»æŒ‰ä¸‹
  89              		.loc 1 183 13 view .LVU19
 183:Core/Src/main.c ****                 button_pressed = 1; // æ ‡è®°æŒ‰é’®å·²ç»æŒ‰ä¸‹
  90              		.loc 1 183 17 is_stmt 0 view .LVU20
  91 003a 334B     		ldr	r3, .L28
  92 003c D3F81038 		ldr	r3, [r3, #2064]
 183:Core/Src/main.c ****                 button_pressed = 1; // æ ‡è®°æŒ‰é’®å·²ç»æŒ‰ä¸‹
  93              		.loc 1 183 16 view .LVU21
  94 0040 13F4005F 		tst	r3, #8192
  95 0044 E3D1     		bne	.L3
 183:Core/Src/main.c ****                 button_pressed = 1; // æ ‡è®°æŒ‰é’®å·²ç»æŒ‰ä¸‹
  96              		.loc 1 183 81 discriminator 1 view .LVU22
  97 0046 002C     		cmp	r4, #0
  98 0048 E1D1     		bne	.L3
 184:Core/Src/main.c ****                 button_count++;     // å¢åŠ æŒ‰é’®æŒ‰ä¸‹æ¬¡æ•°
  99              		.loc 1 184 17 is_stmt 1 view .LVU23
 100              	.LVL4:
 185:Core/Src/main.c **** 
 101              		.loc 1 185 17 view .LVU24
ARM GAS  C:\Users\25084\AppData\Local\Temp\ccX087Ys.s 			page 7


 185:Core/Src/main.c **** 
 102              		.loc 1 185 29 is_stmt 0 view .LVU25
 103 004a 324A     		ldr	r2, .L28+12
 104 004c 1378     		ldrb	r3, [r2]	@ zero_extendqisi2
 105 004e 0133     		adds	r3, r3, #1
 106 0050 DBB2     		uxtb	r3, r3
 107 0052 1370     		strb	r3, [r2]
 188:Core/Src/main.c ****                     // ç‚¹äº®æŒ‡å®šæ•°é‡çš„ LED
 108              		.loc 1 188 17 is_stmt 1 view .LVU26
 188:Core/Src/main.c ****                     // ç‚¹äº®æŒ‡å®šæ•°é‡çš„ LED
 109              		.loc 1 188 34 is_stmt 0 view .LVU27
 110 0054 1378     		ldrb	r3, [r2]	@ zero_extendqisi2
 188:Core/Src/main.c ****                     // ç‚¹äº®æŒ‡å®šæ•°é‡çš„ LED
 111              		.loc 1 188 20 view .LVU28
 112 0056 1BB1     		cbz	r3, .L7
 188:Core/Src/main.c ****                     // ç‚¹äº®æŒ‡å®šæ•°é‡çš„ LED
 113              		.loc 1 188 55 discriminator 1 view .LVU29
 114 0058 1378     		ldrb	r3, [r2]	@ zero_extendqisi2
 115 005a DBB2     		uxtb	r3, r3
 188:Core/Src/main.c ****                     // ç‚¹äº®æŒ‡å®šæ•°é‡çš„ LED
 116              		.loc 1 188 39 discriminator 1 view .LVU30
 117 005c 042B     		cmp	r3, #4
 118 005e 1AD9     		bls	.L8
 119              	.L7:
 199:Core/Src/main.c ****                     // å…³é—­æ‰€æœ‰ LED
 120              		.loc 1 199 24 is_stmt 1 view .LVU31
 199:Core/Src/main.c ****                     // å…³é—­æ‰€æœ‰ LED
 121              		.loc 1 199 41 is_stmt 0 view .LVU32
 122 0060 2C4B     		ldr	r3, .L28+12
 123 0062 1B78     		ldrb	r3, [r3]	@ zero_extendqisi2
 124 0064 DBB2     		uxtb	r3, r3
 199:Core/Src/main.c ****                     // å…³é—­æ‰€æœ‰ LED
 125              		.loc 1 199 27 view .LVU33
 126 0066 052B     		cmp	r3, #5
 127 0068 27D0     		beq	.L23
 205:Core/Src/main.c ****                     // ç‚¹äº®æ‰€æœ‰ LED
 128              		.loc 1 205 24 is_stmt 1 view .LVU34
 205:Core/Src/main.c ****                     // ç‚¹äº®æ‰€æœ‰ LED
 129              		.loc 1 205 41 is_stmt 0 view .LVU35
 130 006a 2A4B     		ldr	r3, .L28+12
 131 006c 1B78     		ldrb	r3, [r3]	@ zero_extendqisi2
 132 006e DBB2     		uxtb	r3, r3
 205:Core/Src/main.c ****                     // ç‚¹äº®æ‰€æœ‰ LED
 133              		.loc 1 205 27 view .LVU36
 134 0070 062B     		cmp	r3, #6
 135 0072 2ED0     		beq	.L24
 211:Core/Src/main.c ****                     // é‡ç½®é€»è¾‘å¹¶é‡æ–°å¼€å§‹
 136              		.loc 1 211 24 is_stmt 1 view .LVU37
 211:Core/Src/main.c ****                     // é‡ç½®é€»è¾‘å¹¶é‡æ–°å¼€å§‹
 137              		.loc 1 211 41 is_stmt 0 view .LVU38
 138 0074 274B     		ldr	r3, .L28+12
 139 0076 1B78     		ldrb	r3, [r3]	@ zero_extendqisi2
 140 0078 DBB2     		uxtb	r3, r3
 211:Core/Src/main.c ****                     // é‡ç½®é€»è¾‘å¹¶é‡æ–°å¼€å§‹
 141              		.loc 1 211 27 view .LVU39
 142 007a 062B     		cmp	r3, #6
 143 007c 35D8     		bhi	.L25
ARM GAS  C:\Users\25084\AppData\Local\Temp\ccX087Ys.s 			page 8


 184:Core/Src/main.c ****                 button_count++;     // å¢åŠ æŒ‰é’®æŒ‰ä¸‹æ¬¡æ•°
 144              		.loc 1 184 32 view .LVU40
 145 007e 0124     		movs	r4, #1
 146 0080 C5E7     		b	.L3
 147              	.LVL5:
 148              	.L9:
 149              	.LBB3:
 195:Core/Src/main.c ****                             led_states[i] = 0;  // æ›´æ–°çŠ¶æ€
 150              		.loc 1 195 29 is_stmt 1 view .LVU41
 151 0082 601C     		adds	r0, r4, #1
 152 0084 0021     		movs	r1, #0
 153 0086 C0B2     		uxtb	r0, r0
 154 0088 FFF7FEFF 		bl	ToggleLED
 155              	.LVL6:
 196:Core/Src/main.c ****                         }
 156              		.loc 1 196 29 view .LVU42
 196:Core/Src/main.c ****                         }
 157              		.loc 1 196 43 is_stmt 0 view .LVU43
 158 008c 224B     		ldr	r3, .L28+16
 159 008e 0022     		movs	r2, #0
 160 0090 1A55     		strb	r2, [r3, r4]
 161              	.L10:
 190:Core/Src/main.c ****                         if (i < button_count) {
 162              		.loc 1 190 49 is_stmt 1 discriminator 2 view .LVU44
 163 0092 0134     		adds	r4, r4, #1
 164              	.LVL7:
 190:Core/Src/main.c ****                         if (i < button_count) {
 165              		.loc 1 190 49 is_stmt 0 discriminator 2 view .LVU45
 166 0094 E4B2     		uxtb	r4, r4
 167              	.LVL8:
 168              	.L8:
 190:Core/Src/main.c ****                         if (i < button_count) {
 169              		.loc 1 190 43 is_stmt 1 discriminator 1 view .LVU46
 170 0096 032C     		cmp	r4, #3
 171 0098 0DD8     		bhi	.L26
 191:Core/Src/main.c ****                             ToggleLED(i + 1, 1); // æ‰“å¼€ LED
 172              		.loc 1 191 25 view .LVU47
 191:Core/Src/main.c ****                             ToggleLED(i + 1, 1); // æ‰“å¼€ LED
 173              		.loc 1 191 31 is_stmt 0 view .LVU48
 174 009a 1E4B     		ldr	r3, .L28+12
 175 009c 1B78     		ldrb	r3, [r3]	@ zero_extendqisi2
 176 009e DBB2     		uxtb	r3, r3
 191:Core/Src/main.c ****                             ToggleLED(i + 1, 1); // æ‰“å¼€ LED
 177              		.loc 1 191 28 view .LVU49
 178 00a0 A342     		cmp	r3, r4
 179 00a2 EED9     		bls	.L9
 192:Core/Src/main.c ****                             led_states[i] = 1;  // æ›´æ–°çŠ¶æ€
 180              		.loc 1 192 29 is_stmt 1 view .LVU50
 181 00a4 601C     		adds	r0, r4, #1
 182 00a6 0121     		movs	r1, #1
 183 00a8 C0B2     		uxtb	r0, r0
 184 00aa FFF7FEFF 		bl	ToggleLED
 185              	.LVL9:
 193:Core/Src/main.c ****                         } else {
 186              		.loc 1 193 29 view .LVU51
 193:Core/Src/main.c ****                         } else {
 187              		.loc 1 193 43 is_stmt 0 view .LVU52
ARM GAS  C:\Users\25084\AppData\Local\Temp\ccX087Ys.s 			page 9


 188 00ae 1A4B     		ldr	r3, .L28+16
 189 00b0 0122     		movs	r2, #1
 190 00b2 1A55     		strb	r2, [r3, r4]
 191 00b4 EDE7     		b	.L10
 192              	.L26:
 193              	.LBE3:
 184:Core/Src/main.c ****                 button_count++;     // å¢åŠ æŒ‰é’®æŒ‰ä¸‹æ¬¡æ•°
 194              		.loc 1 184 32 view .LVU53
 195 00b6 0124     		movs	r4, #1
 196              	.LVL10:
 184:Core/Src/main.c ****                 button_count++;     // å¢åŠ æŒ‰é’®æŒ‰ä¸‹æ¬¡æ•°
 197              		.loc 1 184 32 view .LVU54
 198 00b8 A9E7     		b	.L3
 199              	.LVL11:
 200              	.L23:
 201:Core/Src/main.c ****                     for (uint8_t i = 0; i < 4; i++) {
 201              		.loc 1 201 21 is_stmt 1 view .LVU55
 202 00ba FFF7FEFF 		bl	TurnOffAllLEDs
 203              	.LVL12:
 202:Core/Src/main.c ****                         led_states[i] = 0; // æ›´æ–°çŠ¶æ€
 204              		.loc 1 202 21 view .LVU56
 205              	.LBB4:
 202:Core/Src/main.c ****                         led_states[i] = 0; // æ›´æ–°çŠ¶æ€
 206              		.loc 1 202 26 view .LVU57
 207              	.L13:
 202:Core/Src/main.c ****                         led_states[i] = 0; // æ›´æ–°çŠ¶æ€
 208              		.loc 1 202 43 discriminator 1 view .LVU58
 209 00be 032C     		cmp	r4, #3
 210 00c0 05D8     		bhi	.L27
 203:Core/Src/main.c ****                     }
 211              		.loc 1 203 25 view .LVU59
 203:Core/Src/main.c ****                     }
 212              		.loc 1 203 39 is_stmt 0 view .LVU60
 213 00c2 154B     		ldr	r3, .L28+16
 214 00c4 0022     		movs	r2, #0
 215 00c6 1A55     		strb	r2, [r3, r4]
 202:Core/Src/main.c ****                         led_states[i] = 0; // æ›´æ–°çŠ¶æ€
 216              		.loc 1 202 49 is_stmt 1 discriminator 3 view .LVU61
 217 00c8 0134     		adds	r4, r4, #1
 218              	.LVL13:
 202:Core/Src/main.c ****                         led_states[i] = 0; // æ›´æ–°çŠ¶æ€
 219              		.loc 1 202 49 is_stmt 0 discriminator 3 view .LVU62
 220 00ca E4B2     		uxtb	r4, r4
 221              	.LVL14:
 202:Core/Src/main.c ****                         led_states[i] = 0; // æ›´æ–°çŠ¶æ€
 222              		.loc 1 202 49 discriminator 3 view .LVU63
 223 00cc F7E7     		b	.L13
 224              	.L27:
 202:Core/Src/main.c ****                         led_states[i] = 0; // æ›´æ–°çŠ¶æ€
 225              		.loc 1 202 49 discriminator 3 view .LVU64
 226              	.LBE4:
 184:Core/Src/main.c ****                 button_count++;     // å¢åŠ æŒ‰é’®æŒ‰ä¸‹æ¬¡æ•°
 227              		.loc 1 184 32 view .LVU65
 228 00ce 0124     		movs	r4, #1
 229              	.LVL15:
 184:Core/Src/main.c ****                 button_count++;     // å¢åŠ æŒ‰é’®æŒ‰ä¸‹æ¬¡æ•°
 230              		.loc 1 184 32 view .LVU66
ARM GAS  C:\Users\25084\AppData\Local\Temp\ccX087Ys.s 			page 10


 231 00d0 9DE7     		b	.L3
 232              	.LVL16:
 233              	.L24:
 207:Core/Src/main.c ****                     for (uint8_t i = 0; i < 4; i++) {
 234              		.loc 1 207 21 is_stmt 1 view .LVU67
 235 00d2 FFF7FEFF 		bl	TurnOnAllLEDs
 236              	.LVL17:
 208:Core/Src/main.c ****                         led_states[i] = 1; // æ›´æ–°çŠ¶æ€
 237              		.loc 1 208 21 view .LVU68
 238              	.LBB5:
 208:Core/Src/main.c ****                         led_states[i] = 1; // æ›´æ–°çŠ¶æ€
 239              		.loc 1 208 26 view .LVU69
 208:Core/Src/main.c ****                         led_states[i] = 1; // æ›´æ–°çŠ¶æ€
 240              		.loc 1 208 21 is_stmt 0 view .LVU70
 241 00d6 04E0     		b	.L16
 242              	.LVL18:
 243              	.L17:
 209:Core/Src/main.c ****                     }
 244              		.loc 1 209 25 is_stmt 1 view .LVU71
 209:Core/Src/main.c ****                     }
 245              		.loc 1 209 39 is_stmt 0 view .LVU72
 246 00d8 0F4B     		ldr	r3, .L28+16
 247 00da 0122     		movs	r2, #1
 248 00dc 1A55     		strb	r2, [r3, r4]
 208:Core/Src/main.c ****                         led_states[i] = 1; // æ›´æ–°çŠ¶æ€
 249              		.loc 1 208 49 is_stmt 1 discriminator 3 view .LVU73
 250 00de 1444     		add	r4, r4, r2
 251              	.LVL19:
 208:Core/Src/main.c ****                         led_states[i] = 1; // æ›´æ–°çŠ¶æ€
 252              		.loc 1 208 49 is_stmt 0 discriminator 3 view .LVU74
 253 00e0 E4B2     		uxtb	r4, r4
 254              	.LVL20:
 255              	.L16:
 208:Core/Src/main.c ****                         led_states[i] = 1; // æ›´æ–°çŠ¶æ€
 256              		.loc 1 208 43 is_stmt 1 discriminator 1 view .LVU75
 257 00e2 032C     		cmp	r4, #3
 258 00e4 F8D9     		bls	.L17
 259              	.LBE5:
 184:Core/Src/main.c ****                 button_count++;     // å¢åŠ æŒ‰é’®æŒ‰ä¸‹æ¬¡æ•°
 260              		.loc 1 184 32 is_stmt 0 view .LVU76
 261 00e6 0124     		movs	r4, #1
 262              	.LVL21:
 184:Core/Src/main.c ****                 button_count++;     // å¢åŠ æŒ‰é’®æŒ‰ä¸‹æ¬¡æ•°
 263              		.loc 1 184 32 view .LVU77
 264 00e8 91E7     		b	.L3
 265              	.LVL22:
 266              	.L25:
 213:Core/Src/main.c ****                     for (uint8_t i = 0; i < 4; i++) {
 267              		.loc 1 213 21 is_stmt 1 view .LVU78
 268 00ea FFF7FEFF 		bl	TurnOffAllLEDs
 269              	.LVL23:
 214:Core/Src/main.c ****                         led_states[i] = 0; // æ›´æ–°çŠ¶æ€
 270              		.loc 1 214 21 view .LVU79
 271              	.LBB6:
 214:Core/Src/main.c ****                         led_states[i] = 0; // æ›´æ–°çŠ¶æ€
 272              		.loc 1 214 26 view .LVU80
 214:Core/Src/main.c ****                         led_states[i] = 0; // æ›´æ–°çŠ¶æ€
ARM GAS  C:\Users\25084\AppData\Local\Temp\ccX087Ys.s 			page 11


 273              		.loc 1 214 21 is_stmt 0 view .LVU81
 274 00ee 04E0     		b	.L18
 275              	.LVL24:
 276              	.L19:
 215:Core/Src/main.c ****                     }
 277              		.loc 1 215 25 is_stmt 1 view .LVU82
 215:Core/Src/main.c ****                     }
 278              		.loc 1 215 39 is_stmt 0 view .LVU83
 279 00f0 094B     		ldr	r3, .L28+16
 280 00f2 0022     		movs	r2, #0
 281 00f4 1A55     		strb	r2, [r3, r4]
 214:Core/Src/main.c ****                         led_states[i] = 0; // æ›´æ–°çŠ¶æ€
 282              		.loc 1 214 49 is_stmt 1 discriminator 3 view .LVU84
 283 00f6 0134     		adds	r4, r4, #1
 284              	.LVL25:
 214:Core/Src/main.c ****                         led_states[i] = 0; // æ›´æ–°çŠ¶æ€
 285              		.loc 1 214 49 is_stmt 0 discriminator 3 view .LVU85
 286 00f8 E4B2     		uxtb	r4, r4
 287              	.LVL26:
 288              	.L18:
 214:Core/Src/main.c ****                         led_states[i] = 0; // æ›´æ–°çŠ¶æ€
 289              		.loc 1 214 43 is_stmt 1 discriminator 1 view .LVU86
 290 00fa 032C     		cmp	r4, #3
 291 00fc F8D9     		bls	.L19
 292              	.LBE6:
 217:Core/Src/main.c ****                 }
 293              		.loc 1 217 21 view .LVU87
 217:Core/Src/main.c ****                 }
 294              		.loc 1 217 34 is_stmt 0 view .LVU88
 295 00fe 054B     		ldr	r3, .L28+12
 296 0100 0022     		movs	r2, #0
 297 0102 1A70     		strb	r2, [r3]
 184:Core/Src/main.c ****                 button_count++;     // å¢åŠ æŒ‰é’®æŒ‰ä¸‹æ¬¡æ•°
 298              		.loc 1 184 32 view .LVU89
 299 0104 0124     		movs	r4, #1
 300              	.LVL27:
 184:Core/Src/main.c ****                 button_count++;     // å¢åŠ æŒ‰é’®æŒ‰ä¸‹æ¬¡æ•°
 301              		.loc 1 184 32 view .LVU90
 302 0106 82E7     		b	.L3
 303              	.L29:
 304              		.align	2
 305              	.L28:
 306 0108 00000240 		.word	1073872896
 307 010c 00000000 		.word	button_flag
 308 0110 9F860100 		.word	99999
 309 0114 00000000 		.word	button_count
 310 0118 00000000 		.word	led_states
 311              		.cfi_endproc
 312              	.LFE130:
 314              		.global	button_flag
 315              		.section	.bss.button_flag,"aw",%nobits
 318              	button_flag:
 319 0000 00       		.space	1
 320              		.global	button_count
 321              		.section	.bss.button_count,"aw",%nobits
 324              	button_count:
 325 0000 00       		.space	1
ARM GAS  C:\Users\25084\AppData\Local\Temp\ccX087Ys.s 			page 12


 326              		.global	led_states
 327              		.section	.bss.led_states,"aw",%nobits
 328              		.align	2
 331              	led_states:
 332 0000 00000000 		.space	4
 333              		.text
 334              	.Letext0:
 335              		.file 2 "C:/dog/xpack-arm-none-eabi-gcc-13.2.1-1.1-win32-x64/xpack-arm-none-eabi-gcc-13.2.1-1.1/ar
 336              		.file 3 "C:/dog/xpack-arm-none-eabi-gcc-13.2.1-1.1-win32-x64/xpack-arm-none-eabi-gcc-13.2.1-1.1/ar
 337              		.file 4 "Core/Src/../Inc/init.h"
ARM GAS  C:\Users\25084\AppData\Local\Temp\ccX087Ys.s 			page 13


DEFINED SYMBOLS
                            *ABS*:00000000 main.c
C:\Users\25084\AppData\Local\Temp\ccX087Ys.s:19     .text.main:00000000 $t
C:\Users\25084\AppData\Local\Temp\ccX087Ys.s:25     .text.main:00000000 main
C:\Users\25084\AppData\Local\Temp\ccX087Ys.s:306    .text.main:00000108 $d
C:\Users\25084\AppData\Local\Temp\ccX087Ys.s:318    .bss.button_flag:00000000 button_flag
C:\Users\25084\AppData\Local\Temp\ccX087Ys.s:324    .bss.button_count:00000000 button_count
C:\Users\25084\AppData\Local\Temp\ccX087Ys.s:331    .bss.led_states:00000000 led_states
C:\Users\25084\AppData\Local\Temp\ccX087Ys.s:319    .bss.button_flag:00000000 $d
C:\Users\25084\AppData\Local\Temp\ccX087Ys.s:325    .bss.button_count:00000000 $d
C:\Users\25084\AppData\Local\Temp\ccX087Ys.s:328    .bss.led_states:00000000 $d

UNDEFINED SYMBOLS
GPIO_Ini
ToggleLED
TurnOffAllLEDs
TurnOnAllLEDs
