ARM GAS  C:\Users\rpong\AppData\Local\Temp\cczeLlvf.s 			page 1


   1              		.cpu cortex-m4
   2              		.arch armv7e-m
   3              		.fpu softvfp
   4              		.eabi_attribute 20, 1
   5              		.eabi_attribute 21, 1
   6              		.eabi_attribute 23, 3
   7              		.eabi_attribute 24, 1
   8              		.eabi_attribute 25, 1
   9              		.eabi_attribute 26, 1
  10              		.eabi_attribute 30, 1
  11              		.eabi_attribute 34, 1
  12              		.eabi_attribute 18, 4
  13              		.file	"main.c"
  14              		.text
  15              	.Ltext0:
  16              		.cfi_sections	.debug_frame
  17              		.file 1 "Core/Src/main.c"
  18              		.section	.text.Led_light,"ax",%progbits
  19              		.align	1
  20              		.global	Led_light
  21              		.syntax unified
  22              		.thumb
  23              		.thumb_func
  25              	Led_light:
  26              	.LFB131:
   1:Core/Src/main.c **** #include "../Inc/init.h"
   2:Core/Src/main.c **** #include "../Inc/it_handlers.h"
   3:Core/Src/main.c **** 
   4:Core/Src/main.c **** 
   5:Core/Src/main.c **** uint16_t DelayTickCount = 0;
   6:Core/Src/main.c **** uint32_t GlobalTickBut1Wait = 0, GlobalTickBut2Wait = 0;
   7:Core/Src/main.c **** //float Ledfreq[3][3]           = {{0.4, 1.3, 2},{0.6, 1.6, 2.2},{0.8, 1.9, 2.5}};
   8:Core/Src/main.c **** //Numtimes = freqAHB / ((SysTick_LOAD+1)*2*freq) (2 —Ç–∞–∫ –∫–∞–∫ –≤–∫–ª—é—á–µ–Ω–∏–µ –∏ –≤—ã–∫–ª—é—
   9:Core/Src/main.c **** uint16_t LedSetLoad[3][3] = {{1250, 384, 250},{833, 312, 227},{625, 263, 200}};
  10:Core/Src/main.c **** uint8_t LedCurrfreq[6][2] = {{0, 0},{0, 0},{0, 0},{0, 0},{0, 0},{0, 0}};
  11:Core/Src/main.c **** uint16_t LedLoad[6] = {0, 0, 0, 0, 0, 0};
  12:Core/Src/main.c **** uint16_t LedCount[6] = {0, 0, 0, 0, 0, 0};
  13:Core/Src/main.c **** uint8_t Ledflag[2][6] = {{1, 1, 1, 1, 1, 1},{0, 0, 0, 0, 0, 0}};
  14:Core/Src/main.c **** uint8_t Led1flag = 0;
  15:Core/Src/main.c **** uint8_t Led2flag = 0;
  16:Core/Src/main.c **** const uint8_t LedOffset[6] = {0U, 7U, 14U, 8U, 9U, 10U};
  17:Core/Src/main.c **** uint8_t CurrentState = 6;
  18:Core/Src/main.c **** uint8_t CurrentLed = 0;
  19:Core/Src/main.c **** uint8_t Numb = 0;
  20:Core/Src/main.c **** uint8_t counterbut1 = 0;
  21:Core/Src/main.c **** uint8_t counterbut2 = 0;
  22:Core/Src/main.c **** uint8_t flagbut1 = 0, flagbut2 = 0;
  23:Core/Src/main.c **** uint8_t flagbut1long = 0, flagbut2long = 0;
  24:Core/Src/main.c **** 
  25:Core/Src/main.c **** void LedVal_Init();
  26:Core/Src/main.c **** void Led_light();
  27:Core/Src/main.c **** 
  28:Core/Src/main.c **** int main(void) 
  29:Core/Src/main.c **** { 
  30:Core/Src/main.c ****     GPIO_Init_Self();
  31:Core/Src/main.c ****     GPIO_Init_CMSIS();
  32:Core/Src/main.c ****     RCC_Init(); // –ò–Ω–∏—Ü–∏–∞–ª–∏–∑–∞—Ü–∏—è —Ç–∞–∫—Ç–∏—Ä–æ–≤–∞–Ω–∏—è —Å–∏—Å—Ç–µ–º—ã 
ARM GAS  C:\Users\rpong\AppData\Local\Temp\cczeLlvf.s 			page 2


  33:Core/Src/main.c ****     ITR_Init();// –ò–Ω–∏—Ü–∏–∞–ª–∏–∑–∞—Ü–∏—è –ø—Ä–µ—Ä—ã–≤–∞–Ω–∏–π  
  34:Core/Src/main.c ****     SysTick_Init();
  35:Core/Src/main.c ****     LedVal_Init();
  36:Core/Src/main.c ****     while (1) 
  37:Core/Src/main.c ****     {
  38:Core/Src/main.c ****         for (uint8_t i = 0; i < 6; i++){
  39:Core/Src/main.c ****             if (LedCount[i] >= LedLoad[i])
  40:Core/Src/main.c ****             {
  41:Core/Src/main.c ****                 LedCount[i] = 0;
  42:Core/Src/main.c ****                 if (Ledflag[1][i] == 1)
  43:Core/Src/main.c ****                 {         
  44:Core/Src/main.c ****                     Ledflag[1][i] = 0;
  45:Core/Src/main.c ****                 }
  46:Core/Src/main.c ****                 else
  47:Core/Src/main.c ****                 {
  48:Core/Src/main.c ****                     Ledflag[1][i] = 1;
  49:Core/Src/main.c ****                 }
  50:Core/Src/main.c ****                 //
  51:Core/Src/main.c ****                 Led1flag = Ledflag[1][0];
  52:Core/Src/main.c ****                 Led2flag = Ledflag[1][1];
  53:Core/Src/main.c ****             }
  54:Core/Src/main.c ****             
  55:Core/Src/main.c ****         }
  56:Core/Src/main.c ****         Numb = CurrentState%7;
  57:Core/Src/main.c ****         if (Numb != 0)
  58:Core/Src/main.c ****         {
  59:Core/Src/main.c ****             for (uint8_t i = 0; i < Numb; i++){
  60:Core/Src/main.c ****                 Ledflag[0][i] = 1;
  61:Core/Src/main.c ****             }
  62:Core/Src/main.c ****         }
  63:Core/Src/main.c ****         else
  64:Core/Src/main.c ****         {
  65:Core/Src/main.c ****             for (uint8_t i = 0; i < 6; i++)
  66:Core/Src/main.c ****             {
  67:Core/Src/main.c ****                 Ledflag[0][i] = 0;
  68:Core/Src/main.c ****             }
  69:Core/Src/main.c ****             CurrentState = 0;
  70:Core/Src/main.c ****         }
  71:Core/Src/main.c ****         if(flagbut1long == 1){ 
  72:Core/Src/main.c ****             if (LedCurrfreq[CurrentLed][0] >= 3)
  73:Core/Src/main.c ****             {
  74:Core/Src/main.c ****                 LedCurrfreq[CurrentLed][0] = 0;
  75:Core/Src/main.c ****             }
  76:Core/Src/main.c ****             LedLoad[CurrentLed%6] = LedSetLoad[LedCurrfreq[CurrentLed][1]][LedCurrfreq[CurrentLed][
  77:Core/Src/main.c ****             //LedLoad[CurrentLed%6] = LedSetLoad[counterbut2][counterbut1 % 3];
  78:Core/Src/main.c ****             flagbut1long = 0;
  79:Core/Src/main.c ****         } 
  80:Core/Src/main.c ****         if(flagbut2long == 1){     
  81:Core/Src/main.c ****             if (LedCurrfreq[CurrentLed][1] >= 3)
  82:Core/Src/main.c ****             {
  83:Core/Src/main.c ****                 LedCurrfreq[CurrentLed][1] = 0;
  84:Core/Src/main.c ****             }
  85:Core/Src/main.c ****             LedLoad[CurrentLed%6] = LedSetLoad[LedCurrfreq[CurrentLed][1]][LedCurrfreq[CurrentLed][
  86:Core/Src/main.c ****             //LedLoad[CurrentLed%6] = LedSetLoad[counterbut2][counterbut1 % 3];
  87:Core/Src/main.c ****             flagbut2long = 0;
  88:Core/Src/main.c ****         }
  89:Core/Src/main.c ****         if(flagbut1 == 1 && READ_BIT(GPIOC->IDR, GPIO_IDR_ID6) == 0  && GlobalTickBut1Wait >= 50){ 
ARM GAS  C:\Users\rpong\AppData\Local\Temp\cczeLlvf.s 			page 3


  90:Core/Src/main.c ****             flagbut1 = 0;
  91:Core/Src/main.c ****         }  
  92:Core/Src/main.c ****         if(flagbut2 == 1 && READ_BIT(GPIOC->IDR, GPIO_IDR_ID13) == 0 && GlobalTickBut2Wait >= 50){ 
  93:Core/Src/main.c ****             flagbut2 = 0;
  94:Core/Src/main.c ****         }  
  95:Core/Src/main.c ****         Led_light();
  96:Core/Src/main.c ****     } 
  97:Core/Src/main.c **** } 
  98:Core/Src/main.c **** 
  99:Core/Src/main.c **** void Led_light()
 100:Core/Src/main.c **** {
  27              		.loc 1 100 1 view -0
  28              		.cfi_startproc
  29              		@ args = 0, pretend = 0, frame = 0
  30              		@ frame_needed = 0, uses_anonymous_args = 0
  31              		@ link register save eliminated.
 101:Core/Src/main.c ****     uint32_t ODR_clear = 0x0UL;
  32              		.loc 1 101 5 view .LVU1
  33              	.LVL0:
 102:Core/Src/main.c ****     uint32_t ODR_set = 0x0UL;
  34              		.loc 1 102 5 view .LVU2
 103:Core/Src/main.c ****     for (uint8_t i = 0; i < 6; i++){
  35              		.loc 1 103 5 view .LVU3
  36              	.LBB2:
  37              		.loc 1 103 10 view .LVU4
  38              		.loc 1 103 18 is_stmt 0 view .LVU5
  39 0000 0023     		movs	r3, #0
  40              	.LBE2:
 102:Core/Src/main.c ****     uint32_t ODR_set = 0x0UL;
  41              		.loc 1 102 14 view .LVU6
  42 0002 9C46     		mov	ip, r3
 101:Core/Src/main.c ****     uint32_t ODR_clear = 0x0UL;
  43              		.loc 1 101 14 view .LVU7
  44 0004 1946     		mov	r1, r3
  45              	.LBB3:
  46              		.loc 1 103 5 view .LVU8
  47 0006 06E0     		b	.L2
  48              	.LVL1:
  49              	.L3:
 104:Core/Src/main.c ****         if ((Ledflag[0][i] == 1) && (Ledflag[1][i] == 1)){
 105:Core/Src/main.c ****             ODR_set = ODR_set + (0x1UL<<(LedOffset[i]));
 106:Core/Src/main.c ****         }
 107:Core/Src/main.c ****         else{
 108:Core/Src/main.c ****             ODR_clear = ODR_clear + (0x1UL<<(LedOffset[i]));
  50              		.loc 1 108 13 is_stmt 1 view .LVU9
  51              		.loc 1 108 55 is_stmt 0 view .LVU10
  52 0008 1048     		ldr	r0, .L7
  53 000a 805C     		ldrb	r0, [r0, r2]	@ zero_extendqisi2
  54              		.loc 1 108 43 view .LVU11
  55 000c 0122     		movs	r2, #1
  56 000e 8240     		lsls	r2, r2, r0
  57              		.loc 1 108 23 view .LVU12
  58 0010 1144     		add	r1, r1, r2
  59              	.LVL2:
  60              	.L4:
 103:Core/Src/main.c ****     for (uint8_t i = 0; i < 6; i++){
  61              		.loc 1 103 33 is_stmt 1 discriminator 2 view .LVU13
ARM GAS  C:\Users\rpong\AppData\Local\Temp\cczeLlvf.s 			page 4


  62 0012 0133     		adds	r3, r3, #1
  63              	.LVL3:
 103:Core/Src/main.c ****     for (uint8_t i = 0; i < 6; i++){
  64              		.loc 1 103 33 is_stmt 0 discriminator 2 view .LVU14
  65 0014 DBB2     		uxtb	r3, r3
  66              	.LVL4:
  67              	.L2:
 103:Core/Src/main.c ****     for (uint8_t i = 0; i < 6; i++){
  68              		.loc 1 103 27 is_stmt 1 discriminator 1 view .LVU15
  69 0016 052B     		cmp	r3, #5
  70 0018 0FD8     		bhi	.L6
 104:Core/Src/main.c ****         if ((Ledflag[0][i] == 1) && (Ledflag[1][i] == 1)){
  71              		.loc 1 104 9 view .LVU16
 104:Core/Src/main.c ****         if ((Ledflag[0][i] == 1) && (Ledflag[1][i] == 1)){
  72              		.loc 1 104 24 is_stmt 0 view .LVU17
  73 001a 1A46     		mov	r2, r3
  74 001c 0C48     		ldr	r0, .L7+4
  75 001e C05C     		ldrb	r0, [r0, r3]	@ zero_extendqisi2
 104:Core/Src/main.c ****         if ((Ledflag[0][i] == 1) && (Ledflag[1][i] == 1)){
  76              		.loc 1 104 12 view .LVU18
  77 0020 0128     		cmp	r0, #1
  78 0022 F1D1     		bne	.L3
 104:Core/Src/main.c ****         if ((Ledflag[0][i] == 1) && (Ledflag[1][i] == 1)){
  79              		.loc 1 104 48 discriminator 1 view .LVU19
  80 0024 0A48     		ldr	r0, .L7+4
  81 0026 1844     		add	r0, r0, r3
  82 0028 8079     		ldrb	r0, [r0, #6]	@ zero_extendqisi2
 104:Core/Src/main.c ****         if ((Ledflag[0][i] == 1) && (Ledflag[1][i] == 1)){
  83              		.loc 1 104 34 discriminator 1 view .LVU20
  84 002a 0128     		cmp	r0, #1
  85 002c ECD1     		bne	.L3
 105:Core/Src/main.c ****         }
  86              		.loc 1 105 13 is_stmt 1 view .LVU21
 105:Core/Src/main.c ****         }
  87              		.loc 1 105 51 is_stmt 0 view .LVU22
  88 002e 0748     		ldr	r0, .L7
  89 0030 C05C     		ldrb	r0, [r0, r3]	@ zero_extendqisi2
 105:Core/Src/main.c ****         }
  90              		.loc 1 105 39 view .LVU23
  91 0032 0122     		movs	r2, #1
  92 0034 8240     		lsls	r2, r2, r0
 105:Core/Src/main.c ****         }
  93              		.loc 1 105 21 view .LVU24
  94 0036 9444     		add	ip, ip, r2
  95              	.LVL5:
 105:Core/Src/main.c ****         }
  96              		.loc 1 105 21 view .LVU25
  97 0038 EBE7     		b	.L4
  98              	.L6:
 105:Core/Src/main.c ****         }
  99              		.loc 1 105 21 view .LVU26
 100              	.LBE3:
 109:Core/Src/main.c ****         }
 110:Core/Src/main.c ****     }
 111:Core/Src/main.c ****     MODIFY_REG(GPIOB->ODR,ODR_clear,ODR_set);
 101              		.loc 1 111 5 is_stmt 1 view .LVU27
 102 003a 064A     		ldr	r2, .L7+8
ARM GAS  C:\Users\rpong\AppData\Local\Temp\cczeLlvf.s 			page 5


 103 003c 5369     		ldr	r3, [r2, #20]
 104              	.LVL6:
 105              		.loc 1 111 5 is_stmt 0 view .LVU28
 106 003e 23EA0103 		bic	r3, r3, r1
 107 0042 43EA0C03 		orr	r3, r3, ip
 108 0046 5361     		str	r3, [r2, #20]
 112:Core/Src/main.c **** }
 109              		.loc 1 112 1 view .LVU29
 110 0048 7047     		bx	lr
 111              	.L8:
 112 004a 00BF     		.align	2
 113              	.L7:
 114 004c 00000000 		.word	LedOffset
 115 0050 00000000 		.word	Ledflag
 116 0054 00040240 		.word	1073873920
 117              		.cfi_endproc
 118              	.LFE131:
 120              		.section	.text.LedVal_Init,"ax",%progbits
 121              		.align	1
 122              		.global	LedVal_Init
 123              		.syntax unified
 124              		.thumb
 125              		.thumb_func
 127              	LedVal_Init:
 128              	.LFB132:
 113:Core/Src/main.c **** 
 114:Core/Src/main.c **** void LedVal_Init()
 115:Core/Src/main.c **** {
 129              		.loc 1 115 1 is_stmt 1 view -0
 130              		.cfi_startproc
 131              		@ args = 0, pretend = 0, frame = 0
 132              		@ frame_needed = 0, uses_anonymous_args = 0
 133              		@ link register save eliminated.
 116:Core/Src/main.c ****     for (uint8_t i = 0; i < 6; i++){
 134              		.loc 1 116 5 view .LVU31
 135              	.LBB4:
 136              		.loc 1 116 10 view .LVU32
 137              	.LVL7:
 138              		.loc 1 116 18 is_stmt 0 view .LVU33
 139 0000 0023     		movs	r3, #0
 140              		.loc 1 116 5 view .LVU34
 141 0002 13E0     		b	.L10
 142              	.LVL8:
 143              	.L11:
 117:Core/Src/main.c ****         LedLoad[i] = LedSetLoad[LedCurrfreq[i][0]][LedCurrfreq[i][1]];
 144              		.loc 1 117 9 is_stmt 1 view .LVU35
 145              		.loc 1 117 47 is_stmt 0 view .LVU36
 146 0004 0B49     		ldr	r1, .L12
 147 0006 11F81320 		ldrb	r2, [r1, r3, lsl #1]	@ zero_extendqisi2
 148              		.loc 1 117 66 view .LVU37
 149 000a 01EB4301 		add	r1, r1, r3, lsl #1
 150 000e 4978     		ldrb	r1, [r1, #1]	@ zero_extendqisi2
 151              		.loc 1 117 51 view .LVU38
 152 0010 02EB4202 		add	r2, r2, r2, lsl #1
 153 0014 0A44     		add	r2, r2, r1
 154 0016 0849     		ldr	r1, .L12+4
 155 0018 31F81220 		ldrh	r2, [r1, r2, lsl #1]
ARM GAS  C:\Users\rpong\AppData\Local\Temp\cczeLlvf.s 			page 6


 156              		.loc 1 117 20 view .LVU39
 157 001c 0749     		ldr	r1, .L12+8
 158 001e 21F81320 		strh	r2, [r1, r3, lsl #1]	@ movhi
 118:Core/Src/main.c ****         LedCount[i] = LedLoad[i];
 159              		.loc 1 118 9 is_stmt 1 view .LVU40
 160              		.loc 1 118 21 is_stmt 0 view .LVU41
 161 0022 0749     		ldr	r1, .L12+12
 162 0024 21F81320 		strh	r2, [r1, r3, lsl #1]	@ movhi
 116:Core/Src/main.c ****     for (uint8_t i = 0; i < 6; i++){
 163              		.loc 1 116 33 is_stmt 1 discriminator 3 view .LVU42
 164 0028 0133     		adds	r3, r3, #1
 165              	.LVL9:
 116:Core/Src/main.c ****     for (uint8_t i = 0; i < 6; i++){
 166              		.loc 1 116 33 is_stmt 0 discriminator 3 view .LVU43
 167 002a DBB2     		uxtb	r3, r3
 168              	.LVL10:
 169              	.L10:
 116:Core/Src/main.c ****     for (uint8_t i = 0; i < 6; i++){
 170              		.loc 1 116 27 is_stmt 1 discriminator 1 view .LVU44
 171 002c 052B     		cmp	r3, #5
 172 002e E9D9     		bls	.L11
 173              	.LBE4:
 119:Core/Src/main.c ****     }
 120:Core/Src/main.c **** }...
 174              		.loc 1 120 1 is_stmt 0 view .LVU45
 175 0030 7047     		bx	lr
 176              	.L13:
 177 0032 00BF     		.align	2
 178              	.L12:
 179 0034 00000000 		.word	LedCurrfreq
 180 0038 00000000 		.word	LedSetLoad
 181 003c 00000000 		.word	LedLoad
 182 0040 00000000 		.word	LedCount
 183              		.cfi_endproc
 184              	.LFE132:
 186              		.section	.text.main,"ax",%progbits
 187              		.align	1
 188              		.global	main
 189              		.syntax unified
 190              		.thumb
 191              		.thumb_func
 193              	main:
 194              	.LFB130:
  29:Core/Src/main.c **** { 
 195              		.loc 1 29 1 is_stmt 1 view -0
 196              		.cfi_startproc
 197              		@ args = 0, pretend = 0, frame = 0
 198              		@ frame_needed = 0, uses_anonymous_args = 0
 199 0000 08B5     		push	{r3, lr}
 200              	.LCFI0:
 201              		.cfi_def_cfa_offset 8
 202              		.cfi_offset 3, -8
 203              		.cfi_offset 14, -4
  30:Core/Src/main.c ****     GPIO_Init_Self();
 204              		.loc 1 30 5 view .LVU47
 205 0002 FFF7FEFF 		bl	GPIO_Init_Self
 206              	.LVL11:
ARM GAS  C:\Users\rpong\AppData\Local\Temp\cczeLlvf.s 			page 7


  31:Core/Src/main.c ****     GPIO_Init_CMSIS();
 207              		.loc 1 31 5 view .LVU48
 208 0006 FFF7FEFF 		bl	GPIO_Init_CMSIS
 209              	.LVL12:
  32:Core/Src/main.c ****     RCC_Init(); // –ò–Ω–∏—Ü–∏–∞–ª–∏–∑–∞—Ü–∏—è —Ç–∞–∫—Ç–∏—Ä–æ–≤–∞–Ω–∏—è —Å–∏—Å—Ç–µ–º—ã 
 210              		.loc 1 32 5 view .LVU49
 211 000a FFF7FEFF 		bl	RCC_Init
 212              	.LVL13:
  33:Core/Src/main.c ****     ITR_Init();// –ò–Ω–∏—Ü–∏–∞–ª–∏–∑–∞—Ü–∏—è –ø—Ä–µ—Ä—ã–≤–∞–Ω–∏–π  
 213              		.loc 1 33 5 view .LVU50
 214 000e FFF7FEFF 		bl	ITR_Init
 215              	.LVL14:
  34:Core/Src/main.c ****     SysTick_Init();
 216              		.loc 1 34 5 view .LVU51
 217 0012 FFF7FEFF 		bl	SysTick_Init
 218              	.LVL15:
  35:Core/Src/main.c ****     LedVal_Init();
 219              		.loc 1 35 5 view .LVU52
 220 0016 FFF7FEFF 		bl	LedVal_Init
 221              	.LVL16:
 222 001a 65E0     		b	.L31
 223              	.LVL17:
 224              	.L35:
 225              	.LBB5:
  44:Core/Src/main.c ****                     Ledflag[1][i] = 0;
 226              		.loc 1 44 21 view .LVU53
  44:Core/Src/main.c ****                     Ledflag[1][i] = 0;
 227              		.loc 1 44 35 is_stmt 0 view .LVU54
 228 001c 624A     		ldr	r2, .L40
 229 001e 1A44     		add	r2, r2, r3
 230 0020 9171     		strb	r1, [r2, #6]
 231              	.L18:
  51:Core/Src/main.c ****                 Led1flag = Ledflag[1][0];
 232              		.loc 1 51 17 is_stmt 1 view .LVU55
  51:Core/Src/main.c ****                 Led1flag = Ledflag[1][0];
 233              		.loc 1 51 38 is_stmt 0 view .LVU56
 234 0022 614A     		ldr	r2, .L40
 235 0024 9079     		ldrb	r0, [r2, #6]	@ zero_extendqisi2
  51:Core/Src/main.c ****                 Led1flag = Ledflag[1][0];
 236              		.loc 1 51 26 view .LVU57
 237 0026 6149     		ldr	r1, .L40+4
 238 0028 0870     		strb	r0, [r1]
  52:Core/Src/main.c ****                 Led2flag = Ledflag[1][1];
 239              		.loc 1 52 17 is_stmt 1 view .LVU58
  52:Core/Src/main.c ****                 Led2flag = Ledflag[1][1];
 240              		.loc 1 52 38 is_stmt 0 view .LVU59
 241 002a D179     		ldrb	r1, [r2, #7]	@ zero_extendqisi2
  52:Core/Src/main.c ****                 Led2flag = Ledflag[1][1];
 242              		.loc 1 52 26 view .LVU60
 243 002c 604A     		ldr	r2, .L40+8
 244 002e 1170     		strb	r1, [r2]
 245              	.L16:
  38:Core/Src/main.c ****         for (uint8_t i = 0; i < 6; i++){
 246              		.loc 1 38 37 is_stmt 1 discriminator 2 view .LVU61
 247 0030 0133     		adds	r3, r3, #1
 248              	.LVL18:
  38:Core/Src/main.c ****         for (uint8_t i = 0; i < 6; i++){
ARM GAS  C:\Users\rpong\AppData\Local\Temp\cczeLlvf.s 			page 8


 249              		.loc 1 38 37 is_stmt 0 discriminator 2 view .LVU62
 250 0032 DBB2     		uxtb	r3, r3
 251              	.LVL19:
 252              	.L15:
  38:Core/Src/main.c ****         for (uint8_t i = 0; i < 6; i++){
 253              		.loc 1 38 31 is_stmt 1 discriminator 1 view .LVU63
 254 0034 052B     		cmp	r3, #5
 255 0036 15D8     		bhi	.L34
  39:Core/Src/main.c ****             if (LedCount[i] >= LedLoad[i])
 256              		.loc 1 39 13 view .LVU64
  39:Core/Src/main.c ****             if (LedCount[i] >= LedLoad[i])
 257              		.loc 1 39 25 is_stmt 0 view .LVU65
 258 0038 5E4A     		ldr	r2, .L40+12
 259 003a 32F81310 		ldrh	r1, [r2, r3, lsl #1]
  39:Core/Src/main.c ****             if (LedCount[i] >= LedLoad[i])
 260              		.loc 1 39 39 view .LVU66
 261 003e 5E4A     		ldr	r2, .L40+16
 262 0040 32F81320 		ldrh	r2, [r2, r3, lsl #1]
  39:Core/Src/main.c ****             if (LedCount[i] >= LedLoad[i])
 263              		.loc 1 39 16 view .LVU67
 264 0044 9142     		cmp	r1, r2
 265 0046 F3D3     		bcc	.L16
  41:Core/Src/main.c ****                 LedCount[i] = 0;
 266              		.loc 1 41 17 is_stmt 1 view .LVU68
  41:Core/Src/main.c ****                 LedCount[i] = 0;
 267              		.loc 1 41 29 is_stmt 0 view .LVU69
 268 0048 5A4A     		ldr	r2, .L40+12
 269 004a 0021     		movs	r1, #0
 270 004c 22F81310 		strh	r1, [r2, r3, lsl #1]	@ movhi
  42:Core/Src/main.c ****                 if (Ledflag[1][i] == 1)
 271              		.loc 1 42 17 is_stmt 1 view .LVU70
  42:Core/Src/main.c ****                 if (Ledflag[1][i] == 1)
 272              		.loc 1 42 31 is_stmt 0 view .LVU71
 273 0050 554A     		ldr	r2, .L40
 274 0052 1A44     		add	r2, r2, r3
 275 0054 9279     		ldrb	r2, [r2, #6]	@ zero_extendqisi2
  42:Core/Src/main.c ****                 if (Ledflag[1][i] == 1)
 276              		.loc 1 42 20 view .LVU72
 277 0056 012A     		cmp	r2, #1
 278 0058 E0D0     		beq	.L35
  48:Core/Src/main.c ****                     Ledflag[1][i] = 1;
 279              		.loc 1 48 21 is_stmt 1 view .LVU73
  48:Core/Src/main.c ****                     Ledflag[1][i] = 1;
 280              		.loc 1 48 35 is_stmt 0 view .LVU74
 281 005a 534A     		ldr	r2, .L40
 282 005c 1A44     		add	r2, r2, r3
 283 005e 0121     		movs	r1, #1
 284 0060 9171     		strb	r1, [r2, #6]
 285 0062 DEE7     		b	.L18
 286              	.L34:
 287              	.LBE5:
  56:Core/Src/main.c ****         Numb = CurrentState%7;
 288              		.loc 1 56 9 is_stmt 1 view .LVU75
  56:Core/Src/main.c ****         Numb = CurrentState%7;
 289              		.loc 1 56 14 is_stmt 0 view .LVU76
 290 0064 554B     		ldr	r3, .L40+20
 291              	.LVL20:
ARM GAS  C:\Users\rpong\AppData\Local\Temp\cczeLlvf.s 			page 9


  56:Core/Src/main.c ****         Numb = CurrentState%7;
 292              		.loc 1 56 14 view .LVU77
 293 0066 1B78     		ldrb	r3, [r3]	@ zero_extendqisi2
 294 0068 554A     		ldr	r2, .L40+24
 295 006a A2FB0312 		umull	r1, r2, r2, r3
 296 006e 991A     		subs	r1, r3, r2
 297 0070 02EB5102 		add	r2, r2, r1, lsr #1
 298 0074 9208     		lsrs	r2, r2, #2
 299 0076 C2EBC202 		rsb	r2, r2, r2, lsl #3
 300 007a 9B1A     		subs	r3, r3, r2
 301 007c DBB2     		uxtb	r3, r3
 302 007e 514A     		ldr	r2, .L40+28
 303 0080 1370     		strb	r3, [r2]
  57:Core/Src/main.c ****         if (Numb != 0)
 304              		.loc 1 57 9 is_stmt 1 view .LVU78
  57:Core/Src/main.c ****         if (Numb != 0)
 305              		.loc 1 57 12 is_stmt 0 view .LVU79
 306 0082 3BB9     		cbnz	r3, .L32
 307              	.L21:
 308              	.LVL21:
 309              	.LBB6:
  65:Core/Src/main.c ****             for (uint8_t i = 0; i < 6; i++)
 310              		.loc 1 65 35 is_stmt 1 discriminator 1 view .LVU80
 311 0084 052B     		cmp	r3, #5
 312 0086 0ED8     		bhi	.L36
  67:Core/Src/main.c ****                 Ledflag[0][i] = 0;
 313              		.loc 1 67 17 view .LVU81
  67:Core/Src/main.c ****                 Ledflag[0][i] = 0;
 314              		.loc 1 67 31 is_stmt 0 view .LVU82
 315 0088 474A     		ldr	r2, .L40
 316 008a 0021     		movs	r1, #0
 317 008c D154     		strb	r1, [r2, r3]
  65:Core/Src/main.c ****             for (uint8_t i = 0; i < 6; i++)
 318              		.loc 1 65 41 is_stmt 1 discriminator 3 view .LVU83
 319 008e 0133     		adds	r3, r3, #1
 320              	.LVL22:
  65:Core/Src/main.c ****             for (uint8_t i = 0; i < 6; i++)
 321              		.loc 1 65 41 is_stmt 0 discriminator 3 view .LVU84
 322 0090 DBB2     		uxtb	r3, r3
 323              	.LVL23:
  65:Core/Src/main.c ****             for (uint8_t i = 0; i < 6; i++)
 324              		.loc 1 65 41 discriminator 3 view .LVU85
 325 0092 F7E7     		b	.L21
 326              	.LVL24:
 327              	.L32:
  65:Core/Src/main.c ****             for (uint8_t i = 0; i < 6; i++)
 328              		.loc 1 65 41 discriminator 3 view .LVU86
 329              	.LBE6:
 330              	.LBB7:
  59:Core/Src/main.c ****             for (uint8_t i = 0; i < Numb; i++){
 331              		.loc 1 59 26 view .LVU87
 332 0094 0022     		movs	r2, #0
 333              	.L20:
 334              	.LVL25:
  59:Core/Src/main.c ****             for (uint8_t i = 0; i < Numb; i++){
 335              		.loc 1 59 35 is_stmt 1 discriminator 1 view .LVU88
 336 0096 9342     		cmp	r3, r2
ARM GAS  C:\Users\rpong\AppData\Local\Temp\cczeLlvf.s 			page 10


 337 0098 08D9     		bls	.L23
  60:Core/Src/main.c ****                 Ledflag[0][i] = 1;
 338              		.loc 1 60 17 view .LVU89
  60:Core/Src/main.c ****                 Ledflag[0][i] = 1;
 339              		.loc 1 60 31 is_stmt 0 view .LVU90
 340 009a 4349     		ldr	r1, .L40
 341 009c 0120     		movs	r0, #1
 342 009e 8854     		strb	r0, [r1, r2]
  59:Core/Src/main.c ****             for (uint8_t i = 0; i < Numb; i++){
 343              		.loc 1 59 44 is_stmt 1 discriminator 3 view .LVU91
 344 00a0 0244     		add	r2, r2, r0
 345              	.LVL26:
  59:Core/Src/main.c ****             for (uint8_t i = 0; i < Numb; i++){
 346              		.loc 1 59 44 is_stmt 0 discriminator 3 view .LVU92
 347 00a2 D2B2     		uxtb	r2, r2
 348              	.LVL27:
  59:Core/Src/main.c ****             for (uint8_t i = 0; i < Numb; i++){
 349              		.loc 1 59 44 discriminator 3 view .LVU93
 350 00a4 F7E7     		b	.L20
 351              	.LVL28:
 352              	.L36:
  59:Core/Src/main.c ****             for (uint8_t i = 0; i < Numb; i++){
 353              		.loc 1 59 44 discriminator 3 view .LVU94
 354              	.LBE7:
  69:Core/Src/main.c ****             CurrentState = 0;
 355              		.loc 1 69 13 is_stmt 1 view .LVU95
  69:Core/Src/main.c ****             CurrentState = 0;
 356              		.loc 1 69 26 is_stmt 0 view .LVU96
 357 00a6 454B     		ldr	r3, .L40+20
 358              	.LVL29:
  69:Core/Src/main.c ****             CurrentState = 0;
 359              		.loc 1 69 26 view .LVU97
 360 00a8 0022     		movs	r2, #0
 361 00aa 1A70     		strb	r2, [r3]
 362              	.LVL30:
 363              	.L23:
  71:Core/Src/main.c ****         if(flagbut1long == 1){ 
 364              		.loc 1 71 9 is_stmt 1 view .LVU98
  71:Core/Src/main.c ****         if(flagbut1long == 1){ 
 365              		.loc 1 71 25 is_stmt 0 view .LVU99
 366 00ac 464B     		ldr	r3, .L40+32
 367 00ae 1B78     		ldrb	r3, [r3]	@ zero_extendqisi2
  71:Core/Src/main.c ****         if(flagbut1long == 1){ 
 368              		.loc 1 71 11 view .LVU100
 369 00b0 012B     		cmp	r3, #1
 370 00b2 1BD0     		beq	.L37
 371              	.L25:
  80:Core/Src/main.c ****         if(flagbut2long == 1){     
 372              		.loc 1 80 9 is_stmt 1 view .LVU101
  80:Core/Src/main.c ****         if(flagbut2long == 1){     
 373              		.loc 1 80 25 is_stmt 0 view .LVU102
 374 00b4 454B     		ldr	r3, .L40+36
 375 00b6 1B78     		ldrb	r3, [r3]	@ zero_extendqisi2
  80:Core/Src/main.c ****         if(flagbut2long == 1){     
 376              		.loc 1 80 11 view .LVU103
 377 00b8 012B     		cmp	r3, #1
 378 00ba 3ED0     		beq	.L38
ARM GAS  C:\Users\rpong\AppData\Local\Temp\cczeLlvf.s 			page 11


 379              	.L27:
  89:Core/Src/main.c ****         if(flagbut1 == 1 && READ_BIT(GPIOC->IDR, GPIO_IDR_ID6) == 0  && GlobalTickBut1Wait >= 50){ 
 380              		.loc 1 89 9 is_stmt 1 view .LVU104
  89:Core/Src/main.c ****         if(flagbut1 == 1 && READ_BIT(GPIOC->IDR, GPIO_IDR_ID6) == 0  && GlobalTickBut1Wait >= 50){ 
 381              		.loc 1 89 21 is_stmt 0 view .LVU105
 382 00bc 444B     		ldr	r3, .L40+40
 383 00be 1B78     		ldrb	r3, [r3]	@ zero_extendqisi2
  89:Core/Src/main.c ****         if(flagbut1 == 1 && READ_BIT(GPIOC->IDR, GPIO_IDR_ID6) == 0  && GlobalTickBut1Wait >= 50){ 
 384              		.loc 1 89 11 view .LVU106
 385 00c0 012B     		cmp	r3, #1
 386 00c2 63D0     		beq	.L39
 387              	.L29:
  92:Core/Src/main.c ****         if(flagbut2 == 1 && READ_BIT(GPIOC->IDR, GPIO_IDR_ID13) == 0 && GlobalTickBut2Wait >= 50){ 
 388              		.loc 1 92 9 is_stmt 1 view .LVU107
  92:Core/Src/main.c ****         if(flagbut2 == 1 && READ_BIT(GPIOC->IDR, GPIO_IDR_ID13) == 0 && GlobalTickBut2Wait >= 50){ 
 389              		.loc 1 92 21 is_stmt 0 view .LVU108
 390 00c4 434B     		ldr	r3, .L40+44
 391 00c6 1B78     		ldrb	r3, [r3]	@ zero_extendqisi2
  92:Core/Src/main.c ****         if(flagbut2 == 1 && READ_BIT(GPIOC->IDR, GPIO_IDR_ID13) == 0 && GlobalTickBut2Wait >= 50){ 
 392              		.loc 1 92 11 view .LVU109
 393 00c8 012B     		cmp	r3, #1
 394 00ca 0BD1     		bne	.L30
  92:Core/Src/main.c ****         if(flagbut2 == 1 && READ_BIT(GPIOC->IDR, GPIO_IDR_ID13) == 0 && GlobalTickBut2Wait >= 50){ 
 395              		.loc 1 92 29 discriminator 1 view .LVU110
 396 00cc 424B     		ldr	r3, .L40+48
 397 00ce 1B69     		ldr	r3, [r3, #16]
  92:Core/Src/main.c ****         if(flagbut2 == 1 && READ_BIT(GPIOC->IDR, GPIO_IDR_ID13) == 0 && GlobalTickBut2Wait >= 50){ 
 398              		.loc 1 92 26 discriminator 1 view .LVU111
 399 00d0 13F4005F 		tst	r3, #8192
 400 00d4 06D1     		bne	.L30
  92:Core/Src/main.c ****         if(flagbut2 == 1 && READ_BIT(GPIOC->IDR, GPIO_IDR_ID13) == 0 && GlobalTickBut2Wait >= 50){ 
 401              		.loc 1 92 92 discriminator 2 view .LVU112
 402 00d6 414B     		ldr	r3, .L40+52
 403 00d8 1B68     		ldr	r3, [r3]
  92:Core/Src/main.c ****         if(flagbut2 == 1 && READ_BIT(GPIOC->IDR, GPIO_IDR_ID13) == 0 && GlobalTickBut2Wait >= 50){ 
 404              		.loc 1 92 70 discriminator 2 view .LVU113
 405 00da 312B     		cmp	r3, #49
 406 00dc 02D9     		bls	.L30
  93:Core/Src/main.c ****             flagbut2 = 0;
 407              		.loc 1 93 13 is_stmt 1 view .LVU114
  93:Core/Src/main.c ****             flagbut2 = 0;
 408              		.loc 1 93 22 is_stmt 0 view .LVU115
 409 00de 3D4B     		ldr	r3, .L40+44
 410 00e0 0022     		movs	r2, #0
 411 00e2 1A70     		strb	r2, [r3]
 412              	.L30:
  95:Core/Src/main.c ****         Led_light();
 413              		.loc 1 95 9 is_stmt 1 view .LVU116
 414 00e4 FFF7FEFF 		bl	Led_light
 415              	.LVL31:
  36:Core/Src/main.c ****     while (1) 
 416              		.loc 1 36 11 view .LVU117
 417              	.L31:
  36:Core/Src/main.c ****     while (1) 
 418              		.loc 1 36 5 view .LVU118
  38:Core/Src/main.c ****         for (uint8_t i = 0; i < 6; i++){
 419              		.loc 1 38 9 view .LVU119
ARM GAS  C:\Users\rpong\AppData\Local\Temp\cczeLlvf.s 			page 12


 420              	.LBB8:
  38:Core/Src/main.c ****         for (uint8_t i = 0; i < 6; i++){
 421              		.loc 1 38 14 view .LVU120
  38:Core/Src/main.c ****         for (uint8_t i = 0; i < 6; i++){
 422              		.loc 1 38 22 is_stmt 0 view .LVU121
 423 00e8 0023     		movs	r3, #0
  38:Core/Src/main.c ****         for (uint8_t i = 0; i < 6; i++){
 424              		.loc 1 38 9 view .LVU122
 425 00ea A3E7     		b	.L15
 426              	.LVL32:
 427              	.L37:
  38:Core/Src/main.c ****         for (uint8_t i = 0; i < 6; i++){
 428              		.loc 1 38 9 view .LVU123
 429              	.LBE8:
  72:Core/Src/main.c ****             if (LedCurrfreq[CurrentLed][0] >= 3)
 430              		.loc 1 72 13 is_stmt 1 view .LVU124
  72:Core/Src/main.c ****             if (LedCurrfreq[CurrentLed][0] >= 3)
 431              		.loc 1 72 40 is_stmt 0 view .LVU125
 432 00ec 3C4B     		ldr	r3, .L40+56
 433 00ee 1B78     		ldrb	r3, [r3]	@ zero_extendqisi2
 434 00f0 3C4A     		ldr	r2, .L40+60
 435 00f2 12F81320 		ldrb	r2, [r2, r3, lsl #1]	@ zero_extendqisi2
  72:Core/Src/main.c ****             if (LedCurrfreq[CurrentLed][0] >= 3)
 436              		.loc 1 72 16 view .LVU126
 437 00f6 022A     		cmp	r2, #2
 438 00f8 03D9     		bls	.L26
  74:Core/Src/main.c ****                 LedCurrfreq[CurrentLed][0] = 0;
 439              		.loc 1 74 17 is_stmt 1 view .LVU127
  74:Core/Src/main.c ****                 LedCurrfreq[CurrentLed][0] = 0;
 440              		.loc 1 74 44 is_stmt 0 view .LVU128
 441 00fa 3A4A     		ldr	r2, .L40+60
 442 00fc 0021     		movs	r1, #0
 443 00fe 02F81310 		strb	r1, [r2, r3, lsl #1]
 444              	.L26:
  76:Core/Src/main.c ****             LedLoad[CurrentLed%6] = LedSetLoad[LedCurrfreq[CurrentLed][1]][LedCurrfreq[CurrentLed][
 445              		.loc 1 76 13 is_stmt 1 view .LVU129
  76:Core/Src/main.c ****             LedLoad[CurrentLed%6] = LedSetLoad[LedCurrfreq[CurrentLed][1]][LedCurrfreq[CurrentLed][
 446              		.loc 1 76 71 is_stmt 0 view .LVU130
 447 0102 384A     		ldr	r2, .L40+60
 448 0104 02EB4301 		add	r1, r2, r3, lsl #1
 449 0108 4978     		ldrb	r1, [r1, #1]	@ zero_extendqisi2
  76:Core/Src/main.c ****             LedLoad[CurrentLed%6] = LedSetLoad[LedCurrfreq[CurrentLed][1]][LedCurrfreq[CurrentLed][
 450              		.loc 1 76 99 view .LVU131
 451 010a 12F813C0 		ldrb	ip, [r2, r3, lsl #1]	@ zero_extendqisi2
  76:Core/Src/main.c ****             LedLoad[CurrentLed%6] = LedSetLoad[LedCurrfreq[CurrentLed][1]][LedCurrfreq[CurrentLed][
 452              		.loc 1 76 31 view .LVU132
 453 010e 364A     		ldr	r2, .L40+64
 454 0110 A2FB0302 		umull	r0, r2, r2, r3
 455 0114 9208     		lsrs	r2, r2, #2
 456 0116 02EB4202 		add	r2, r2, r2, lsl #1
 457 011a 5000     		lsls	r0, r2, #1
 458 011c 1B1A     		subs	r3, r3, r0
 459 011e DBB2     		uxtb	r3, r3
  76:Core/Src/main.c ****             LedLoad[CurrentLed%6] = LedSetLoad[LedCurrfreq[CurrentLed][1]][LedCurrfreq[CurrentLed][
 460              		.loc 1 76 75 view .LVU133
 461 0120 01EB4101 		add	r1, r1, r1, lsl #1
 462 0124 6144     		add	r1, r1, ip
ARM GAS  C:\Users\rpong\AppData\Local\Temp\cczeLlvf.s 			page 13


 463 0126 314A     		ldr	r2, .L40+68
 464 0128 32F81110 		ldrh	r1, [r2, r1, lsl #1]
  76:Core/Src/main.c ****             LedLoad[CurrentLed%6] = LedSetLoad[LedCurrfreq[CurrentLed][1]][LedCurrfreq[CurrentLed][
 465              		.loc 1 76 35 view .LVU134
 466 012c 224A     		ldr	r2, .L40+16
 467 012e 22F81310 		strh	r1, [r2, r3, lsl #1]	@ movhi
  78:Core/Src/main.c ****             flagbut1long = 0;
 468              		.loc 1 78 13 is_stmt 1 view .LVU135
  78:Core/Src/main.c ****             flagbut1long = 0;
 469              		.loc 1 78 26 is_stmt 0 view .LVU136
 470 0132 254B     		ldr	r3, .L40+32
 471 0134 0022     		movs	r2, #0
 472 0136 1A70     		strb	r2, [r3]
 473 0138 BCE7     		b	.L25
 474              	.L38:
  81:Core/Src/main.c ****             if (LedCurrfreq[CurrentLed][1] >= 3)
 475              		.loc 1 81 13 is_stmt 1 view .LVU137
  81:Core/Src/main.c ****             if (LedCurrfreq[CurrentLed][1] >= 3)
 476              		.loc 1 81 40 is_stmt 0 view .LVU138
 477 013a 294B     		ldr	r3, .L40+56
 478 013c 1B78     		ldrb	r3, [r3]	@ zero_extendqisi2
 479 013e 294A     		ldr	r2, .L40+60
 480 0140 02EB4302 		add	r2, r2, r3, lsl #1
 481 0144 5278     		ldrb	r2, [r2, #1]	@ zero_extendqisi2
  81:Core/Src/main.c ****             if (LedCurrfreq[CurrentLed][1] >= 3)
 482              		.loc 1 81 16 view .LVU139
 483 0146 022A     		cmp	r2, #2
 484 0148 04D9     		bls	.L28
  83:Core/Src/main.c ****                 LedCurrfreq[CurrentLed][1] = 0;
 485              		.loc 1 83 17 is_stmt 1 view .LVU140
  83:Core/Src/main.c ****                 LedCurrfreq[CurrentLed][1] = 0;
 486              		.loc 1 83 44 is_stmt 0 view .LVU141
 487 014a 264A     		ldr	r2, .L40+60
 488 014c 02EB4302 		add	r2, r2, r3, lsl #1
 489 0150 0021     		movs	r1, #0
 490 0152 5170     		strb	r1, [r2, #1]
 491              	.L28:
  85:Core/Src/main.c ****             LedLoad[CurrentLed%6] = LedSetLoad[LedCurrfreq[CurrentLed][1]][LedCurrfreq[CurrentLed][
 492              		.loc 1 85 13 is_stmt 1 view .LVU142
  85:Core/Src/main.c ****             LedLoad[CurrentLed%6] = LedSetLoad[LedCurrfreq[CurrentLed][1]][LedCurrfreq[CurrentLed][
 493              		.loc 1 85 71 is_stmt 0 view .LVU143
 494 0154 234A     		ldr	r2, .L40+60
 495 0156 02EB4301 		add	r1, r2, r3, lsl #1
 496 015a 4978     		ldrb	r1, [r1, #1]	@ zero_extendqisi2
  85:Core/Src/main.c ****             LedLoad[CurrentLed%6] = LedSetLoad[LedCurrfreq[CurrentLed][1]][LedCurrfreq[CurrentLed][
 497              		.loc 1 85 99 view .LVU144
 498 015c 12F813C0 		ldrb	ip, [r2, r3, lsl #1]	@ zero_extendqisi2
  85:Core/Src/main.c ****             LedLoad[CurrentLed%6] = LedSetLoad[LedCurrfreq[CurrentLed][1]][LedCurrfreq[CurrentLed][
 499              		.loc 1 85 31 view .LVU145
 500 0160 214A     		ldr	r2, .L40+64
 501 0162 A2FB0302 		umull	r0, r2, r2, r3
 502 0166 9208     		lsrs	r2, r2, #2
 503 0168 02EB4202 		add	r2, r2, r2, lsl #1
 504 016c 5000     		lsls	r0, r2, #1
 505 016e 1B1A     		subs	r3, r3, r0
 506 0170 DBB2     		uxtb	r3, r3
  85:Core/Src/main.c ****             LedLoad[CurrentLed%6] = LedSetLoad[LedCurrfreq[CurrentLed][1]][LedCurrfreq[CurrentLed][
ARM GAS  C:\Users\rpong\AppData\Local\Temp\cczeLlvf.s 			page 14


 507              		.loc 1 85 75 view .LVU146
 508 0172 01EB4101 		add	r1, r1, r1, lsl #1
 509 0176 6144     		add	r1, r1, ip
 510 0178 1C4A     		ldr	r2, .L40+68
 511 017a 32F81110 		ldrh	r1, [r2, r1, lsl #1]
  85:Core/Src/main.c ****             LedLoad[CurrentLed%6] = LedSetLoad[LedCurrfreq[CurrentLed][1]][LedCurrfreq[CurrentLed][
 512              		.loc 1 85 35 view .LVU147
 513 017e 0E4A     		ldr	r2, .L40+16
 514 0180 22F81310 		strh	r1, [r2, r3, lsl #1]	@ movhi
  87:Core/Src/main.c ****             flagbut2long = 0;
 515              		.loc 1 87 13 is_stmt 1 view .LVU148
  87:Core/Src/main.c ****             flagbut2long = 0;
 516              		.loc 1 87 26 is_stmt 0 view .LVU149
 517 0184 114B     		ldr	r3, .L40+36
 518 0186 0022     		movs	r2, #0
 519 0188 1A70     		strb	r2, [r3]
 520 018a 97E7     		b	.L27
 521              	.L39:
  89:Core/Src/main.c ****         if(flagbut1 == 1 && READ_BIT(GPIOC->IDR, GPIO_IDR_ID6) == 0  && GlobalTickBut1Wait >= 50){ 
 522              		.loc 1 89 29 discriminator 1 view .LVU150
 523 018c 124B     		ldr	r3, .L40+48
 524 018e 1B69     		ldr	r3, [r3, #16]
  89:Core/Src/main.c ****         if(flagbut1 == 1 && READ_BIT(GPIOC->IDR, GPIO_IDR_ID6) == 0  && GlobalTickBut1Wait >= 50){ 
 525              		.loc 1 89 26 discriminator 1 view .LVU151
 526 0190 13F0400F 		tst	r3, #64
 527 0194 96D1     		bne	.L29
  89:Core/Src/main.c ****         if(flagbut1 == 1 && READ_BIT(GPIOC->IDR, GPIO_IDR_ID6) == 0  && GlobalTickBut1Wait >= 50){ 
 528              		.loc 1 89 92 discriminator 2 view .LVU152
 529 0196 164B     		ldr	r3, .L40+72
 530 0198 1B68     		ldr	r3, [r3]
  89:Core/Src/main.c ****         if(flagbut1 == 1 && READ_BIT(GPIOC->IDR, GPIO_IDR_ID6) == 0  && GlobalTickBut1Wait >= 50){ 
 531              		.loc 1 89 70 discriminator 2 view .LVU153
 532 019a 312B     		cmp	r3, #49
 533 019c 92D9     		bls	.L29
  90:Core/Src/main.c ****             flagbut1 = 0;
 534              		.loc 1 90 13 is_stmt 1 view .LVU154
  90:Core/Src/main.c ****             flagbut1 = 0;
 535              		.loc 1 90 22 is_stmt 0 view .LVU155
 536 019e 0C4B     		ldr	r3, .L40+40
 537 01a0 0022     		movs	r2, #0
 538 01a2 1A70     		strb	r2, [r3]
 539 01a4 8EE7     		b	.L29
 540              	.L41:
 541 01a6 00BF     		.align	2
 542              	.L40:
 543 01a8 00000000 		.word	Ledflag
 544 01ac 00000000 		.word	Led1flag
 545 01b0 00000000 		.word	Led2flag
 546 01b4 00000000 		.word	LedCount
 547 01b8 00000000 		.word	LedLoad
 548 01bc 00000000 		.word	CurrentState
 549 01c0 25499224 		.word	613566757
 550 01c4 00000000 		.word	Numb
 551 01c8 00000000 		.word	flagbut1long
 552 01cc 00000000 		.word	flagbut2long
 553 01d0 00000000 		.word	flagbut1
 554 01d4 00000000 		.word	flagbut2
ARM GAS  C:\Users\rpong\AppData\Local\Temp\cczeLlvf.s 			page 15


 555 01d8 00080240 		.word	1073874944
 556 01dc 00000000 		.word	GlobalTickBut2Wait
 557 01e0 00000000 		.word	CurrentLed
 558 01e4 00000000 		.word	LedCurrfreq
 559 01e8 ABAAAAAA 		.word	-1431655765
 560 01ec 00000000 		.word	LedSetLoad
 561 01f0 00000000 		.word	GlobalTickBut1Wait
 562              		.cfi_endproc
 563              	.LFE130:
 565              		.global	flagbut2long
 566              		.section	.bss.flagbut2long,"aw",%nobits
 569              	flagbut2long:
 570 0000 00       		.space	1
 571              		.global	flagbut1long
 572              		.section	.bss.flagbut1long,"aw",%nobits
 575              	flagbut1long:
 576 0000 00       		.space	1
 577              		.global	flagbut2
 578              		.section	.bss.flagbut2,"aw",%nobits
 581              	flagbut2:
 582 0000 00       		.space	1
 583              		.global	flagbut1
 584              		.section	.bss.flagbut1,"aw",%nobits
 587              	flagbut1:
 588 0000 00       		.space	1
 589              		.global	counterbut2
 590              		.section	.bss.counterbut2,"aw",%nobits
 593              	counterbut2:
 594 0000 00       		.space	1
 595              		.global	counterbut1
 596              		.section	.bss.counterbut1,"aw",%nobits
 599              	counterbut1:
 600 0000 00       		.space	1
 601              		.global	Numb
 602              		.section	.bss.Numb,"aw",%nobits
 605              	Numb:
 606 0000 00       		.space	1
 607              		.global	CurrentLed
 608              		.section	.bss.CurrentLed,"aw",%nobits
 611              	CurrentLed:
 612 0000 00       		.space	1
 613              		.global	CurrentState
 614              		.section	.data.CurrentState,"aw"
 617              	CurrentState:
 618 0000 06       		.byte	6
 619              		.global	LedOffset
 620              		.section	.rodata.LedOffset,"a"
 621              		.align	2
 624              	LedOffset:
 625 0000 00070E08 		.ascii	"\000\007\016\010\011\012"
 625      090A
 626              		.global	Led2flag
 627              		.section	.bss.Led2flag,"aw",%nobits
 630              	Led2flag:
 631 0000 00       		.space	1
 632              		.global	Led1flag
 633              		.section	.bss.Led1flag,"aw",%nobits
ARM GAS  C:\Users\rpong\AppData\Local\Temp\cczeLlvf.s 			page 16


 636              	Led1flag:
 637 0000 00       		.space	1
 638              		.global	Ledflag
 639              		.section	.data.Ledflag,"aw"
 640              		.align	2
 643              	Ledflag:
 644 0000 01010101 		.ascii	"\001\001\001\001\001\001"
 644      0101
 645 0006 00000000 		.ascii	"\000\000\000\000\000\000"
 645      0000
 646              		.global	LedCount
 647              		.section	.bss.LedCount,"aw",%nobits
 648              		.align	2
 651              	LedCount:
 652 0000 00000000 		.space	12
 652      00000000 
 652      00000000 
 653              		.global	LedLoad
 654              		.section	.bss.LedLoad,"aw",%nobits
 655              		.align	2
 658              	LedLoad:
 659 0000 00000000 		.space	12
 659      00000000 
 659      00000000 
 660              		.global	LedCurrfreq
 661              		.section	.bss.LedCurrfreq,"aw",%nobits
 662              		.align	2
 665              	LedCurrfreq:
 666 0000 00000000 		.space	12
 666      00000000 
 666      00000000 
 667              		.global	LedSetLoad
 668              		.section	.data.LedSetLoad,"aw"
 669              		.align	2
 672              	LedSetLoad:
 673 0000 E204     		.short	1250
 674 0002 8001     		.short	384
 675 0004 FA00     		.short	250
 676 0006 4103     		.short	833
 677 0008 3801     		.short	312
 678 000a E300     		.short	227
 679 000c 7102     		.short	625
 680 000e 0701     		.short	263
 681 0010 C800     		.short	200
 682              		.global	GlobalTickBut2Wait
 683              		.section	.bss.GlobalTickBut2Wait,"aw",%nobits
 684              		.align	2
 687              	GlobalTickBut2Wait:
 688 0000 00000000 		.space	4
 689              		.global	GlobalTickBut1Wait
 690              		.section	.bss.GlobalTickBut1Wait,"aw",%nobits
 691              		.align	2
 694              	GlobalTickBut1Wait:
 695 0000 00000000 		.space	4
 696              		.global	DelayTickCount
 697              		.section	.bss.DelayTickCount,"aw",%nobits
 698              		.align	1
ARM GAS  C:\Users\rpong\AppData\Local\Temp\cczeLlvf.s 			page 17


 701              	DelayTickCount:
 702 0000 0000     		.space	2
 703              		.text
 704              	.Letext0:
 705              		.file 2 "D:/DMPT/xpack-arm-none-eabi-gcc-13.2.1-1.1/arm-none-eabi/include/machine/_default_types.h
 706              		.file 3 "D:/DMPT/xpack-arm-none-eabi-gcc-13.2.1-1.1/arm-none-eabi/include/sys/_stdint.h"
 707              		.file 4 "Core/Src/../Inc/../../CMSIS/Devices/Inc/stm32f429xx.h"
 708              		.file 5 "Core/Src/../Inc/init.h"
ARM GAS  C:\Users\rpong\AppData\Local\Temp\cczeLlvf.s 			page 18

