ARM GAS  C:\Users\VLED\AppData\Local\Temp\ccLHpLD9.s 			page 1


   1              		.cpu cortex-m4
   2              		.arch armv7e-m
   3              		.fpu fpv4-sp-d16
   4              		.eabi_attribute 27, 1
   5              		.eabi_attribute 28, 1
   6              		.eabi_attribute 20, 1
   7              		.eabi_attribute 21, 1
   8              		.eabi_attribute 23, 3
   9              		.eabi_attribute 24, 1
  10              		.eabi_attribute 25, 1
  11              		.eabi_attribute 26, 1
  12              		.eabi_attribute 30, 1
  13              		.eabi_attribute 34, 1
  14              		.eabi_attribute 18, 4
  15              		.file	"main.c"
  16              		.text
  17              	.Ltext0:
  18              		.cfi_sections	.debug_frame
  19              		.file 1 "Core/Src/main.c"
  20              		.section	.text.main,"ax",%progbits
  21              		.align	1
  22              		.global	main
  23              		.syntax unified
  24              		.thumb
  25              		.thumb_func
  27              	main:
  28              	.LFB130:
   1:Core/Src/main.c **** #include "../Inc/main.h"
   2:Core/Src/main.c **** 
   3:Core/Src/main.c **** int main(void)
   4:Core/Src/main.c **** {
  29              		.loc 1 4 1 view -0
  30              		.cfi_startproc
  31              		@ args = 0, pretend = 0, frame = 0
  32              		@ frame_needed = 0, uses_anonymous_args = 0
  33              		@ link register save eliminated.
  34 0000 10B4     		push	{r4}
  35              	.LCFI0:
  36              		.cfi_def_cfa_offset 4
  37              		.cfi_offset 4, -4
   5:Core/Src/main.c ****     //PB7
   6:Core/Src/main.c ****     // RCC->AHB1ENR |= RCC_AHB1ENR_GPIOBEN;
   7:Core/Src/main.c ****     *(uint32_t*)(0x40023800UL + 0x30UL) |= 0x02;
  38              		.loc 1 7 5 view .LVU1
  39 0002 214A     		ldr	r2, .L6
  40 0004 D2F83038 		ldr	r3, [r2, #2096]
  41              		.loc 1 7 41 is_stmt 0 view .LVU2
  42 0008 43F00203 		orr	r3, r3, #2
  43 000c C2F83038 		str	r3, [r2, #2096]
   8:Core/Src/main.c ****     
   9:Core/Src/main.c ****     /*SET_BIT(GPIOB->MODER, GPIO_MODER_MODER7_0);
  10:Core/Src/main.c ****     CLEAR_BIT(GPIOB->OTYPER, GPIO_OTYPER_OT7);
  11:Core/Src/main.c ****     SET_BIT(GPIOB->OSPEEDR, GPIO_OSPEEDER_OSPEEDR7_0);
  12:Core/Src/main.c ****     CLEAR_BIT(GPIOB->PUPDR, GPIO_PUPDR_PUPD7);
  13:Core/Src/main.c ****     SET_BIT(GPIOB->BSRR, GPIO_BSRR_BR7);*/
  14:Core/Src/main.c **** 
  15:Core/Src/main.c ****     *(uint32_t*)(0x40020400UL + 0x00UL) |= 0x4000;
ARM GAS  C:\Users\VLED\AppData\Local\Temp\ccLHpLD9.s 			page 2


  44              		.loc 1 15 5 is_stmt 1 view .LVU3
  45 0010 1E4B     		ldr	r3, .L6+4
  46 0012 D3F80024 		ldr	r2, [r3, #1024]
  47              		.loc 1 15 41 is_stmt 0 view .LVU4
  48 0016 42F48044 		orr	r4, r2, #16384
  49 001a C3F80044 		str	r4, [r3, #1024]
  16:Core/Src/main.c ****     *(uint32_t*)(0x40020400UL + 0x04UL) |= 0x00;
  50              		.loc 1 16 5 is_stmt 1 view .LVU5
  17:Core/Src/main.c ****     *(uint32_t*)(0x40020400UL + 0x08UL) |= 0x4000;
  51              		.loc 1 17 5 view .LVU6
  52 001e D3F80804 		ldr	r0, [r3, #1032]
  53              		.loc 1 17 41 is_stmt 0 view .LVU7
  54 0022 40F48040 		orr	r0, r0, #16384
  55 0026 C3F80804 		str	r0, [r3, #1032]
  18:Core/Src/main.c ****     *(uint32_t*)(0x40020400UL + 0x0CUL) |= 0x00;
  56              		.loc 1 18 5 is_stmt 1 view .LVU8
  19:Core/Src/main.c ****    // *(uint32_t*)(0x40020400UL + 0x14UL) |= 0x80;
  20:Core/Src/main.c ****     *(uint32_t*)(0x40020400UL + 0x18UL) |= 0x800000;
  57              		.loc 1 20 5 view .LVU9
  58 002a D3F81824 		ldr	r2, [r3, #1048]
  59              		.loc 1 20 41 is_stmt 0 view .LVU10
  60 002e 42F40001 		orr	r1, r2, #8388608
  61 0032 C3F81814 		str	r1, [r3, #1048]
  21:Core/Src/main.c ****     //PB14
  22:Core/Src/main.c ****     *(uint32_t*)(0x40020400UL + 0x00UL) |= 0x10000000;
  62              		.loc 1 22 5 is_stmt 1 view .LVU11
  63              		.loc 1 22 41 is_stmt 0 view .LVU12
  64 0036 44F08054 		orr	r4, r4, #268435456
  65 003a C3F80044 		str	r4, [r3, #1024]
  23:Core/Src/main.c ****     *(uint32_t*)(0x400207FFUL + 0x04UL) |= 0x00;
  66              		.loc 1 23 5 is_stmt 1 view .LVU13
  24:Core/Src/main.c ****     //SpeedmodeReg
  25:Core/Src/main.c ****     *(uint32_t*)(0x40020400UL + 0x08UL) |= 0x10000000;
  67              		.loc 1 25 5 view .LVU14
  68              		.loc 1 25 41 is_stmt 0 view .LVU15
  69 003e 40F08050 		orr	r0, r0, #268435456
  70 0042 C3F80804 		str	r0, [r3, #1032]
  26:Core/Src/main.c ****     //PullUpPulldownReg
  27:Core/Src/main.c ****     *(uint32_t*)(0x40020400UL + 0x0CUL) |= 0x00;
  71              		.loc 1 27 5 is_stmt 1 view .LVU16
  28:Core/Src/main.c ****     //Outputdatareg ODR
  29:Core/Src/main.c ****   //  *(uint32_t*)(0x40020400UL + 0x14UL) |= 0x2000;
  30:Core/Src/main.c ****     //Outputdatasetresetreg BSRR
  31:Core/Src/main.c ****     *(uint32_t*)(0x40020400UL + 0x18UL) |= 0x40000000;  
  72              		.loc 1 31 5 view .LVU17
  73              		.loc 1 31 41 is_stmt 0 view .LVU18
  74 0046 42F08142 		orr	r2, r2, #1082130432
  75 004a C3F81824 		str	r2, [r3, #1048]
  32:Core/Src/main.c ****     while(1)
  76              		.loc 1 32 5 is_stmt 1 view .LVU19
  77              	.LBB2:
  33:Core/Src/main.c ****     {
  34:Core/Src/main.c ****         *(uint32_t*)(0x40020400UL + 0x18UL) |= 0x80;
  78              		.loc 1 34 9 view .LVU20
  79              		.loc 1 34 45 is_stmt 0 view .LVU21
  80 004e 42F08002 		orr	r2, r2, #128
  81 0052 C3F81824 		str	r2, [r3, #1048]
ARM GAS  C:\Users\VLED\AppData\Local\Temp\ccLHpLD9.s 			page 3


  35:Core/Src/main.c ****         *(uint32_t*)(0x40020400UL + 0x18UL) |= 0x4000;
  82              		.loc 1 35 9 is_stmt 1 view .LVU22
  83              		.loc 1 35 45 is_stmt 0 view .LVU23
  84 0056 41F04021 		orr	r1, r1, #1073758208
  85 005a 41F08001 		orr	r1, r1, #128
  86 005e C3F81814 		str	r1, [r3, #1048]
  36:Core/Src/main.c ****         uint32_t i = 0;
  87              		.loc 1 36 9 is_stmt 1 view .LVU24
  88              	.LVL0:
  37:Core/Src/main.c ****         while(i < 10000000)
  89              		.loc 1 37 9 view .LVU25
  36:Core/Src/main.c ****         uint32_t i = 0;
  90              		.loc 1 36 18 is_stmt 0 view .LVU26
  91 0062 0023     		movs	r3, #0
  92              		.loc 1 37 14 view .LVU27
  93 0064 00E0     		b	.L2
  94              	.LVL1:
  95              	.L3:
  38:Core/Src/main.c ****         {
  39:Core/Src/main.c ****             i++;
  96              		.loc 1 39 13 is_stmt 1 view .LVU28
  97              		.loc 1 39 14 is_stmt 0 view .LVU29
  98 0066 0133     		adds	r3, r3, #1
  99              	.LVL2:
 100              	.L2:
  37:Core/Src/main.c ****         while(i < 10000000)
 101              		.loc 1 37 17 is_stmt 1 view .LVU30
 102 0068 094A     		ldr	r2, .L6+8
 103 006a 9342     		cmp	r3, r2
 104 006c FBD3     		bcc	.L3
 105              	.LVL3:
 106              	.L4:
  40:Core/Src/main.c ****         }
  41:Core/Src/main.c ****         i = 0;
  42:Core/Src/main.c ****         while(i < 10000000)
 107              		.loc 1 42 17 view .LVU31
  43:Core/Src/main.c ****         {
  44:Core/Src/main.c ****             *(uint32_t*)(0x40020400UL + 0x18UL) |= 0x800000;
 108              		.loc 1 44 13 view .LVU32
 109 006e 074A     		ldr	r2, .L6+4
 110 0070 D2F81834 		ldr	r3, [r2, #1048]
 111              		.loc 1 44 49 is_stmt 0 view .LVU33
 112 0074 43F40001 		orr	r1, r3, #8388608
 113 0078 C2F81814 		str	r1, [r2, #1048]
  45:Core/Src/main.c ****             *(uint32_t*)(0x40020400UL + 0x18UL) |= 0x40000000;
 114              		.loc 1 45 13 is_stmt 1 view .LVU34
 115              		.loc 1 45 49 is_stmt 0 view .LVU35
 116 007c 43F08143 		orr	r3, r3, #1082130432
 117 0080 C2F81834 		str	r3, [r2, #1048]
 118 0084 F3E7     		b	.L4
 119              	.L7:
 120 0086 00BF     		.align	2
 121              	.L6:
 122 0088 00300240 		.word	1073885184
 123 008c 00000240 		.word	1073872896
 124 0090 80969800 		.word	10000000
 125              	.LBE2:
ARM GAS  C:\Users\VLED\AppData\Local\Temp\ccLHpLD9.s 			page 4


 126              		.cfi_endproc
 127              	.LFE130:
 129              		.text
 130              	.Letext0:
 131              		.file 2 "D:/MK/aboba/xpack-arm-none-eabi-gcc-13.2.1-1.1/arm-none-eabi/include/machine/_default_typ
 132              		.file 3 "D:/MK/aboba/xpack-arm-none-eabi-gcc-13.2.1-1.1/arm-none-eabi/include/sys/_stdint.h"
ARM GAS  C:\Users\VLED\AppData\Local\Temp\ccLHpLD9.s 			page 5


DEFINED SYMBOLS
                            *ABS*:00000000 main.c
C:\Users\VLED\AppData\Local\Temp\ccLHpLD9.s:21     .text.main:00000000 $t
C:\Users\VLED\AppData\Local\Temp\ccLHpLD9.s:27     .text.main:00000000 main
C:\Users\VLED\AppData\Local\Temp\ccLHpLD9.s:122    .text.main:00000088 $d

NO UNDEFINED SYMBOLS
