ARM GAS  C:\Users\·¶\AppData\Local\Temp\ccGHu9AJ.s 			page 1


   1              		.cpu cortex-m4
   2              		.arch armv7e-m
   3              		.fpu fpv4-sp-d16
   4              		.eabi_attribute 27, 1
   5              		.eabi_attribute 28, 1
   6              		.eabi_attribute 20, 1
   7              		.eabi_attribute 21, 1
   8              		.eabi_attribute 23, 3
   9              		.eabi_attribute 24, 1
  10              		.eabi_attribute 25, 1
  11              		.eabi_attribute 26, 1
  12              		.eabi_attribute 30, 1
  13              		.eabi_attribute 34, 1
  14              		.eabi_attribute 18, 4
  15              		.file	"main.c"
  16              		.text
  17              	.Ltext0:
  18              		.cfi_sections	.debug_frame
  19              		.file 1 "Core/Src/main.c"
  20              		.section	.text.main,"ax",%progbits
  21              		.align	1
  22              		.global	main
  23              		.syntax unified
  24              		.thumb
  25              		.thumb_func
  27              	main:
  28              	.LFB0:
   1:Core/Src/main.c **** #include <stdint.h>
   2:Core/Src/main.c **** 
   3:Core/Src/main.c **** int main(void) {
  29              		.loc 1 3 16 view -0
  30              		.cfi_startproc
  31              		@ Volatile: function does not return.
  32              		@ args = 0, pretend = 0, frame = 0
  33              		@ frame_needed = 0, uses_anonymous_args = 0
  34              		@ link register save eliminated.
   4:Core/Src/main.c ****     // å¼€å¯ GPIOB å’Œ GPIOC çš„æ—¶é’Ÿ
   5:Core/Src/main.c ****     *(uint32_t*)(0x40023800UL + 0x30UL) |= 0x06; // ä½¿èƒ½ GPIOB å’Œ GPIOC æ—¶é’Ÿ
  35              		.loc 1 5 5 view .LVU1
  36 0000 254A     		ldr	r2, .L7
  37 0002 D2F83038 		ldr	r3, [r2, #2096]
  38              		.loc 1 5 41 is_stmt 0 view .LVU2
  39 0006 43F00603 		orr	r3, r3, #6
  40 000a C2F83038 		str	r3, [r2, #2096]
   6:Core/Src/main.c **** 
   7:Core/Src/main.c ****     // é…ç½® GPIOB 7 å¼•è„šä¸ºè¾“å‡ºæ¨¡å¼
   8:Core/Src/main.c ****     *(uint32_t*)(0x40020400UL + 0x00UL) |= 0x4000; // è®¾ç½®ä¸ºè¾“å‡ºæ¨¡å¼
  41              		.loc 1 8 5 is_stmt 1 view .LVU3
  42 000e 234B     		ldr	r3, .L7+4
  43 0010 D3F80014 		ldr	r1, [r3, #1024]
  44              		.loc 1 8 41 is_stmt 0 view .LVU4
  45 0014 41F48041 		orr	r1, r1, #16384
  46 0018 C3F80014 		str	r1, [r3, #1024]
   9:Core/Src/main.c ****     *(uint32_t*)(0x40020400UL + 0x04UL) &= ~0x4000; // è®¾ç½®ä¸ºæ¨æŒ½è¾“å‡º
  47              		.loc 1 9 5 is_stmt 1 view .LVU5
  48 001c D3F80424 		ldr	r2, [r3, #1028]
  49              		.loc 1 9 41 is_stmt 0 view .LVU6
ARM GAS  C:\Users\·¶\AppData\Local\Temp\ccGHu9AJ.s 			page 2


  50 0020 22F48042 		bic	r2, r2, #16384
  51 0024 C3F80424 		str	r2, [r3, #1028]
  10:Core/Src/main.c ****     *(uint32_t*)(0x40020400UL + 0x08UL) |= 0x4000; // è®¾ç½®é€Ÿåº¦ä¸ºä¸­ç­‰
  52              		.loc 1 10 5 is_stmt 1 view .LVU7
  53 0028 D3F80824 		ldr	r2, [r3, #1032]
  54              		.loc 1 10 41 is_stmt 0 view .LVU8
  55 002c 42F48042 		orr	r2, r2, #16384
  56 0030 C3F80824 		str	r2, [r3, #1032]
  11:Core/Src/main.c ****     *(uint32_t*)(0x40020400UL + 0x0CUL) &= ~0x4000; // ç¦ç”¨ PU/PD
  57              		.loc 1 11 5 is_stmt 1 view .LVU9
  58 0034 D3F80C24 		ldr	r2, [r3, #1036]
  59              		.loc 1 11 41 is_stmt 0 view .LVU10
  60 0038 22F48042 		bic	r2, r2, #16384
  61 003c C3F80C24 		str	r2, [r3, #1036]
  12:Core/Src/main.c **** 
  13:Core/Src/main.c ****     // é…ç½® GPIOB 8 å’Œ 9 å¼•è„šä¸ºè¾“å…¥æ¨¡å¼ï¼ˆæŒ‰é’®ï¼‰
  14:Core/Src/main.c ****     *(uint32_t*)(0x40020400UL + 0x00UL) &= ~0x0300; // è®¾ç½®ä¸ºè¾“å…¥æ¨¡å¼
  62              		.loc 1 14 5 is_stmt 1 view .LVU11
  63              		.loc 1 14 41 is_stmt 0 view .LVU12
  64 0040 21F44071 		bic	r1, r1, #768
  65 0044 C3F80014 		str	r1, [r3, #1024]
  15:Core/Src/main.c ****     *(uint32_t*)(0x40020400UL + 0x0CUL) |= 0x0300; // å¯ç”¨ PU/PDï¼ˆä¸Šæ‹‰ï¼‰
  66              		.loc 1 15 5 is_stmt 1 view .LVU13
  67              		.loc 1 15 41 is_stmt 0 view .LVU14
  68 0048 42F44072 		orr	r2, r2, #768
  69 004c C3F80C24 		str	r2, [r3, #1036]
  70 0050 0EE0     		b	.L4
  71              	.L2:
  16:Core/Src/main.c **** 
  17:Core/Src/main.c ****     while (1) {
  18:Core/Src/main.c ****         // æ£€æŸ¥æŒ‰é’® 1 (GPIOB 8)
  19:Core/Src/main.c ****         if ((*(uint32_t*)(0x40020800UL + 0x10UL) & 0x0100UL) == 0) {
  20:Core/Src/main.c ****             // å¦‚æœæŒ‰é’® 1 è¢«æŒ‰ä¸‹ï¼Œç‚¹äº®ç¬¬ä¸€ä¸ª LED (GPIOB 7)
  21:Core/Src/main.c ****             *(uint32_t*)(0x40020400UL + 0x18UL) |= 0x80; // ç‚¹äº® LED
  22:Core/Src/main.c ****         } else {
  23:Core/Src/main.c ****             // å¦åˆ™ï¼Œç†„ç­ LED
  24:Core/Src/main.c ****             *(uint32_t*)(0x40020400UL + 0x18UL) &= ~0x80; // ç†„ç­ LED
  72              		.loc 1 24 13 is_stmt 1 view .LVU15
  73 0052 124A     		ldr	r2, .L7+4
  74 0054 D2F81834 		ldr	r3, [r2, #1048]
  75              		.loc 1 24 49 is_stmt 0 view .LVU16
  76 0058 23F08003 		bic	r3, r3, #128
  77 005c C2F81834 		str	r3, [r2, #1048]
  78 0060 13E0     		b	.L3
  79              	.L6:
  25:Core/Src/main.c ****         }
  26:Core/Src/main.c **** 
  27:Core/Src/main.c ****         // æ£€æŸ¥æŒ‰é’® 2 (GPIOB 9)
  28:Core/Src/main.c ****         if ((*(uint32_t*)(0x40020800UL + 0x10UL) & 0x0200UL) == 0) {
  29:Core/Src/main.c ****             // å¦‚æœæŒ‰é’® 2 è¢«æŒ‰ä¸‹ï¼Œç‚¹äº®ç¬¬äºŒä¸ª LED (GPIOB 7)
  30:Core/Src/main.c ****             *(uint32_t*)(0x40020400UL + 0x18UL) |= 0x80; // ç‚¹äº® LED
  80              		.loc 1 30 13 is_stmt 1 view .LVU17
  81 0062 0E4A     		ldr	r2, .L7+4
  82 0064 D2F81834 		ldr	r3, [r2, #1048]
  83              		.loc 1 30 49 is_stmt 0 view .LVU18
  84 0068 43F08003 		orr	r3, r3, #128
  85 006c C2F81834 		str	r3, [r2, #1048]
ARM GAS  C:\Users\·¶\AppData\Local\Temp\ccGHu9AJ.s 			page 3


  86              	.L4:
  17:Core/Src/main.c ****         // æ£€æŸ¥æŒ‰é’® 1 (GPIOB 8)
  87              		.loc 1 17 5 is_stmt 1 view .LVU19
  19:Core/Src/main.c ****             // å¦‚æœæŒ‰é’® 1 è¢«æŒ‰ä¸‹ï¼Œç‚¹äº®ç¬¬ä¸€ä¸ª LED (GPIOB 7)
  88              		.loc 1 19 9 view .LVU20
  19:Core/Src/main.c ****             // å¦‚æœæŒ‰é’® 1 è¢«æŒ‰ä¸‹ï¼Œç‚¹äº®ç¬¬ä¸€ä¸ª LED (GPIOB 7)
  89              		.loc 1 19 14 is_stmt 0 view .LVU21
  90 0070 0A4B     		ldr	r3, .L7+4
  91 0072 D3F81038 		ldr	r3, [r3, #2064]
  19:Core/Src/main.c ****             // å¦‚æœæŒ‰é’® 1 è¢«æŒ‰ä¸‹ï¼Œç‚¹äº®ç¬¬ä¸€ä¸ª LED (GPIOB 7)
  92              		.loc 1 19 12 view .LVU22
  93 0076 13F4807F 		tst	r3, #256
  94 007a EAD1     		bne	.L2
  21:Core/Src/main.c ****         } else {
  95              		.loc 1 21 13 is_stmt 1 view .LVU23
  96 007c 074A     		ldr	r2, .L7+4
  97 007e D2F81834 		ldr	r3, [r2, #1048]
  21:Core/Src/main.c ****         } else {
  98              		.loc 1 21 49 is_stmt 0 view .LVU24
  99 0082 43F08003 		orr	r3, r3, #128
 100 0086 C2F81834 		str	r3, [r2, #1048]
 101              	.L3:
  28:Core/Src/main.c ****             // å¦‚æœæŒ‰é’® 2 è¢«æŒ‰ä¸‹ï¼Œç‚¹äº®ç¬¬äºŒä¸ª LED (GPIOB 7)
 102              		.loc 1 28 9 is_stmt 1 view .LVU25
  28:Core/Src/main.c ****             // å¦‚æœæŒ‰é’® 2 è¢«æŒ‰ä¸‹ï¼Œç‚¹äº®ç¬¬äºŒä¸ª LED (GPIOB 7)
 103              		.loc 1 28 14 is_stmt 0 view .LVU26
 104 008a 044B     		ldr	r3, .L7+4
 105 008c D3F81038 		ldr	r3, [r3, #2064]
  28:Core/Src/main.c ****             // å¦‚æœæŒ‰é’® 2 è¢«æŒ‰ä¸‹ï¼Œç‚¹äº®ç¬¬äºŒä¸ª LED (GPIOB 7)
 106              		.loc 1 28 12 view .LVU27
 107 0090 13F4007F 		tst	r3, #512
 108 0094 ECD1     		bne	.L4
 109 0096 E4E7     		b	.L6
 110              	.L8:
 111              		.align	2
 112              	.L7:
 113 0098 00300240 		.word	1073885184
 114 009c 00000240 		.word	1073872896
 115              		.cfi_endproc
 116              	.LFE0:
 118              		.text
 119              	.Letext0:
 120              		.file 2 "F:/STM32Tools/SysGCC/arm-none-eabi/include/machine/_default_types.h"
 121              		.file 3 "F:/STM32Tools/SysGCC/arm-none-eabi/include/sys/_stdint.h"
ARM GAS  C:\Users\·¶\AppData\Local\Temp\ccGHu9AJ.s 			page 4


DEFINED SYMBOLS
                            *ABS*:00000000 main.c
C:\Users\·¶\AppData\Local\Temp\ccGHu9AJ.s:21     .text.main:00000000 $t
C:\Users\·¶\AppData\Local\Temp\ccGHu9AJ.s:27     .text.main:00000000 main
C:\Users\·¶\AppData\Local\Temp\ccGHu9AJ.s:113    .text.main:00000098 $d

NO UNDEFINED SYMBOLS
