ARM GAS  C:\Users\Nedoo\AppData\Local\Temp\ccc64dkK.s 			page 1


   1              		.cpu cortex-m4
   2              		.arch armv7e-m
   3              		.fpu fpv4-sp-d16
   4              		.eabi_attribute 27, 1
   5              		.eabi_attribute 28, 1
   6              		.eabi_attribute 20, 1
   7              		.eabi_attribute 21, 1
   8              		.eabi_attribute 23, 3
   9              		.eabi_attribute 24, 1
  10              		.eabi_attribute 25, 1
  11              		.eabi_attribute 26, 1
  12              		.eabi_attribute 30, 1
  13              		.eabi_attribute 34, 1
  14              		.eabi_attribute 18, 4
  15              		.file	"main.c"
  16              		.text
  17              	.Ltext0:
  18              		.cfi_sections	.debug_frame
  19              		.file 1 "Core/Src/main.c"
  20              		.section	.text.UpdateModeLEDs,"ax",%progbits
  21              		.align	1
  22              		.global	UpdateModeLEDs
  23              		.syntax unified
  24              		.thumb
  25              		.thumb_func
  27              	UpdateModeLEDs:
  28              	.LVL0:
  29              	.LFB131:
   1:Core/Src/main.c **** #include <stdint.h>
   2:Core/Src/main.c **** #include "init.h"
   3:Core/Src/main.c **** 
   4:Core/Src/main.c **** void delay(void);
   5:Core/Src/main.c **** //void UpdateLEDs(uint8_t count);   // 更新LED状态
   6:Core/Src/main.c **** void UpdateModeLEDs(uint8_t mode, uint8_t button);  // 根据模式和按钮更新LED状态
   7:Core/Src/main.c **** void UpdateModeLEDoff(uint8_t mode, uint8_t button);  // 根据模式和按钮更新LED状态
   8:Core/Src/main.c **** 
   9:Core/Src/main.c **** volatile uint8_t mode = 0;  // 当前模式，0、1、2
  10:Core/Src/main.c **** 
  11:Core/Src/main.c **** int main(void)
  12:Core/Src/main.c **** {
  13:Core/Src/main.c ****     RCC->AHB1ENR |= RCC_AHB1ENR_GPIOCEN | RCC_AHB1ENR_GPIOBEN;
  14:Core/Src/main.c **** 
  15:Core/Src/main.c ****     // THE LED SETTINGS
  16:Core/Src/main.c ****     SET_BIT(GPIOB->MODER, GPIO_MODER_MODE0_0);
  17:Core/Src/main.c ****     SET_BIT(GPIOB->MODER, GPIO_MODER_MODE7_0);
  18:Core/Src/main.c ****     SET_BIT(GPIOB->MODER, GPIO_MODER_MODE14_0);
  19:Core/Src/main.c ****     SET_BIT(GPIOB->MODER, GPIO_MODER_MODE8_0);
  20:Core/Src/main.c ****     SET_BIT(GPIOB->MODER, GPIO_MODER_MODE9_0);
  21:Core/Src/main.c ****     SET_BIT(GPIOB->MODER, GPIO_MODER_MODE10_0);
  22:Core/Src/main.c **** 
  23:Core/Src/main.c ****     CLEAR_BIT(GPIOB->OTYPER, GPIO_OTYPER_OT_0);
  24:Core/Src/main.c ****     CLEAR_BIT(GPIOB->OTYPER, GPIO_OTYPER_OT_7);
  25:Core/Src/main.c ****     CLEAR_BIT(GPIOB->OTYPER, GPIO_OTYPER_OT_14);
  26:Core/Src/main.c ****     CLEAR_BIT(GPIOB->OTYPER, GPIO_OTYPER_OT_8);
  27:Core/Src/main.c ****     CLEAR_BIT(GPIOB->OTYPER, GPIO_OTYPER_OT_9);
  28:Core/Src/main.c ****     CLEAR_BIT(GPIOB->OTYPER, GPIO_OTYPER_OT_10);
  29:Core/Src/main.c **** 
ARM GAS  C:\Users\Nedoo\AppData\Local\Temp\ccc64dkK.s 			page 2


  30:Core/Src/main.c ****     SET_BIT(GPIOB->OSPEEDR, GPIO_OSPEEDER_OSPEEDR0_0);
  31:Core/Src/main.c ****     SET_BIT(GPIOB->OSPEEDR, GPIO_OSPEEDER_OSPEEDR7_0);
  32:Core/Src/main.c ****     SET_BIT(GPIOB->OSPEEDR, GPIO_OSPEEDER_OSPEEDR14_0);
  33:Core/Src/main.c ****     SET_BIT(GPIOB->OSPEEDR, GPIO_OSPEEDER_OSPEEDR8_0);
  34:Core/Src/main.c ****     SET_BIT(GPIOB->OSPEEDR, GPIO_OSPEEDER_OSPEEDR9_0);
  35:Core/Src/main.c ****     SET_BIT(GPIOB->OSPEEDR, GPIO_OSPEEDER_OSPEEDR10_0);
  36:Core/Src/main.c **** 
  37:Core/Src/main.c ****     CLEAR_BIT(GPIOB->PUPDR, GPIO_PUPDR_PUPDR0_0);
  38:Core/Src/main.c ****     CLEAR_BIT(GPIOB->PUPDR, GPIO_PUPDR_PUPDR7_0);
  39:Core/Src/main.c ****     CLEAR_BIT(GPIOB->PUPDR, GPIO_PUPDR_PUPDR14_0);
  40:Core/Src/main.c ****     CLEAR_BIT(GPIOB->PUPDR, GPIO_PUPDR_PUPDR8_0);
  41:Core/Src/main.c ****     CLEAR_BIT(GPIOB->PUPDR, GPIO_PUPDR_PUPDR9_0);
  42:Core/Src/main.c ****     CLEAR_BIT(GPIOB->PUPDR, GPIO_PUPDR_PUPDR10_0);
  43:Core/Src/main.c **** 
  44:Core/Src/main.c ****     // THE BUTTON SETTINGS PC13 (Mode switch button)
  45:Core/Src/main.c ****     CLEAR_BIT(GPIOC->MODER, GPIO_MODER_MODE13);
  46:Core/Src/main.c ****     SET_BIT(GPIOC->PUPDR, GPIO_PUPDR_PUPD13_1);
  47:Core/Src/main.c **** 
  48:Core/Src/main.c ****     // THE BUTTON SETTINGS PC6, PC8, PC9 (Control buttons)
  49:Core/Src/main.c ****     CLEAR_BIT(GPIOC->MODER, GPIO_MODER_MODE6);
  50:Core/Src/main.c ****     SET_BIT(GPIOC->PUPDR, GPIO_PUPDR_PUPD6_1);
  51:Core/Src/main.c **** 
  52:Core/Src/main.c ****     CLEAR_BIT(GPIOC->MODER, GPIO_MODER_MODE8);
  53:Core/Src/main.c ****     SET_BIT(GPIOC->PUPDR, GPIO_PUPDR_PUPD8_1);
  54:Core/Src/main.c **** 
  55:Core/Src/main.c ****     CLEAR_BIT(GPIOC->MODER, GPIO_MODER_MODE9);
  56:Core/Src/main.c ****     SET_BIT(GPIOC->PUPDR, GPIO_PUPDR_PUPD9_1);
  57:Core/Src/main.c **** 
  58:Core/Src/main.c ****     while (1)
  59:Core/Src/main.c ****     {
  60:Core/Src/main.c ****         // Handle PC13 press to switch mode
  61:Core/Src/main.c ****         if ((READ_BIT(GPIOC->IDR, GPIO_IDR_IDR_13)) != 0) // PC13 is pressed
  62:Core/Src/main.c ****         {
  63:Core/Src/main.c ****             delay(); // Debouncing
  64:Core/Src/main.c ****             if ((READ_BIT(GPIOC->IDR, GPIO_IDR_IDR_13)) != 0) // PC13 is still pressed
  65:Core/Src/main.c ****             {
  66:Core/Src/main.c ****                 mode = (mode + 1) % 3; // Switch between 0, 1, 2
  67:Core/Src/main.c ****                 while ((READ_BIT(GPIOC->IDR, GPIO_IDR_IDR_13)) != 0) ; // Wait for button release
  68:Core/Src/main.c ****             }
  69:Core/Src/main.c ****         }
  70:Core/Src/main.c **** 
  71:Core/Src/main.c ****         // Handle PC6, PC8, PC9 to control LEDs based on current mode
  72:Core/Src/main.c ****         if ((READ_BIT(GPIOC->IDR, GPIO_IDR_IDR_6)) != 0) // PC6 is pressed
  73:Core/Src/main.c ****         {            
  74:Core/Src/main.c ****                 UpdateModeLEDs(mode, 6); // Update LEDs based on the current mode and PC6 press    
  75:Core/Src/main.c ****         }
  76:Core/Src/main.c ****         else{ 
  77:Core/Src/main.c ****                 UpdateModeLEDsoff(mode, 6);
  78:Core/Src/main.c ****         }
  79:Core/Src/main.c **** 
  80:Core/Src/main.c ****         if ((READ_BIT(GPIOC->IDR, GPIO_IDR_IDR_8)) != 0) // PC6 is pressed
  81:Core/Src/main.c ****         {            
  82:Core/Src/main.c ****                 UpdateModeLEDs(mode, 8); // Update LEDs based on the current mode and PC6 press    
  83:Core/Src/main.c ****         }
  84:Core/Src/main.c ****         else{ 
  85:Core/Src/main.c ****                 UpdateModeLEDsoff(mode, 8);
  86:Core/Src/main.c ****         }
ARM GAS  C:\Users\Nedoo\AppData\Local\Temp\ccc64dkK.s 			page 3


  87:Core/Src/main.c **** 
  88:Core/Src/main.c ****         if ((READ_BIT(GPIOC->IDR, GPIO_IDR_IDR_9)) != 0) // PC6 is pressed
  89:Core/Src/main.c ****         {            
  90:Core/Src/main.c ****                 UpdateModeLEDs(mode, 9); // Update LEDs based on the current mode and PC6 press    
  91:Core/Src/main.c ****         }
  92:Core/Src/main.c ****         else{ 
  93:Core/Src/main.c ****                 UpdateModeLEDsoff(mode, 9);
  94:Core/Src/main.c ****         }
  95:Core/Src/main.c ****     }
  96:Core/Src/main.c **** 
  97:Core/Src/main.c ****     return 0;
  98:Core/Src/main.c **** }
  99:Core/Src/main.c **** 
 100:Core/Src/main.c **** // 根据当前模式和按钮更新LED状态
 101:Core/Src/main.c **** void UpdateModeLEDs(uint8_t mode, uint8_t button)
 102:Core/Src/main.c **** {
  30              		.loc 1 102 1 view -0
  31              		.cfi_startproc
  32              		@ args = 0, pretend = 0, frame = 0
  33              		@ frame_needed = 0, uses_anonymous_args = 0
  34              		@ link register save eliminated.
 103:Core/Src/main.c ****     // 先关闭所有LED
 104:Core/Src/main.c ****     GPIOB->BSRR = (GPIO_BSRR_BR0 | GPIO_BSRR_BR7 | GPIO_BSRR_BR14);
  35              		.loc 1 104 5 view .LVU1
  36              		.loc 1 104 17 is_stmt 0 view .LVU2
  37 0000 2F4B     		ldr	r3, .L19
  38 0002 304A     		ldr	r2, .L19+4
  39 0004 9A61     		str	r2, [r3, #24]
 105:Core/Src/main.c ****     GPIOB->BSRR = (GPIO_BSRR_BR8 | GPIO_BSRR_BR9 | GPIO_BSRR_BR10);
  40              		.loc 1 105 5 is_stmt 1 view .LVU3
  41              		.loc 1 105 17 is_stmt 0 view .LVU4
  42 0006 4FF0E062 		mov	r2, #117440512
  43 000a 9A61     		str	r2, [r3, #24]
 106:Core/Src/main.c **** 
 107:Core/Src/main.c ****     if (mode == 0) {
  44              		.loc 1 107 5 is_stmt 1 view .LVU5
  45              		.loc 1 107 8 is_stmt 0 view .LVU6
  46 000c D8B9     		cbnz	r0, .L2
 108:Core/Src/main.c ****         // Mode 0: Define button LED behavior
 109:Core/Src/main.c ****         if (button == 6) {
  47              		.loc 1 109 9 is_stmt 1 view .LVU7
  48              		.loc 1 109 12 is_stmt 0 view .LVU8
  49 000e 0629     		cmp	r1, #6
  50 0010 0BD0     		beq	.L11
 110:Core/Src/main.c ****             // PC6 controls PB0, PB8
 111:Core/Src/main.c ****             GPIOB->BSRR = GPIO_BSRR_BS0;  // PB0
 112:Core/Src/main.c ****             GPIOB->BSRR = GPIO_BSRR_BS8;  // PB8
 113:Core/Src/main.c ****         }
 114:Core/Src/main.c ****         else if (button == 8) {
  51              		.loc 1 114 14 is_stmt 1 view .LVU9
  52              		.loc 1 114 17 is_stmt 0 view .LVU10
  53 0012 0829     		cmp	r1, #8
  54 0014 10D0     		beq	.L12
 115:Core/Src/main.c ****             // PC8 controls PB7, PB9
 116:Core/Src/main.c ****             GPIOB->BSRR = GPIO_BSRR_BS7;  // PB7
 117:Core/Src/main.c ****             GPIOB->BSRR = GPIO_BSRR_BS9;  // PB9
 118:Core/Src/main.c ****         }
ARM GAS  C:\Users\Nedoo\AppData\Local\Temp\ccc64dkK.s 			page 4


 119:Core/Src/main.c ****         else if (button == 9) {
  55              		.loc 1 119 14 is_stmt 1 view .LVU11
  56              		.loc 1 119 17 is_stmt 0 view .LVU12
  57 0016 0929     		cmp	r1, #9
  58 0018 19D1     		bne	.L1
 120:Core/Src/main.c ****             // PC9 controls PB14, PB10
 121:Core/Src/main.c ****             GPIOB->BSRR = GPIO_BSRR_BS14; // PB14
  59              		.loc 1 121 13 is_stmt 1 view .LVU13
  60              		.loc 1 121 25 is_stmt 0 view .LVU14
  61 001a 294B     		ldr	r3, .L19
  62 001c 4FF48042 		mov	r2, #16384
  63 0020 9A61     		str	r2, [r3, #24]
 122:Core/Src/main.c ****             GPIOB->BSRR = GPIO_BSRR_BS10; // PB10
  64              		.loc 1 122 13 is_stmt 1 view .LVU15
  65              		.loc 1 122 25 is_stmt 0 view .LVU16
  66 0022 4FF48062 		mov	r2, #1024
  67 0026 9A61     		str	r2, [r3, #24]
  68 0028 7047     		bx	lr
  69              	.L11:
 111:Core/Src/main.c ****             GPIOB->BSRR = GPIO_BSRR_BS8;  // PB8
  70              		.loc 1 111 13 is_stmt 1 view .LVU17
 111:Core/Src/main.c ****             GPIOB->BSRR = GPIO_BSRR_BS8;  // PB8
  71              		.loc 1 111 25 is_stmt 0 view .LVU18
  72 002a 254B     		ldr	r3, .L19
  73 002c 0122     		movs	r2, #1
  74 002e 9A61     		str	r2, [r3, #24]
 112:Core/Src/main.c ****         }
  75              		.loc 1 112 13 is_stmt 1 view .LVU19
 112:Core/Src/main.c ****         }
  76              		.loc 1 112 25 is_stmt 0 view .LVU20
  77 0030 4FF48072 		mov	r2, #256
  78 0034 9A61     		str	r2, [r3, #24]
  79 0036 7047     		bx	lr
  80              	.L12:
 116:Core/Src/main.c ****             GPIOB->BSRR = GPIO_BSRR_BS9;  // PB9
  81              		.loc 1 116 13 is_stmt 1 view .LVU21
 116:Core/Src/main.c ****             GPIOB->BSRR = GPIO_BSRR_BS9;  // PB9
  82              		.loc 1 116 25 is_stmt 0 view .LVU22
  83 0038 214B     		ldr	r3, .L19
  84 003a 8022     		movs	r2, #128
  85 003c 9A61     		str	r2, [r3, #24]
 117:Core/Src/main.c ****         }
  86              		.loc 1 117 13 is_stmt 1 view .LVU23
 117:Core/Src/main.c ****         }
  87              		.loc 1 117 25 is_stmt 0 view .LVU24
  88 003e 4FF40072 		mov	r2, #512
  89 0042 9A61     		str	r2, [r3, #24]
  90 0044 7047     		bx	lr
  91              	.L2:
 123:Core/Src/main.c ****         }
 124:Core/Src/main.c ****     }
 125:Core/Src/main.c ****     else if (mode == 1) {
  92              		.loc 1 125 10 is_stmt 1 view .LVU25
  93              		.loc 1 125 13 is_stmt 0 view .LVU26
  94 0046 0128     		cmp	r0, #1
  95 0048 02D0     		beq	.L13
 126:Core/Src/main.c ****         // Mode 1: Define button LED behavior
ARM GAS  C:\Users\Nedoo\AppData\Local\Temp\ccc64dkK.s 			page 5


 127:Core/Src/main.c ****         if (button == 6) {
 128:Core/Src/main.c ****             // PC6 controls PB7, PB9
 129:Core/Src/main.c ****             GPIOB->BSRR = GPIO_BSRR_BS7;  // PB7
 130:Core/Src/main.c ****             GPIOB->BSRR = GPIO_BSRR_BS9;  // PB9
 131:Core/Src/main.c ****         }
 132:Core/Src/main.c ****         else if (button == 8) {
 133:Core/Src/main.c ****             // PC8 controls PB14, PB10
 134:Core/Src/main.c ****             GPIOB->BSRR = GPIO_BSRR_BS14; // PB14
 135:Core/Src/main.c ****             GPIOB->BSRR = GPIO_BSRR_BS10; // PB10
 136:Core/Src/main.c ****         }
 137:Core/Src/main.c ****         else if (button == 9) {
 138:Core/Src/main.c ****             // PC9 controls PB0, PB8
 139:Core/Src/main.c ****             GPIOB->BSRR = GPIO_BSRR_BS0;  // PB0
 140:Core/Src/main.c ****             GPIOB->BSRR = GPIO_BSRR_BS8;  // PB8
 141:Core/Src/main.c ****         }
 142:Core/Src/main.c ****     }
 143:Core/Src/main.c ****     else if (mode == 2) {
  96              		.loc 1 143 10 is_stmt 1 view .LVU27
  97              		.loc 1 143 13 is_stmt 0 view .LVU28
  98 004a 0228     		cmp	r0, #2
  99 004c 1CD0     		beq	.L14
 100              	.L1:
 144:Core/Src/main.c ****         // Mode 2: Define button LED behavior
 145:Core/Src/main.c ****         if (button == 6) {
 146:Core/Src/main.c ****             // PC6 controls PB14, PB10
 147:Core/Src/main.c ****             GPIOB->BSRR = GPIO_BSRR_BS14; // PB14
 148:Core/Src/main.c ****             GPIOB->BSRR = GPIO_BSRR_BS10; // PB10
 149:Core/Src/main.c ****         }
 150:Core/Src/main.c ****         else if (button == 8) {
 151:Core/Src/main.c ****             // PC8 controls PB0, PB8
 152:Core/Src/main.c ****             GPIOB->BSRR = GPIO_BSRR_BS0;  // PB0
 153:Core/Src/main.c ****             GPIOB->BSRR = GPIO_BSRR_BS8;  // PB8
 154:Core/Src/main.c ****         }
 155:Core/Src/main.c ****         else if (button == 9) {
 156:Core/Src/main.c ****             // PC9 controls PB7, PB9
 157:Core/Src/main.c ****             GPIOB->BSRR = GPIO_BSRR_BS7;  // PB7
 158:Core/Src/main.c ****             GPIOB->BSRR = GPIO_BSRR_BS9;  // PB9
 159:Core/Src/main.c ****         }
 160:Core/Src/main.c ****     }
 161:Core/Src/main.c **** }
 101              		.loc 1 161 1 view .LVU29
 102 004e 7047     		bx	lr
 103              	.L13:
 127:Core/Src/main.c ****             // PC6 controls PB7, PB9
 104              		.loc 1 127 9 is_stmt 1 view .LVU30
 127:Core/Src/main.c ****             // PC6 controls PB7, PB9
 105              		.loc 1 127 12 is_stmt 0 view .LVU31
 106 0050 0629     		cmp	r1, #6
 107 0052 0AD0     		beq	.L15
 132:Core/Src/main.c ****             // PC8 controls PB14, PB10
 108              		.loc 1 132 14 is_stmt 1 view .LVU32
 132:Core/Src/main.c ****             // PC8 controls PB14, PB10
 109              		.loc 1 132 17 is_stmt 0 view .LVU33
 110 0054 0829     		cmp	r1, #8
 111 0056 0FD0     		beq	.L16
 137:Core/Src/main.c ****             // PC9 controls PB0, PB8
 112              		.loc 1 137 14 is_stmt 1 view .LVU34
ARM GAS  C:\Users\Nedoo\AppData\Local\Temp\ccc64dkK.s 			page 6


 137:Core/Src/main.c ****             // PC9 controls PB0, PB8
 113              		.loc 1 137 17 is_stmt 0 view .LVU35
 114 0058 0929     		cmp	r1, #9
 115 005a F8D1     		bne	.L1
 139:Core/Src/main.c ****             GPIOB->BSRR = GPIO_BSRR_BS8;  // PB8
 116              		.loc 1 139 13 is_stmt 1 view .LVU36
 139:Core/Src/main.c ****             GPIOB->BSRR = GPIO_BSRR_BS8;  // PB8
 117              		.loc 1 139 25 is_stmt 0 view .LVU37
 118 005c 184B     		ldr	r3, .L19
 119 005e 0122     		movs	r2, #1
 120 0060 9A61     		str	r2, [r3, #24]
 140:Core/Src/main.c ****         }
 121              		.loc 1 140 13 is_stmt 1 view .LVU38
 140:Core/Src/main.c ****         }
 122              		.loc 1 140 25 is_stmt 0 view .LVU39
 123 0062 4FF48072 		mov	r2, #256
 124 0066 9A61     		str	r2, [r3, #24]
 125 0068 7047     		bx	lr
 126              	.L15:
 129:Core/Src/main.c ****             GPIOB->BSRR = GPIO_BSRR_BS9;  // PB9
 127              		.loc 1 129 13 is_stmt 1 view .LVU40
 129:Core/Src/main.c ****             GPIOB->BSRR = GPIO_BSRR_BS9;  // PB9
 128              		.loc 1 129 25 is_stmt 0 view .LVU41
 129 006a 154B     		ldr	r3, .L19
 130 006c 8022     		movs	r2, #128
 131 006e 9A61     		str	r2, [r3, #24]
 130:Core/Src/main.c ****         }
 132              		.loc 1 130 13 is_stmt 1 view .LVU42
 130:Core/Src/main.c ****         }
 133              		.loc 1 130 25 is_stmt 0 view .LVU43
 134 0070 4FF40072 		mov	r2, #512
 135 0074 9A61     		str	r2, [r3, #24]
 136 0076 7047     		bx	lr
 137              	.L16:
 134:Core/Src/main.c ****             GPIOB->BSRR = GPIO_BSRR_BS10; // PB10
 138              		.loc 1 134 13 is_stmt 1 view .LVU44
 134:Core/Src/main.c ****             GPIOB->BSRR = GPIO_BSRR_BS10; // PB10
 139              		.loc 1 134 25 is_stmt 0 view .LVU45
 140 0078 114B     		ldr	r3, .L19
 141 007a 4FF48042 		mov	r2, #16384
 142 007e 9A61     		str	r2, [r3, #24]
 135:Core/Src/main.c ****         }
 143              		.loc 1 135 13 is_stmt 1 view .LVU46
 135:Core/Src/main.c ****         }
 144              		.loc 1 135 25 is_stmt 0 view .LVU47
 145 0080 4FF48062 		mov	r2, #1024
 146 0084 9A61     		str	r2, [r3, #24]
 147 0086 7047     		bx	lr
 148              	.L14:
 145:Core/Src/main.c ****             // PC6 controls PB14, PB10
 149              		.loc 1 145 9 is_stmt 1 view .LVU48
 145:Core/Src/main.c ****             // PC6 controls PB14, PB10
 150              		.loc 1 145 12 is_stmt 0 view .LVU49
 151 0088 0629     		cmp	r1, #6
 152 008a 0AD0     		beq	.L17
 150:Core/Src/main.c ****             // PC8 controls PB0, PB8
 153              		.loc 1 150 14 is_stmt 1 view .LVU50
ARM GAS  C:\Users\Nedoo\AppData\Local\Temp\ccc64dkK.s 			page 7


 150:Core/Src/main.c ****             // PC8 controls PB0, PB8
 154              		.loc 1 150 17 is_stmt 0 view .LVU51
 155 008c 0829     		cmp	r1, #8
 156 008e 10D0     		beq	.L18
 155:Core/Src/main.c ****             // PC9 controls PB7, PB9
 157              		.loc 1 155 14 is_stmt 1 view .LVU52
 155:Core/Src/main.c ****             // PC9 controls PB7, PB9
 158              		.loc 1 155 17 is_stmt 0 view .LVU53
 159 0090 0929     		cmp	r1, #9
 160 0092 DCD1     		bne	.L1
 157:Core/Src/main.c ****             GPIOB->BSRR = GPIO_BSRR_BS9;  // PB9
 161              		.loc 1 157 13 is_stmt 1 view .LVU54
 157:Core/Src/main.c ****             GPIOB->BSRR = GPIO_BSRR_BS9;  // PB9
 162              		.loc 1 157 25 is_stmt 0 view .LVU55
 163 0094 0A4B     		ldr	r3, .L19
 164 0096 8022     		movs	r2, #128
 165 0098 9A61     		str	r2, [r3, #24]
 158:Core/Src/main.c ****         }
 166              		.loc 1 158 13 is_stmt 1 view .LVU56
 158:Core/Src/main.c ****         }
 167              		.loc 1 158 25 is_stmt 0 view .LVU57
 168 009a 4FF40072 		mov	r2, #512
 169 009e 9A61     		str	r2, [r3, #24]
 170              		.loc 1 161 1 view .LVU58
 171 00a0 D5E7     		b	.L1
 172              	.L17:
 147:Core/Src/main.c ****             GPIOB->BSRR = GPIO_BSRR_BS10; // PB10
 173              		.loc 1 147 13 is_stmt 1 view .LVU59
 147:Core/Src/main.c ****             GPIOB->BSRR = GPIO_BSRR_BS10; // PB10
 174              		.loc 1 147 25 is_stmt 0 view .LVU60
 175 00a2 074B     		ldr	r3, .L19
 176 00a4 4FF48042 		mov	r2, #16384
 177 00a8 9A61     		str	r2, [r3, #24]
 148:Core/Src/main.c ****         }
 178              		.loc 1 148 13 is_stmt 1 view .LVU61
 148:Core/Src/main.c ****         }
 179              		.loc 1 148 25 is_stmt 0 view .LVU62
 180 00aa 4FF48062 		mov	r2, #1024
 181 00ae 9A61     		str	r2, [r3, #24]
 182 00b0 7047     		bx	lr
 183              	.L18:
 152:Core/Src/main.c ****             GPIOB->BSRR = GPIO_BSRR_BS8;  // PB8
 184              		.loc 1 152 13 is_stmt 1 view .LVU63
 152:Core/Src/main.c ****             GPIOB->BSRR = GPIO_BSRR_BS8;  // PB8
 185              		.loc 1 152 25 is_stmt 0 view .LVU64
 186 00b2 034B     		ldr	r3, .L19
 187 00b4 0122     		movs	r2, #1
 188 00b6 9A61     		str	r2, [r3, #24]
 153:Core/Src/main.c ****         }
 189              		.loc 1 153 13 is_stmt 1 view .LVU65
 153:Core/Src/main.c ****         }
 190              		.loc 1 153 25 is_stmt 0 view .LVU66
 191 00b8 4FF48072 		mov	r2, #256
 192 00bc 9A61     		str	r2, [r3, #24]
 193 00be 7047     		bx	lr
 194              	.L20:
 195              		.align	2
ARM GAS  C:\Users\Nedoo\AppData\Local\Temp\ccc64dkK.s 			page 8


 196              	.L19:
 197 00c0 00040240 		.word	1073873920
 198 00c4 00008140 		.word	1082195968
 199              		.cfi_endproc
 200              	.LFE131:
 202              		.section	.text.UpdateModeLEDsoff,"ax",%progbits
 203              		.align	1
 204              		.global	UpdateModeLEDsoff
 205              		.syntax unified
 206              		.thumb
 207              		.thumb_func
 209              	UpdateModeLEDsoff:
 210              	.LVL1:
 211              	.LFB132:
 162:Core/Src/main.c **** 
 163:Core/Src/main.c **** void UpdateModeLEDsoff(uint8_t mode, uint8_t button)
 164:Core/Src/main.c **** {
 212              		.loc 1 164 1 is_stmt 1 view -0
 213              		.cfi_startproc
 214              		@ args = 0, pretend = 0, frame = 0
 215              		@ frame_needed = 0, uses_anonymous_args = 0
 216              		@ link register save eliminated.
 165:Core/Src/main.c ****     
 166:Core/Src/main.c **** 
 167:Core/Src/main.c ****     if (mode == 0) {
 217              		.loc 1 167 5 view .LVU68
 218              		.loc 1 167 8 is_stmt 0 view .LVU69
 219 0000 E8B9     		cbnz	r0, .L22
 168:Core/Src/main.c ****         // Mode 0: Define button LED behavior
 169:Core/Src/main.c ****         if (button == 6) {
 220              		.loc 1 169 9 is_stmt 1 view .LVU70
 221              		.loc 1 169 12 is_stmt 0 view .LVU71
 222 0002 0629     		cmp	r1, #6
 223 0004 0BD0     		beq	.L31
 170:Core/Src/main.c ****             // PC6 controls PB0, PB8
 171:Core/Src/main.c ****             GPIOB->BSRR = GPIO_BSRR_BR0;  // PB0
 172:Core/Src/main.c ****             GPIOB->BSRR = GPIO_BSRR_BR8;  // PB8
 173:Core/Src/main.c ****         }
 174:Core/Src/main.c ****         else if (button == 8) {
 224              		.loc 1 174 14 is_stmt 1 view .LVU72
 225              		.loc 1 174 17 is_stmt 0 view .LVU73
 226 0006 0829     		cmp	r1, #8
 227 0008 11D0     		beq	.L32
 175:Core/Src/main.c ****             // PC8 controls PB7, PB9
 176:Core/Src/main.c ****             GPIOB->BSRR = GPIO_BSRR_BR7;  // PB7
 177:Core/Src/main.c ****             GPIOB->BSRR = GPIO_BSRR_BR9;  // PB9
 178:Core/Src/main.c ****         }
 179:Core/Src/main.c ****         else if (button == 9) {
 228              		.loc 1 179 14 is_stmt 1 view .LVU74
 229              		.loc 1 179 17 is_stmt 0 view .LVU75
 230 000a 0929     		cmp	r1, #9
 231 000c 1BD1     		bne	.L21
 180:Core/Src/main.c ****             // PC9 controls PB14, PB10
 181:Core/Src/main.c ****             GPIOB->BSRR = GPIO_BSRR_BR14; // PB14
 232              		.loc 1 181 13 is_stmt 1 view .LVU76
 233              		.loc 1 181 25 is_stmt 0 view .LVU77
 234 000e 2C4B     		ldr	r3, .L39
ARM GAS  C:\Users\Nedoo\AppData\Local\Temp\ccc64dkK.s 			page 9


 235 0010 4FF08042 		mov	r2, #1073741824
 236 0014 9A61     		str	r2, [r3, #24]
 182:Core/Src/main.c ****             GPIOB->BSRR = GPIO_BSRR_BR10; // PB10
 237              		.loc 1 182 13 is_stmt 1 view .LVU78
 238              		.loc 1 182 25 is_stmt 0 view .LVU79
 239 0016 4FF08062 		mov	r2, #67108864
 240 001a 9A61     		str	r2, [r3, #24]
 241 001c 7047     		bx	lr
 242              	.L31:
 171:Core/Src/main.c ****             GPIOB->BSRR = GPIO_BSRR_BR8;  // PB8
 243              		.loc 1 171 13 is_stmt 1 view .LVU80
 171:Core/Src/main.c ****             GPIOB->BSRR = GPIO_BSRR_BR8;  // PB8
 244              		.loc 1 171 25 is_stmt 0 view .LVU81
 245 001e 284B     		ldr	r3, .L39
 246 0020 4FF48032 		mov	r2, #65536
 247 0024 9A61     		str	r2, [r3, #24]
 172:Core/Src/main.c ****         }
 248              		.loc 1 172 13 is_stmt 1 view .LVU82
 172:Core/Src/main.c ****         }
 249              		.loc 1 172 25 is_stmt 0 view .LVU83
 250 0026 4FF08072 		mov	r2, #16777216
 251 002a 9A61     		str	r2, [r3, #24]
 252 002c 7047     		bx	lr
 253              	.L32:
 176:Core/Src/main.c ****             GPIOB->BSRR = GPIO_BSRR_BR9;  // PB9
 254              		.loc 1 176 13 is_stmt 1 view .LVU84
 176:Core/Src/main.c ****             GPIOB->BSRR = GPIO_BSRR_BR9;  // PB9
 255              		.loc 1 176 25 is_stmt 0 view .LVU85
 256 002e 244B     		ldr	r3, .L39
 257 0030 4FF40002 		mov	r2, #8388608
 258 0034 9A61     		str	r2, [r3, #24]
 177:Core/Src/main.c ****         }
 259              		.loc 1 177 13 is_stmt 1 view .LVU86
 177:Core/Src/main.c ****         }
 260              		.loc 1 177 25 is_stmt 0 view .LVU87
 261 0036 4FF00072 		mov	r2, #33554432
 262 003a 9A61     		str	r2, [r3, #24]
 263 003c 7047     		bx	lr
 264              	.L22:
 183:Core/Src/main.c ****         }
 184:Core/Src/main.c ****     }
 185:Core/Src/main.c ****     else if (mode == 1) {
 265              		.loc 1 185 10 is_stmt 1 view .LVU88
 266              		.loc 1 185 13 is_stmt 0 view .LVU89
 267 003e 0128     		cmp	r0, #1
 268 0040 02D0     		beq	.L33
 186:Core/Src/main.c ****         // Mode 1: Define button LED behavior
 187:Core/Src/main.c ****         if (button == 6) {
 188:Core/Src/main.c ****             // PC6 controls PB7, PB9
 189:Core/Src/main.c ****             GPIOB->BSRR = GPIO_BSRR_BR7;  // PB7
 190:Core/Src/main.c ****             GPIOB->BSRR = GPIO_BSRR_BR9;  // PB9
 191:Core/Src/main.c ****         }
 192:Core/Src/main.c ****         else if (button == 8) {
 193:Core/Src/main.c ****             // PC8 controls PB14, PB10
 194:Core/Src/main.c ****             GPIOB->BSRR = GPIO_BSRR_BR14; // PB14
 195:Core/Src/main.c ****             GPIOB->BSRR = GPIO_BSRR_BR10; // PB10
 196:Core/Src/main.c ****         }
ARM GAS  C:\Users\Nedoo\AppData\Local\Temp\ccc64dkK.s 			page 10


 197:Core/Src/main.c ****         else if (button == 9) {
 198:Core/Src/main.c ****             // PC9 controls PB0, PB8
 199:Core/Src/main.c ****             GPIOB->BSRR = GPIO_BSRR_BR0;  // PB0
 200:Core/Src/main.c ****             GPIOB->BSRR = GPIO_BSRR_BR8;  // PB8
 201:Core/Src/main.c ****         }
 202:Core/Src/main.c ****     }
 203:Core/Src/main.c ****     else if (mode == 2) {
 269              		.loc 1 203 10 is_stmt 1 view .LVU90
 270              		.loc 1 203 13 is_stmt 0 view .LVU91
 271 0042 0228     		cmp	r0, #2
 272 0044 1ED0     		beq	.L34
 273              	.L21:
 204:Core/Src/main.c ****         // Mode 2: Define button LED behavior
 205:Core/Src/main.c ****         if (button == 6) {
 206:Core/Src/main.c ****             // PC6 controls PB14, PB10
 207:Core/Src/main.c ****             GPIOB->BSRR = GPIO_BSRR_BR14; // PB14
 208:Core/Src/main.c ****             GPIOB->BSRR = GPIO_BSRR_BR10; // PB10
 209:Core/Src/main.c ****         }
 210:Core/Src/main.c ****         else if (button == 8) {
 211:Core/Src/main.c ****             // PC8 controls PB0, PB8
 212:Core/Src/main.c ****             GPIOB->BSRR = GPIO_BSRR_BR0;  // PB0
 213:Core/Src/main.c ****             GPIOB->BSRR = GPIO_BSRR_BR8;  // PB8
 214:Core/Src/main.c ****         }
 215:Core/Src/main.c ****         else if (button == 9) {
 216:Core/Src/main.c ****             // PC9 controls PB7, PB9
 217:Core/Src/main.c ****             GPIOB->BSRR = GPIO_BSRR_BR7;  // PB7
 218:Core/Src/main.c ****             GPIOB->BSRR = GPIO_BSRR_BR9;  // PB9
 219:Core/Src/main.c ****         }
 220:Core/Src/main.c ****     }
 221:Core/Src/main.c **** }
 274              		.loc 1 221 1 view .LVU92
 275 0046 7047     		bx	lr
 276              	.L33:
 187:Core/Src/main.c ****             // PC6 controls PB7, PB9
 277              		.loc 1 187 9 is_stmt 1 view .LVU93
 187:Core/Src/main.c ****             // PC6 controls PB7, PB9
 278              		.loc 1 187 12 is_stmt 0 view .LVU94
 279 0048 0629     		cmp	r1, #6
 280 004a 0BD0     		beq	.L35
 192:Core/Src/main.c ****             // PC8 controls PB14, PB10
 281              		.loc 1 192 14 is_stmt 1 view .LVU95
 192:Core/Src/main.c ****             // PC8 controls PB14, PB10
 282              		.loc 1 192 17 is_stmt 0 view .LVU96
 283 004c 0829     		cmp	r1, #8
 284 004e 11D0     		beq	.L36
 197:Core/Src/main.c ****             // PC9 controls PB0, PB8
 285              		.loc 1 197 14 is_stmt 1 view .LVU97
 197:Core/Src/main.c ****             // PC9 controls PB0, PB8
 286              		.loc 1 197 17 is_stmt 0 view .LVU98
 287 0050 0929     		cmp	r1, #9
 288 0052 F8D1     		bne	.L21
 199:Core/Src/main.c ****             GPIOB->BSRR = GPIO_BSRR_BR8;  // PB8
 289              		.loc 1 199 13 is_stmt 1 view .LVU99
 199:Core/Src/main.c ****             GPIOB->BSRR = GPIO_BSRR_BR8;  // PB8
 290              		.loc 1 199 25 is_stmt 0 view .LVU100
 291 0054 1A4B     		ldr	r3, .L39
 292 0056 4FF48032 		mov	r2, #65536
ARM GAS  C:\Users\Nedoo\AppData\Local\Temp\ccc64dkK.s 			page 11


 293 005a 9A61     		str	r2, [r3, #24]
 200:Core/Src/main.c ****         }
 294              		.loc 1 200 13 is_stmt 1 view .LVU101
 200:Core/Src/main.c ****         }
 295              		.loc 1 200 25 is_stmt 0 view .LVU102
 296 005c 4FF08072 		mov	r2, #16777216
 297 0060 9A61     		str	r2, [r3, #24]
 298 0062 7047     		bx	lr
 299              	.L35:
 189:Core/Src/main.c ****             GPIOB->BSRR = GPIO_BSRR_BR9;  // PB9
 300              		.loc 1 189 13 is_stmt 1 view .LVU103
 189:Core/Src/main.c ****             GPIOB->BSRR = GPIO_BSRR_BR9;  // PB9
 301              		.loc 1 189 25 is_stmt 0 view .LVU104
 302 0064 164B     		ldr	r3, .L39
 303 0066 4FF40002 		mov	r2, #8388608
 304 006a 9A61     		str	r2, [r3, #24]
 190:Core/Src/main.c ****         }
 305              		.loc 1 190 13 is_stmt 1 view .LVU105
 190:Core/Src/main.c ****         }
 306              		.loc 1 190 25 is_stmt 0 view .LVU106
 307 006c 4FF00072 		mov	r2, #33554432
 308 0070 9A61     		str	r2, [r3, #24]
 309 0072 7047     		bx	lr
 310              	.L36:
 194:Core/Src/main.c ****             GPIOB->BSRR = GPIO_BSRR_BR10; // PB10
 311              		.loc 1 194 13 is_stmt 1 view .LVU107
 194:Core/Src/main.c ****             GPIOB->BSRR = GPIO_BSRR_BR10; // PB10
 312              		.loc 1 194 25 is_stmt 0 view .LVU108
 313 0074 124B     		ldr	r3, .L39
 314 0076 4FF08042 		mov	r2, #1073741824
 315 007a 9A61     		str	r2, [r3, #24]
 195:Core/Src/main.c ****         }
 316              		.loc 1 195 13 is_stmt 1 view .LVU109
 195:Core/Src/main.c ****         }
 317              		.loc 1 195 25 is_stmt 0 view .LVU110
 318 007c 4FF08062 		mov	r2, #67108864
 319 0080 9A61     		str	r2, [r3, #24]
 320 0082 7047     		bx	lr
 321              	.L34:
 205:Core/Src/main.c ****             // PC6 controls PB14, PB10
 322              		.loc 1 205 9 is_stmt 1 view .LVU111
 205:Core/Src/main.c ****             // PC6 controls PB14, PB10
 323              		.loc 1 205 12 is_stmt 0 view .LVU112
 324 0084 0629     		cmp	r1, #6
 325 0086 0BD0     		beq	.L37
 210:Core/Src/main.c ****             // PC8 controls PB0, PB8
 326              		.loc 1 210 14 is_stmt 1 view .LVU113
 210:Core/Src/main.c ****             // PC8 controls PB0, PB8
 327              		.loc 1 210 17 is_stmt 0 view .LVU114
 328 0088 0829     		cmp	r1, #8
 329 008a 11D0     		beq	.L38
 215:Core/Src/main.c ****             // PC9 controls PB7, PB9
 330              		.loc 1 215 14 is_stmt 1 view .LVU115
 215:Core/Src/main.c ****             // PC9 controls PB7, PB9
 331              		.loc 1 215 17 is_stmt 0 view .LVU116
 332 008c 0929     		cmp	r1, #9
 333 008e DAD1     		bne	.L21
ARM GAS  C:\Users\Nedoo\AppData\Local\Temp\ccc64dkK.s 			page 12


 217:Core/Src/main.c ****             GPIOB->BSRR = GPIO_BSRR_BR9;  // PB9
 334              		.loc 1 217 13 is_stmt 1 view .LVU117
 217:Core/Src/main.c ****             GPIOB->BSRR = GPIO_BSRR_BR9;  // PB9
 335              		.loc 1 217 25 is_stmt 0 view .LVU118
 336 0090 0B4B     		ldr	r3, .L39
 337 0092 4FF40002 		mov	r2, #8388608
 338 0096 9A61     		str	r2, [r3, #24]
 218:Core/Src/main.c ****         }
 339              		.loc 1 218 13 is_stmt 1 view .LVU119
 218:Core/Src/main.c ****         }
 340              		.loc 1 218 25 is_stmt 0 view .LVU120
 341 0098 4FF00072 		mov	r2, #33554432
 342 009c 9A61     		str	r2, [r3, #24]
 343              		.loc 1 221 1 view .LVU121
 344 009e D2E7     		b	.L21
 345              	.L37:
 207:Core/Src/main.c ****             GPIOB->BSRR = GPIO_BSRR_BR10; // PB10
 346              		.loc 1 207 13 is_stmt 1 view .LVU122
 207:Core/Src/main.c ****             GPIOB->BSRR = GPIO_BSRR_BR10; // PB10
 347              		.loc 1 207 25 is_stmt 0 view .LVU123
 348 00a0 074B     		ldr	r3, .L39
 349 00a2 4FF08042 		mov	r2, #1073741824
 350 00a6 9A61     		str	r2, [r3, #24]
 208:Core/Src/main.c ****         }
 351              		.loc 1 208 13 is_stmt 1 view .LVU124
 208:Core/Src/main.c ****         }
 352              		.loc 1 208 25 is_stmt 0 view .LVU125
 353 00a8 4FF08062 		mov	r2, #67108864
 354 00ac 9A61     		str	r2, [r3, #24]
 355 00ae 7047     		bx	lr
 356              	.L38:
 212:Core/Src/main.c ****             GPIOB->BSRR = GPIO_BSRR_BR8;  // PB8
 357              		.loc 1 212 13 is_stmt 1 view .LVU126
 212:Core/Src/main.c ****             GPIOB->BSRR = GPIO_BSRR_BR8;  // PB8
 358              		.loc 1 212 25 is_stmt 0 view .LVU127
 359 00b0 034B     		ldr	r3, .L39
 360 00b2 4FF48032 		mov	r2, #65536
 361 00b6 9A61     		str	r2, [r3, #24]
 213:Core/Src/main.c ****         }
 362              		.loc 1 213 13 is_stmt 1 view .LVU128
 213:Core/Src/main.c ****         }
 363              		.loc 1 213 25 is_stmt 0 view .LVU129
 364 00b8 4FF08072 		mov	r2, #16777216
 365 00bc 9A61     		str	r2, [r3, #24]
 366 00be 7047     		bx	lr
 367              	.L40:
 368              		.align	2
 369              	.L39:
 370 00c0 00040240 		.word	1073873920
 371              		.cfi_endproc
 372              	.LFE132:
 374              		.section	.text.delay,"ax",%progbits
 375              		.align	1
 376              		.global	delay
 377              		.syntax unified
 378              		.thumb
 379              		.thumb_func
ARM GAS  C:\Users\Nedoo\AppData\Local\Temp\ccc64dkK.s 			page 13


 381              	delay:
 382              	.LFB133:
 222:Core/Src/main.c **** 
 223:Core/Src/main.c **** // 延迟函数，用于消抖
 224:Core/Src/main.c **** void delay(void)
 225:Core/Src/main.c **** {
 383              		.loc 1 225 1 is_stmt 1 view -0
 384              		.cfi_startproc
 385              		@ args = 0, pretend = 0, frame = 8
 386              		@ frame_needed = 0, uses_anonymous_args = 0
 387              		@ link register save eliminated.
 388 0000 82B0     		sub	sp, sp, #8
 389              	.LCFI0:
 390              		.cfi_def_cfa_offset 8
 226:Core/Src/main.c ****     for (volatile int i = 0; i < 100000; i++)
 391              		.loc 1 226 5 view .LVU131
 392              	.LBB2:
 393              		.loc 1 226 10 view .LVU132
 394              		.loc 1 226 23 is_stmt 0 view .LVU133
 395 0002 0023     		movs	r3, #0
 396 0004 0193     		str	r3, [sp, #4]
 397              		.loc 1 226 5 view .LVU134
 398 0006 03E0     		b	.L42
 399              	.L43:
 227:Core/Src/main.c ****     {
 228:Core/Src/main.c ****         __asm__("nop");
 400              		.loc 1 228 9 is_stmt 1 view .LVU135
 401              		.syntax unified
 402              	@ 228 "Core/Src/main.c" 1
 403 0008 00BF     		nop
 404              	@ 0 "" 2
 226:Core/Src/main.c ****     for (volatile int i = 0; i < 100000; i++)
 405              		.loc 1 226 43 discriminator 3 view .LVU136
 406              		.thumb
 407              		.syntax unified
 408 000a 019B     		ldr	r3, [sp, #4]
 409 000c 0133     		adds	r3, r3, #1
 410 000e 0193     		str	r3, [sp, #4]
 411              	.L42:
 226:Core/Src/main.c ****     for (volatile int i = 0; i < 100000; i++)
 412              		.loc 1 226 32 discriminator 1 view .LVU137
 413 0010 019A     		ldr	r2, [sp, #4]
 414 0012 024B     		ldr	r3, .L45
 415 0014 9A42     		cmp	r2, r3
 416 0016 F7DD     		ble	.L43
 417              	.LBE2:
 229:Core/Src/main.c ****     }
 230:Core/Src/main.c **** }
 418              		.loc 1 230 1 is_stmt 0 view .LVU138
 419 0018 02B0     		add	sp, sp, #8
 420              	.LCFI1:
 421              		.cfi_def_cfa_offset 0
 422              		@ sp needed
 423 001a 7047     		bx	lr
 424              	.L46:
 425              		.align	2
 426              	.L45:
ARM GAS  C:\Users\Nedoo\AppData\Local\Temp\ccc64dkK.s 			page 14


 427 001c 9F860100 		.word	99999
 428              		.cfi_endproc
 429              	.LFE133:
 431              		.section	.text.main,"ax",%progbits
 432              		.align	1
 433              		.global	main
 434              		.syntax unified
 435              		.thumb
 436              		.thumb_func
 438              	main:
 439              	.LFB130:
  12:Core/Src/main.c ****     RCC->AHB1ENR |= RCC_AHB1ENR_GPIOCEN | RCC_AHB1ENR_GPIOBEN;
 440              		.loc 1 12 1 is_stmt 1 view -0
 441              		.cfi_startproc
 442              		@ Volatile: function does not return.
 443              		@ args = 0, pretend = 0, frame = 0
 444              		@ frame_needed = 0, uses_anonymous_args = 0
 445 0000 08B5     		push	{r3, lr}
 446              	.LCFI2:
 447              		.cfi_def_cfa_offset 8
 448              		.cfi_offset 3, -8
 449              		.cfi_offset 14, -4
  13:Core/Src/main.c **** 
 450              		.loc 1 13 5 view .LVU140
  13:Core/Src/main.c **** 
 451              		.loc 1 13 8 is_stmt 0 view .LVU141
 452 0002 6B4A     		ldr	r2, .L60
 453 0004 136B     		ldr	r3, [r2, #48]
  13:Core/Src/main.c **** 
 454              		.loc 1 13 18 view .LVU142
 455 0006 43F00603 		orr	r3, r3, #6
 456 000a 1363     		str	r3, [r2, #48]
  16:Core/Src/main.c ****     SET_BIT(GPIOB->MODER, GPIO_MODER_MODE7_0);
 457              		.loc 1 16 5 is_stmt 1 view .LVU143
 458 000c 694B     		ldr	r3, .L60+4
 459 000e 1A68     		ldr	r2, [r3]
 460 0010 42F00102 		orr	r2, r2, #1
 461 0014 1A60     		str	r2, [r3]
  17:Core/Src/main.c ****     SET_BIT(GPIOB->MODER, GPIO_MODER_MODE14_0);
 462              		.loc 1 17 5 view .LVU144
 463 0016 1A68     		ldr	r2, [r3]
 464 0018 42F48042 		orr	r2, r2, #16384
 465 001c 1A60     		str	r2, [r3]
  18:Core/Src/main.c ****     SET_BIT(GPIOB->MODER, GPIO_MODER_MODE8_0);
 466              		.loc 1 18 5 view .LVU145
 467 001e 1A68     		ldr	r2, [r3]
 468 0020 42F08052 		orr	r2, r2, #268435456
 469 0024 1A60     		str	r2, [r3]
  19:Core/Src/main.c ****     SET_BIT(GPIOB->MODER, GPIO_MODER_MODE9_0);
 470              		.loc 1 19 5 view .LVU146
 471 0026 1A68     		ldr	r2, [r3]
 472 0028 42F48032 		orr	r2, r2, #65536
 473 002c 1A60     		str	r2, [r3]
  20:Core/Src/main.c ****     SET_BIT(GPIOB->MODER, GPIO_MODER_MODE10_0);
 474              		.loc 1 20 5 view .LVU147
 475 002e 1A68     		ldr	r2, [r3]
 476 0030 42F48022 		orr	r2, r2, #262144
ARM GAS  C:\Users\Nedoo\AppData\Local\Temp\ccc64dkK.s 			page 15


 477 0034 1A60     		str	r2, [r3]
  21:Core/Src/main.c **** 
 478              		.loc 1 21 5 view .LVU148
 479 0036 1A68     		ldr	r2, [r3]
 480 0038 42F48012 		orr	r2, r2, #1048576
 481 003c 1A60     		str	r2, [r3]
  23:Core/Src/main.c ****     CLEAR_BIT(GPIOB->OTYPER, GPIO_OTYPER_OT_7);
 482              		.loc 1 23 5 view .LVU149
 483 003e 5A68     		ldr	r2, [r3, #4]
 484 0040 22F00102 		bic	r2, r2, #1
 485 0044 5A60     		str	r2, [r3, #4]
  24:Core/Src/main.c ****     CLEAR_BIT(GPIOB->OTYPER, GPIO_OTYPER_OT_14);
 486              		.loc 1 24 5 view .LVU150
 487 0046 5A68     		ldr	r2, [r3, #4]
 488 0048 22F08002 		bic	r2, r2, #128
 489 004c 5A60     		str	r2, [r3, #4]
  25:Core/Src/main.c ****     CLEAR_BIT(GPIOB->OTYPER, GPIO_OTYPER_OT_8);
 490              		.loc 1 25 5 view .LVU151
 491 004e 5A68     		ldr	r2, [r3, #4]
 492 0050 22F48042 		bic	r2, r2, #16384
 493 0054 5A60     		str	r2, [r3, #4]
  26:Core/Src/main.c ****     CLEAR_BIT(GPIOB->OTYPER, GPIO_OTYPER_OT_9);
 494              		.loc 1 26 5 view .LVU152
 495 0056 5A68     		ldr	r2, [r3, #4]
 496 0058 22F48072 		bic	r2, r2, #256
 497 005c 5A60     		str	r2, [r3, #4]
  27:Core/Src/main.c ****     CLEAR_BIT(GPIOB->OTYPER, GPIO_OTYPER_OT_10);
 498              		.loc 1 27 5 view .LVU153
 499 005e 5A68     		ldr	r2, [r3, #4]
 500 0060 22F40072 		bic	r2, r2, #512
 501 0064 5A60     		str	r2, [r3, #4]
  28:Core/Src/main.c **** 
 502              		.loc 1 28 5 view .LVU154
 503 0066 5A68     		ldr	r2, [r3, #4]
 504 0068 22F48062 		bic	r2, r2, #1024
 505 006c 5A60     		str	r2, [r3, #4]
  30:Core/Src/main.c ****     SET_BIT(GPIOB->OSPEEDR, GPIO_OSPEEDER_OSPEEDR7_0);
 506              		.loc 1 30 5 view .LVU155
 507 006e 9A68     		ldr	r2, [r3, #8]
 508 0070 42F00102 		orr	r2, r2, #1
 509 0074 9A60     		str	r2, [r3, #8]
  31:Core/Src/main.c ****     SET_BIT(GPIOB->OSPEEDR, GPIO_OSPEEDER_OSPEEDR14_0);
 510              		.loc 1 31 5 view .LVU156
 511 0076 9A68     		ldr	r2, [r3, #8]
 512 0078 42F48042 		orr	r2, r2, #16384
 513 007c 9A60     		str	r2, [r3, #8]
  32:Core/Src/main.c ****     SET_BIT(GPIOB->OSPEEDR, GPIO_OSPEEDER_OSPEEDR8_0);
 514              		.loc 1 32 5 view .LVU157
 515 007e 9A68     		ldr	r2, [r3, #8]
 516 0080 42F08052 		orr	r2, r2, #268435456
 517 0084 9A60     		str	r2, [r3, #8]
  33:Core/Src/main.c ****     SET_BIT(GPIOB->OSPEEDR, GPIO_OSPEEDER_OSPEEDR9_0);
 518              		.loc 1 33 5 view .LVU158
 519 0086 9A68     		ldr	r2, [r3, #8]
 520 0088 42F48032 		orr	r2, r2, #65536
 521 008c 9A60     		str	r2, [r3, #8]
  34:Core/Src/main.c ****     SET_BIT(GPIOB->OSPEEDR, GPIO_OSPEEDER_OSPEEDR10_0);
ARM GAS  C:\Users\Nedoo\AppData\Local\Temp\ccc64dkK.s 			page 16


 522              		.loc 1 34 5 view .LVU159
 523 008e 9A68     		ldr	r2, [r3, #8]
 524 0090 42F48022 		orr	r2, r2, #262144
 525 0094 9A60     		str	r2, [r3, #8]
  35:Core/Src/main.c **** 
 526              		.loc 1 35 5 view .LVU160
 527 0096 9A68     		ldr	r2, [r3, #8]
 528 0098 42F48012 		orr	r2, r2, #1048576
 529 009c 9A60     		str	r2, [r3, #8]
  37:Core/Src/main.c ****     CLEAR_BIT(GPIOB->PUPDR, GPIO_PUPDR_PUPDR7_0);
 530              		.loc 1 37 5 view .LVU161
 531 009e DA68     		ldr	r2, [r3, #12]
 532 00a0 22F00102 		bic	r2, r2, #1
 533 00a4 DA60     		str	r2, [r3, #12]
  38:Core/Src/main.c ****     CLEAR_BIT(GPIOB->PUPDR, GPIO_PUPDR_PUPDR14_0);
 534              		.loc 1 38 5 view .LVU162
 535 00a6 DA68     		ldr	r2, [r3, #12]
 536 00a8 22F48042 		bic	r2, r2, #16384
 537 00ac DA60     		str	r2, [r3, #12]
  39:Core/Src/main.c ****     CLEAR_BIT(GPIOB->PUPDR, GPIO_PUPDR_PUPDR8_0);
 538              		.loc 1 39 5 view .LVU163
 539 00ae DA68     		ldr	r2, [r3, #12]
 540 00b0 22F08052 		bic	r2, r2, #268435456
 541 00b4 DA60     		str	r2, [r3, #12]
  40:Core/Src/main.c ****     CLEAR_BIT(GPIOB->PUPDR, GPIO_PUPDR_PUPDR9_0);
 542              		.loc 1 40 5 view .LVU164
 543 00b6 DA68     		ldr	r2, [r3, #12]
 544 00b8 22F48032 		bic	r2, r2, #65536
 545 00bc DA60     		str	r2, [r3, #12]
  41:Core/Src/main.c ****     CLEAR_BIT(GPIOB->PUPDR, GPIO_PUPDR_PUPDR10_0);
 546              		.loc 1 41 5 view .LVU165
 547 00be DA68     		ldr	r2, [r3, #12]
 548 00c0 22F48022 		bic	r2, r2, #262144
 549 00c4 DA60     		str	r2, [r3, #12]
  42:Core/Src/main.c **** 
 550              		.loc 1 42 5 view .LVU166
 551 00c6 DA68     		ldr	r2, [r3, #12]
 552 00c8 22F48012 		bic	r2, r2, #1048576
 553 00cc DA60     		str	r2, [r3, #12]
  45:Core/Src/main.c ****     SET_BIT(GPIOC->PUPDR, GPIO_PUPDR_PUPD13_1);
 554              		.loc 1 45 5 view .LVU167
 555 00ce 03F58063 		add	r3, r3, #1024
 556 00d2 1A68     		ldr	r2, [r3]
 557 00d4 22F04062 		bic	r2, r2, #201326592
 558 00d8 1A60     		str	r2, [r3]
  46:Core/Src/main.c **** 
 559              		.loc 1 46 5 view .LVU168
 560 00da DA68     		ldr	r2, [r3, #12]
 561 00dc 42F00062 		orr	r2, r2, #134217728
 562 00e0 DA60     		str	r2, [r3, #12]
  49:Core/Src/main.c ****     SET_BIT(GPIOC->PUPDR, GPIO_PUPDR_PUPD6_1);
 563              		.loc 1 49 5 view .LVU169
 564 00e2 1A68     		ldr	r2, [r3]
 565 00e4 22F44052 		bic	r2, r2, #12288
 566 00e8 1A60     		str	r2, [r3]
  50:Core/Src/main.c **** 
 567              		.loc 1 50 5 view .LVU170
ARM GAS  C:\Users\Nedoo\AppData\Local\Temp\ccc64dkK.s 			page 17


 568 00ea DA68     		ldr	r2, [r3, #12]
 569 00ec 42F40052 		orr	r2, r2, #8192
 570 00f0 DA60     		str	r2, [r3, #12]
  52:Core/Src/main.c ****     SET_BIT(GPIOC->PUPDR, GPIO_PUPDR_PUPD8_1);
 571              		.loc 1 52 5 view .LVU171
 572 00f2 1A68     		ldr	r2, [r3]
 573 00f4 22F44032 		bic	r2, r2, #196608
 574 00f8 1A60     		str	r2, [r3]
  53:Core/Src/main.c **** 
 575              		.loc 1 53 5 view .LVU172
 576 00fa DA68     		ldr	r2, [r3, #12]
 577 00fc 42F40032 		orr	r2, r2, #131072
 578 0100 DA60     		str	r2, [r3, #12]
  55:Core/Src/main.c ****     SET_BIT(GPIOC->PUPDR, GPIO_PUPDR_PUPD9_1);
 579              		.loc 1 55 5 view .LVU173
 580 0102 1A68     		ldr	r2, [r3]
 581 0104 22F44022 		bic	r2, r2, #786432
 582 0108 1A60     		str	r2, [r3]
  56:Core/Src/main.c **** 
 583              		.loc 1 56 5 view .LVU174
 584 010a DA68     		ldr	r2, [r3, #12]
 585 010c 42F40022 		orr	r2, r2, #524288
 586 0110 DA60     		str	r2, [r3, #12]
 587 0112 2CE0     		b	.L48
 588              	.L58:
  63:Core/Src/main.c ****             if ((READ_BIT(GPIOC->IDR, GPIO_IDR_IDR_13)) != 0) // PC13 is still pressed
 589              		.loc 1 63 13 view .LVU175
 590 0114 FFF7FEFF 		bl	delay
 591              	.LVL2:
  64:Core/Src/main.c ****             {
 592              		.loc 1 64 13 view .LVU176
  64:Core/Src/main.c ****             {
 593              		.loc 1 64 18 is_stmt 0 view .LVU177
 594 0118 274B     		ldr	r3, .L60+8
 595 011a 1B69     		ldr	r3, [r3, #16]
  64:Core/Src/main.c ****             {
 596              		.loc 1 64 16 view .LVU178
 597 011c 13F4005F 		tst	r3, #8192
 598 0120 2AD0     		beq	.L49
  66:Core/Src/main.c ****                 while ((READ_BIT(GPIOC->IDR, GPIO_IDR_IDR_13)) != 0) ; // Wait for button release
 599              		.loc 1 66 17 is_stmt 1 view .LVU179
  66:Core/Src/main.c ****                 while ((READ_BIT(GPIOC->IDR, GPIO_IDR_IDR_13)) != 0) ; // Wait for button release
 600              		.loc 1 66 30 is_stmt 0 view .LVU180
 601 0122 2649     		ldr	r1, .L60+12
 602 0124 0A78     		ldrb	r2, [r1]	@ zero_extendqisi2
 603 0126 0132     		adds	r2, r2, #1
  66:Core/Src/main.c ****                 while ((READ_BIT(GPIOC->IDR, GPIO_IDR_IDR_13)) != 0) ; // Wait for button release
 604              		.loc 1 66 35 view .LVU181
 605 0128 254B     		ldr	r3, .L60+16
 606 012a 83FB0203 		smull	r0, r3, r3, r2
 607 012e 03EB4303 		add	r3, r3, r3, lsl #1
 608 0132 D31A     		subs	r3, r2, r3
  66:Core/Src/main.c ****                 while ((READ_BIT(GPIOC->IDR, GPIO_IDR_IDR_13)) != 0) ; // Wait for button release
 609              		.loc 1 66 22 view .LVU182
 610 0134 DBB2     		uxtb	r3, r3
 611 0136 0B70     		strb	r3, [r1]
  67:Core/Src/main.c ****             }
ARM GAS  C:\Users\Nedoo\AppData\Local\Temp\ccc64dkK.s 			page 18


 612              		.loc 1 67 17 is_stmt 1 view .LVU183
 613              	.L50:
  67:Core/Src/main.c ****             }
 614              		.loc 1 67 64 discriminator 1 view .LVU184
  67:Core/Src/main.c ****             }
 615              		.loc 1 67 25 is_stmt 0 discriminator 1 view .LVU185
 616 0138 1F4B     		ldr	r3, .L60+8
 617 013a 1B69     		ldr	r3, [r3, #16]
  67:Core/Src/main.c ****             }
 618              		.loc 1 67 64 discriminator 1 view .LVU186
 619 013c 13F4005F 		tst	r3, #8192
 620 0140 FAD1     		bne	.L50
 621 0142 19E0     		b	.L49
 622              	.L51:
 623              	.LBB3:
  77:Core/Src/main.c ****         }
 624              		.loc 1 77 17 is_stmt 1 view .LVU187
 625 0144 1D4B     		ldr	r3, .L60+12
 626 0146 1878     		ldrb	r0, [r3]	@ zero_extendqisi2
 627 0148 0621     		movs	r1, #6
 628 014a FFF7FEFF 		bl	UpdateModeLEDsoff
 629              	.LVL3:
 630 014e 1DE0     		b	.L52
 631              	.L59:
 632              	.LBE3:
  82:Core/Src/main.c ****         }
 633              		.loc 1 82 17 view .LVU188
 634 0150 1A4B     		ldr	r3, .L60+12
 635 0152 1878     		ldrb	r0, [r3]	@ zero_extendqisi2
 636 0154 0821     		movs	r1, #8
 637 0156 FFF7FEFF 		bl	UpdateModeLEDs
 638              	.LVL4:
 639              	.L54:
  88:Core/Src/main.c ****         {            
 640              		.loc 1 88 9 view .LVU189
  88:Core/Src/main.c ****         {            
 641              		.loc 1 88 14 is_stmt 0 view .LVU190
 642 015a 174B     		ldr	r3, .L60+8
 643 015c 1B69     		ldr	r3, [r3, #16]
  88:Core/Src/main.c ****         {            
 644              		.loc 1 88 12 view .LVU191
 645 015e 13F4007F 		tst	r3, #512
 646 0162 1ED0     		beq	.L55
  90:Core/Src/main.c ****         }
 647              		.loc 1 90 17 is_stmt 1 view .LVU192
 648 0164 154B     		ldr	r3, .L60+12
 649 0166 1878     		ldrb	r0, [r3]	@ zero_extendqisi2
 650 0168 0921     		movs	r1, #9
 651 016a FFF7FEFF 		bl	UpdateModeLEDs
 652              	.LVL5:
 653              	.L48:
  58:Core/Src/main.c ****     {
 654              		.loc 1 58 5 view .LVU193
  61:Core/Src/main.c ****         {
 655              		.loc 1 61 9 view .LVU194
  61:Core/Src/main.c ****         {
 656              		.loc 1 61 14 is_stmt 0 view .LVU195
ARM GAS  C:\Users\Nedoo\AppData\Local\Temp\ccc64dkK.s 			page 19


 657 016e 124B     		ldr	r3, .L60+8
 658 0170 1B69     		ldr	r3, [r3, #16]
  61:Core/Src/main.c ****         {
 659              		.loc 1 61 12 view .LVU196
 660 0172 13F4005F 		tst	r3, #8192
 661 0176 CDD1     		bne	.L58
 662              	.L49:
  72:Core/Src/main.c ****         {            
 663              		.loc 1 72 9 is_stmt 1 view .LVU197
  72:Core/Src/main.c ****         {            
 664              		.loc 1 72 14 is_stmt 0 view .LVU198
 665 0178 0F4B     		ldr	r3, .L60+8
 666 017a 1B69     		ldr	r3, [r3, #16]
  72:Core/Src/main.c ****         {            
 667              		.loc 1 72 12 view .LVU199
 668 017c 13F0400F 		tst	r3, #64
 669 0180 E0D0     		beq	.L51
  74:Core/Src/main.c ****         }
 670              		.loc 1 74 17 is_stmt 1 view .LVU200
 671 0182 0E4B     		ldr	r3, .L60+12
 672 0184 1878     		ldrb	r0, [r3]	@ zero_extendqisi2
 673 0186 0621     		movs	r1, #6
 674 0188 FFF7FEFF 		bl	UpdateModeLEDs
 675              	.LVL6:
 676              	.L52:
  80:Core/Src/main.c ****         {            
 677              		.loc 1 80 9 view .LVU201
  80:Core/Src/main.c ****         {            
 678              		.loc 1 80 14 is_stmt 0 view .LVU202
 679 018c 0A4B     		ldr	r3, .L60+8
 680 018e 1B69     		ldr	r3, [r3, #16]
  80:Core/Src/main.c ****         {            
 681              		.loc 1 80 12 view .LVU203
 682 0190 13F4807F 		tst	r3, #256
 683 0194 DCD1     		bne	.L59
 684              	.LBB4:
  85:Core/Src/main.c ****         }
 685              		.loc 1 85 17 is_stmt 1 view .LVU204
 686 0196 094B     		ldr	r3, .L60+12
 687 0198 1878     		ldrb	r0, [r3]	@ zero_extendqisi2
 688 019a 0821     		movs	r1, #8
 689 019c FFF7FEFF 		bl	UpdateModeLEDsoff
 690              	.LVL7:
 691 01a0 DBE7     		b	.L54
 692              	.L55:
 693              	.LBE4:
 694              	.LBB5:
  93:Core/Src/main.c ****         }
 695              		.loc 1 93 17 view .LVU205
 696 01a2 064B     		ldr	r3, .L60+12
 697 01a4 1878     		ldrb	r0, [r3]	@ zero_extendqisi2
 698 01a6 0921     		movs	r1, #9
 699 01a8 FFF7FEFF 		bl	UpdateModeLEDsoff
 700              	.LVL8:
 701 01ac DFE7     		b	.L48
 702              	.L61:
 703 01ae 00BF     		.align	2
ARM GAS  C:\Users\Nedoo\AppData\Local\Temp\ccc64dkK.s 			page 20


 704              	.L60:
 705 01b0 00380240 		.word	1073887232
 706 01b4 00040240 		.word	1073873920
 707 01b8 00080240 		.word	1073874944
 708 01bc 00000000 		.word	mode
 709 01c0 56555555 		.word	1431655766
 710              	.LBE5:
 711              		.cfi_endproc
 712              	.LFE130:
 714              		.global	mode
 715              		.section	.bss.mode,"aw",%nobits
 718              	mode:
 719 0000 00       		.space	1
 720              		.text
 721              	.Letext0:
 722              		.file 2 "D:/STEM32_works/Danpianji/SysGCC/arm-eabi/arm-none-eabi/include/machine/_default_types.h"
 723              		.file 3 "D:/STEM32_works/Danpianji/SysGCC/arm-eabi/arm-none-eabi/include/sys/_stdint.h"
 724              		.file 4 "Core/Inc/../../CMSIS/Devices/stm32f429xx.h"
ARM GAS  C:\Users\Nedoo\AppData\Local\Temp\ccc64dkK.s 			page 21


DEFINED SYMBOLS
                            *ABS*:00000000 main.c
C:\Users\Nedoo\AppData\Local\Temp\ccc64dkK.s:21     .text.UpdateModeLEDs:00000000 $t
C:\Users\Nedoo\AppData\Local\Temp\ccc64dkK.s:27     .text.UpdateModeLEDs:00000000 UpdateModeLEDs
C:\Users\Nedoo\AppData\Local\Temp\ccc64dkK.s:197    .text.UpdateModeLEDs:000000c0 $d
C:\Users\Nedoo\AppData\Local\Temp\ccc64dkK.s:203    .text.UpdateModeLEDsoff:00000000 $t
C:\Users\Nedoo\AppData\Local\Temp\ccc64dkK.s:209    .text.UpdateModeLEDsoff:00000000 UpdateModeLEDsoff
C:\Users\Nedoo\AppData\Local\Temp\ccc64dkK.s:370    .text.UpdateModeLEDsoff:000000c0 $d
C:\Users\Nedoo\AppData\Local\Temp\ccc64dkK.s:375    .text.delay:00000000 $t
C:\Users\Nedoo\AppData\Local\Temp\ccc64dkK.s:381    .text.delay:00000000 delay
C:\Users\Nedoo\AppData\Local\Temp\ccc64dkK.s:427    .text.delay:0000001c $d
C:\Users\Nedoo\AppData\Local\Temp\ccc64dkK.s:432    .text.main:00000000 $t
C:\Users\Nedoo\AppData\Local\Temp\ccc64dkK.s:438    .text.main:00000000 main
C:\Users\Nedoo\AppData\Local\Temp\ccc64dkK.s:705    .text.main:000001b0 $d
C:\Users\Nedoo\AppData\Local\Temp\ccc64dkK.s:718    .bss.mode:00000000 mode
C:\Users\Nedoo\AppData\Local\Temp\ccc64dkK.s:719    .bss.mode:00000000 $d

NO UNDEFINED SYMBOLS
