ARM GAS  C:\Users\rpong\AppData\Local\Temp\ccqqa9eP.s 			page 1


   1              		.cpu cortex-m4
   2              		.arch armv7e-m
   3              		.fpu fpv4-sp-d16
   4              		.eabi_attribute 27, 1
   5              		.eabi_attribute 28, 1
   6              		.eabi_attribute 20, 1
   7              		.eabi_attribute 21, 1
   8              		.eabi_attribute 23, 3
   9              		.eabi_attribute 24, 1
  10              		.eabi_attribute 25, 1
  11              		.eabi_attribute 26, 1
  12              		.eabi_attribute 30, 1
  13              		.eabi_attribute 34, 1
  14              		.eabi_attribute 18, 4
  15              		.file	"main.c"
  16              		.text
  17              	.Ltext0:
  18              		.cfi_sections	.debug_frame
  19              		.file 1 "Core/Src/main.c"
  20              		.section	.text.main,"ax",%progbits
  21              		.align	1
  22              		.global	main
  23              		.syntax unified
  24              		.thumb
  25              		.thumb_func
  27              	main:
  28              	.LFB130:
   1:Core/Src/main.c **** #include "../Inc/init.h"
   2:Core/Src/main.c **** 
   3:Core/Src/main.c **** uint8_t counter = -1;
   4:Core/Src/main.c **** uint8_t flag = 0;
   5:Core/Src/main.c **** 
   6:Core/Src/main.c **** int main(void){
  29              		.loc 1 6 15 view -0
  30              		.cfi_startproc
  31              		@ Volatile: function does not return.
  32              		@ args = 0, pretend = 0, frame = 0
  33              		@ frame_needed = 0, uses_anonymous_args = 0
  34 0000 08B5     		push	{r3, lr}
  35              	.LCFI0:
  36              		.cfi_def_cfa_offset 8
  37              		.cfi_offset 3, -8
  38              		.cfi_offset 14, -4
   7:Core/Src/main.c ****     GPIO_Ini_Self();
  39              		.loc 1 7 5 view .LVU1
  40 0002 FFF7FEFF 		bl	GPIO_Ini_Self
  41              	.LVL0:
   8:Core/Src/main.c ****     GPIO_Ini_CMSIS();
  42              		.loc 1 8 5 view .LVU2
  43 0006 FFF7FEFF 		bl	GPIO_Ini_CMSIS
  44              	.LVL1:
  45 000a 30E0     		b	.L3
  46              	.L4:
   9:Core/Src/main.c ****     //address of LED 1 (GPIOB_pin14)
  10:Core/Src/main.c ****     //address of LED 2 (GPIOB_pin0)
  11:Core/Src/main.c ****     //address of LED 3 (GPIOB_pin7)
  12:Core/Src/main.c ****     //address of LED 4 (GPIOB_pin8)
ARM GAS  C:\Users\rpong\AppData\Local\Temp\ccqqa9eP.s 			page 2


  13:Core/Src/main.c ****     //address of Button (GPIOB_pin13)
  14:Core/Src/main.c ****     while(1){  
  15:Core/Src/main.c ****         //counter++;
  16:Core/Src/main.c ****         //delay(1638);
  17:Core/Src/main.c ****         //if(READ_BIT_Self(GPIOC_IDR, GPIOC_IDR_PIN7) != 0)
  18:Core/Src/main.c ****         if(READ_BIT_Self(GPIOC_IDR, GPIOC_IDR_PIN0) != 0){
  19:Core/Src/main.c ****             if(flag == 0){
  20:Core/Src/main.c ****                 flag = 1;
  21:Core/Src/main.c ****                 counter++;
  22:Core/Src/main.c ****                 //delay(1638);
  23:Core/Src/main.c ****             }           
  24:Core/Src/main.c ****         }
  25:Core/Src/main.c ****         else if(flag == 1){
  47              		.loc 1 25 14 view .LVU3
  48              		.loc 1 25 22 is_stmt 0 view .LVU4
  49 000c 554B     		ldr	r3, .L17
  50 000e 1B78     		ldrb	r3, [r3]	@ zero_extendqisi2
  51              		.loc 1 25 16 view .LVU5
  52 0010 012B     		cmp	r3, #1
  53 0012 11D0     		beq	.L16
  54              	.L5:
  26:Core/Src/main.c ****             flag = 0;
  27:Core/Src/main.c ****             //delay(1638);
  28:Core/Src/main.c ****         }
  29:Core/Src/main.c ****         if(counter%6 == 0)//–≤–∫–ª—é—á–µ–Ω–∏–µ –≤—Å–µ—Ö —Å–≤–µ—Ç–æ–¥–∏–æ–¥–æ–≤ –Ω–∞ 6-–æ–µ –Ω–∞–∂–∞
  55              		.loc 1 29 9 is_stmt 1 view .LVU6
  56              		.loc 1 29 22 is_stmt 0 view .LVU7
  57 0014 544B     		ldr	r3, .L17+4
  58 0016 1A78     		ldrb	r2, [r3]	@ zero_extendqisi2
  59 0018 544B     		ldr	r3, .L17+8
  60 001a A3FB0213 		umull	r1, r3, r3, r2
  61 001e 9B08     		lsrs	r3, r3, #2
  62 0020 03EB4303 		add	r3, r3, r3, lsl #1
  63 0024 5900     		lsls	r1, r3, #1
  64 0026 531A     		subs	r3, r2, r1
  65 0028 DBB2     		uxtb	r3, r3
  66 002a 052B     		cmp	r3, #5
  67 002c 1FD8     		bhi	.L3
  68 002e DFE803F0 		tbb	[pc, r3]
  69              	.L7:
  70 0032 07       		.byte	(.L12-.L7)/2
  71 0033 45       		.byte	(.L11-.L7)/2
  72 0034 5A       		.byte	(.L10-.L7)/2
  73 0035 6F       		.byte	(.L9-.L7)/2
  74 0036 84       		.byte	(.L8-.L7)/2
  75 0037 30       		.byte	(.L6-.L7)/2
  76              		.p2align 1
  77              	.L16:
  26:Core/Src/main.c ****             flag = 0;
  78              		.loc 1 26 13 is_stmt 1 view .LVU8
  26:Core/Src/main.c ****             flag = 0;
  79              		.loc 1 26 18 is_stmt 0 view .LVU9
  80 0038 4A4B     		ldr	r3, .L17
  81 003a 0022     		movs	r2, #0
  82 003c 1A70     		strb	r2, [r3]
  83 003e E9E7     		b	.L5
  84              	.L12:
ARM GAS  C:\Users\rpong\AppData\Local\Temp\ccqqa9eP.s 			page 3


  30:Core/Src/main.c ****         {
  31:Core/Src/main.c ****             *(uint32_t*)(0x40020400UL + 0x18UL) |= 0x4000UL;//–≤–∫–ª—é—á–µ–Ω–∏–µ —Å–≤–µ—Ç–æ–¥–∏–æ–¥
  85              		.loc 1 31 13 is_stmt 1 view .LVU10
  86 0040 4B4A     		ldr	r2, .L17+12
  87 0042 D2F81834 		ldr	r3, [r2, #1048]
  88              		.loc 1 31 49 is_stmt 0 view .LVU11
  89 0046 43F48041 		orr	r1, r3, #16384
  90 004a C2F81814 		str	r1, [r2, #1048]
  32:Core/Src/main.c ****             SET_BIT_Self(GPIOB_BSRR, GPIOB_BSRR_PIN0_SET); //–≤–∫–ª—é—á–µ–Ω–∏–µ —Å–≤–µ—Ç–æ–¥–∏–æ–¥–
  91              		.loc 1 32 13 is_stmt 1 view .LVU12
  92 004e 41F00103 		orr	r3, r1, #1
  93 0052 C2F81834 		str	r3, [r2, #1048]
  33:Core/Src/main.c ****             SET_BIT(GPIOB->BSRR, GPIO_BSRR_BS7);//–≤–∫–ª—é—á–µ–Ω–∏–µ —Å–≤–µ—Ç–æ–¥–∏–æ–¥–∞ 7-–≥–æ –ø
  94              		.loc 1 33 13 view .LVU13
  95 0056 474B     		ldr	r3, .L17+16
  96 0058 9A69     		ldr	r2, [r3, #24]
  97 005a 42F08002 		orr	r2, r2, #128
  98 005e 9A61     		str	r2, [r3, #24]
  34:Core/Src/main.c ****             SET_BIT(GPIOB->BSRR, GPIO_BSRR_BS8);//–≤–∫–ª—é—á–µ–Ω–∏–µ —Å–≤–µ—Ç–æ–¥–∏–æ–¥–∞ 8-–≥–æ –ø
  99              		.loc 1 34 13 view .LVU14
 100 0060 9A69     		ldr	r2, [r3, #24]
 101 0062 42F48072 		orr	r2, r2, #256
 102 0066 9A61     		str	r2, [r3, #24]
  35:Core/Src/main.c ****             counter = 0;
 103              		.loc 1 35 13 view .LVU15
 104              		.loc 1 35 21 is_stmt 0 view .LVU16
 105 0068 3F4B     		ldr	r3, .L17+4
 106 006a 0022     		movs	r2, #0
 107 006c 1A70     		strb	r2, [r3]
 108              	.L3:
  14:Core/Src/main.c ****         //counter++;
 109              		.loc 1 14 5 is_stmt 1 view .LVU17
  18:Core/Src/main.c ****             if(flag == 0){
 110              		.loc 1 18 9 view .LVU18
  18:Core/Src/main.c ****             if(flag == 0){
 111              		.loc 1 18 12 is_stmt 0 view .LVU19
 112 006e 404B     		ldr	r3, .L17+12
 113 0070 D3F81038 		ldr	r3, [r3, #2064]
  18:Core/Src/main.c ****             if(flag == 0){
 114              		.loc 1 18 11 view .LVU20
 115 0074 13F0010F 		tst	r3, #1
 116 0078 C8D0     		beq	.L4
  19:Core/Src/main.c ****                 flag = 1;
 117              		.loc 1 19 13 is_stmt 1 view .LVU21
  19:Core/Src/main.c ****                 flag = 1;
 118              		.loc 1 19 21 is_stmt 0 view .LVU22
 119 007a 3A4B     		ldr	r3, .L17
 120 007c 1B78     		ldrb	r3, [r3]	@ zero_extendqisi2
  19:Core/Src/main.c ****                 flag = 1;
 121              		.loc 1 19 15 view .LVU23
 122 007e 002B     		cmp	r3, #0
 123 0080 C8D1     		bne	.L5
  20:Core/Src/main.c ****                 counter++;
 124              		.loc 1 20 17 is_stmt 1 view .LVU24
  20:Core/Src/main.c ****                 counter++;
 125              		.loc 1 20 22 is_stmt 0 view .LVU25
 126 0082 384B     		ldr	r3, .L17
ARM GAS  C:\Users\rpong\AppData\Local\Temp\ccqqa9eP.s 			page 4


 127 0084 0122     		movs	r2, #1
 128 0086 1A70     		strb	r2, [r3]
  21:Core/Src/main.c ****                 //delay(1638);
 129              		.loc 1 21 17 is_stmt 1 view .LVU26
  21:Core/Src/main.c ****                 //delay(1638);
 130              		.loc 1 21 24 is_stmt 0 view .LVU27
 131 0088 374A     		ldr	r2, .L17+4
 132 008a 1378     		ldrb	r3, [r2]	@ zero_extendqisi2
 133 008c 0133     		adds	r3, r3, #1
 134 008e 1370     		strb	r3, [r2]
 135 0090 C0E7     		b	.L5
 136              	.L6:
  36:Core/Src/main.c ****         }
  37:Core/Src/main.c ****         else if (counter%6 == 5)//–≤—ã–∫–ª—é—á–µ–Ω–∏–µ –≤—Å–µ—Ö —Å–≤–µ—Ç–æ–¥–∏–æ–¥–æ–≤
  38:Core/Src/main.c ****         {
  39:Core/Src/main.c ****             *(uint32_t*)(0x40020400UL + 0x18UL) |= 0x40000000UL;//–≤—ã–∫–ª—é—á–µ–Ω–∏–µ —Å–≤–µ—Ç–æ–¥
 137              		.loc 1 39 13 is_stmt 1 view .LVU28
 138 0092 374A     		ldr	r2, .L17+12
 139 0094 D2F81834 		ldr	r3, [r2, #1048]
 140              		.loc 1 39 49 is_stmt 0 view .LVU29
 141 0098 43F08043 		orr	r3, r3, #1073741824
 142 009c C2F81834 		str	r3, [r2, #1048]
  40:Core/Src/main.c ****             SET_BIT_Self(GPIOB_BSRR, GPIOB_BSRR_PIN0_RESET);//–≤—ã–∫–ª—é—á–µ–Ω–∏–µ —Å–≤–µ—Ç–æ–¥–∏–æ
 143              		.loc 1 40 13 is_stmt 1 view .LVU30
 144 00a0 43F48033 		orr	r3, r3, #65536
 145 00a4 C2F81834 		str	r3, [r2, #1048]
  41:Core/Src/main.c ****             SET_BIT(GPIOB->BSRR, GPIO_BSRR_BR7);//–≤—ã–∫–ª—é—á–µ–Ω–∏–µ —Å–≤–µ—Ç–æ–¥–∏–æ–¥–∞ 7-–≥–æ 
 146              		.loc 1 41 13 view .LVU31
 147 00a8 324B     		ldr	r3, .L17+16
 148 00aa 9A69     		ldr	r2, [r3, #24]
 149 00ac 42F40002 		orr	r2, r2, #8388608
 150 00b0 9A61     		str	r2, [r3, #24]
  42:Core/Src/main.c ****             SET_BIT(GPIOB->BSRR, GPIO_BSRR_BR8);//–≤—ã–∫–ª—é—á–µ–Ω–∏–µ —Å–≤–µ—Ç–æ–¥–∏–æ–¥–∞ 8-–≥–æ 
 151              		.loc 1 42 13 view .LVU32
 152 00b2 9A69     		ldr	r2, [r3, #24]
 153 00b4 42F08072 		orr	r2, r2, #16777216
 154 00b8 9A61     		str	r2, [r3, #24]
 155 00ba D8E7     		b	.L3
 156              	.L11:
  43:Core/Src/main.c ****         }
  44:Core/Src/main.c ****         else if (counter%6 == 1)//LED 1 //14
  45:Core/Src/main.c ****         {
  46:Core/Src/main.c ****             *(uint32_t*)(0x40020400UL + 0x18UL) |= 0x4000UL;//–≤–∫–ª—é—á–µ–Ω–∏–µ —Å–≤–µ—Ç–æ–¥–∏–æ–¥
 157              		.loc 1 46 13 view .LVU33
 158 00bc 2C4A     		ldr	r2, .L17+12
 159 00be D2F81834 		ldr	r3, [r2, #1048]
 160              		.loc 1 46 49 is_stmt 0 view .LVU34
 161 00c2 43F48041 		orr	r1, r3, #16384
 162 00c6 C2F81814 		str	r1, [r2, #1048]
  47:Core/Src/main.c ****             SET_BIT_Self(GPIOB_BSRR, GPIOB_BSRR_PIN0_RESET);//–≤—ã–∫–ª—é—á–µ–Ω–∏–µ —Å–≤–µ—Ç–æ–¥–∏–æ
 163              		.loc 1 47 13 is_stmt 1 view .LVU35
 164 00ca 43F4A033 		orr	r3, r3, #81920
 165 00ce C2F81834 		str	r3, [r2, #1048]
  48:Core/Src/main.c ****             SET_BIT(GPIOB->BSRR, GPIO_BSRR_BR7);//–≤—ã–∫–ª—é—á–µ–Ω–∏–µ —Å–≤–µ—Ç–æ–¥–∏–æ–¥–∞ 7-–≥–æ 
 166              		.loc 1 48 13 view .LVU36
 167 00d2 284B     		ldr	r3, .L17+16
 168 00d4 9A69     		ldr	r2, [r3, #24]
ARM GAS  C:\Users\rpong\AppData\Local\Temp\ccqqa9eP.s 			page 5


 169 00d6 42F40002 		orr	r2, r2, #8388608
 170 00da 9A61     		str	r2, [r3, #24]
  49:Core/Src/main.c ****             SET_BIT(GPIOB->BSRR, GPIO_BSRR_BR8);//–≤—ã–∫–ª—é—á–µ–Ω–∏–µ —Å–≤–µ—Ç–æ–¥–∏–æ–¥–∞ 8-–≥–æ 
 171              		.loc 1 49 13 view .LVU37
 172 00dc 9A69     		ldr	r2, [r3, #24]
 173 00de 42F08072 		orr	r2, r2, #16777216
 174 00e2 9A61     		str	r2, [r3, #24]
 175 00e4 C3E7     		b	.L3
 176              	.L10:
  50:Core/Src/main.c ****         }
  51:Core/Src/main.c ****         else if (counter%6 == 2)//LED 2 /0
  52:Core/Src/main.c ****         {
  53:Core/Src/main.c ****             *(uint32_t*)(0x40020400UL + 0x18UL) |= 0x40000000UL;//–≤—ã–∫–ª—é—á–µ–Ω–∏–µ —Å–≤–µ—Ç–æ–¥
 177              		.loc 1 53 13 view .LVU38
 178 00e6 224A     		ldr	r2, .L17+12
 179 00e8 D2F81834 		ldr	r3, [r2, #1048]
 180              		.loc 1 53 49 is_stmt 0 view .LVU39
 181 00ec 43F08043 		orr	r3, r3, #1073741824
 182 00f0 C2F81834 		str	r3, [r2, #1048]
  54:Core/Src/main.c ****             SET_BIT_Self(GPIOB_BSRR, GPIOB_BSRR_PIN0_SET);//–≤–∫–ª—é—á–µ–Ω–∏–µ —Å–≤–µ—Ç–æ–¥–∏–æ–¥–∞
 183              		.loc 1 54 13 is_stmt 1 view .LVU40
 184 00f4 43F00103 		orr	r3, r3, #1
 185 00f8 C2F81834 		str	r3, [r2, #1048]
  55:Core/Src/main.c ****             SET_BIT(GPIOB->BSRR, GPIO_BSRR_BR7);//–≤—ã–∫–ª—é—á–µ–Ω–∏–µ —Å–≤–µ—Ç–æ–¥–∏–æ–¥–∞ 7-–≥–æ 
 186              		.loc 1 55 13 view .LVU41
 187 00fc 1D4B     		ldr	r3, .L17+16
 188 00fe 9A69     		ldr	r2, [r3, #24]
 189 0100 42F40002 		orr	r2, r2, #8388608
 190 0104 9A61     		str	r2, [r3, #24]
  56:Core/Src/main.c ****             SET_BIT(GPIOB->BSRR, GPIO_BSRR_BR8);//–≤—ã–∫–ª—é—á–µ–Ω–∏–µ —Å–≤–µ—Ç–æ–¥–∏–æ–¥–∞ 8-–≥–æ 
 191              		.loc 1 56 13 view .LVU42
 192 0106 9A69     		ldr	r2, [r3, #24]
 193 0108 42F08072 		orr	r2, r2, #16777216
 194 010c 9A61     		str	r2, [r3, #24]
 195 010e AEE7     		b	.L3
 196              	.L9:
  57:Core/Src/main.c ****         }
  58:Core/Src/main.c ****         else if (counter%6 == 3)//LED 3 / 7
  59:Core/Src/main.c ****         {
  60:Core/Src/main.c ****             *(uint32_t*)(0x40020400UL + 0x18UL) |= 0x40000000UL;//–≤—ã–∫–ª—é—á–µ–Ω–∏–µ —Å–≤–µ—Ç–æ–¥
 197              		.loc 1 60 13 view .LVU43
 198 0110 174A     		ldr	r2, .L17+12
 199 0112 D2F81834 		ldr	r3, [r2, #1048]
 200              		.loc 1 60 49 is_stmt 0 view .LVU44
 201 0116 43F08043 		orr	r3, r3, #1073741824
 202 011a C2F81834 		str	r3, [r2, #1048]
  61:Core/Src/main.c ****             SET_BIT_Self(GPIOB_BSRR, GPIOB_BSRR_PIN0_RESET);//–≤—ã–∫–ª—é—á–µ–Ω–∏–µ —Å–≤–µ—Ç–æ–¥–∏–æ
 203              		.loc 1 61 13 is_stmt 1 view .LVU45
 204 011e 43F48033 		orr	r3, r3, #65536
 205 0122 C2F81834 		str	r3, [r2, #1048]
  62:Core/Src/main.c ****             SET_BIT(GPIOB->BSRR, GPIO_BSRR_BS7);//–≤–∫–ª—é—á–µ–Ω–∏–µ —Å–≤–µ—Ç–æ–¥–∏–æ–¥–∞ 7-–≥–æ –ø
 206              		.loc 1 62 13 view .LVU46
 207 0126 134B     		ldr	r3, .L17+16
 208 0128 9A69     		ldr	r2, [r3, #24]
 209 012a 42F08002 		orr	r2, r2, #128
 210 012e 9A61     		str	r2, [r3, #24]
  63:Core/Src/main.c ****             SET_BIT(GPIOB->BSRR, GPIO_BSRR_BR8);//–≤—ã–∫–ª—é—á–µ–Ω–∏–µ —Å–≤–µ—Ç–æ–¥–∏–æ–¥–∞ 8-–≥–æ 
ARM GAS  C:\Users\rpong\AppData\Local\Temp\ccqqa9eP.s 			page 6


 211              		.loc 1 63 13 view .LVU47
 212 0130 9A69     		ldr	r2, [r3, #24]
 213 0132 42F08072 		orr	r2, r2, #16777216
 214 0136 9A61     		str	r2, [r3, #24]
 215 0138 99E7     		b	.L3
 216              	.L8:
  64:Core/Src/main.c ****         }
  65:Core/Src/main.c ****         else if (counter%6 == 4)//LED 4  /8
  66:Core/Src/main.c ****         {
  67:Core/Src/main.c ****             *(uint32_t*)(0x40020400UL + 0x18UL) |= 0x40000000UL;//–≤—ã–∫–ª—é—á–µ–Ω–∏–µ —Å–≤–µ—Ç–æ–¥
 217              		.loc 1 67 13 view .LVU48
 218 013a 0D4A     		ldr	r2, .L17+12
 219 013c D2F81834 		ldr	r3, [r2, #1048]
 220              		.loc 1 67 49 is_stmt 0 view .LVU49
 221 0140 43F08043 		orr	r3, r3, #1073741824
 222 0144 C2F81834 		str	r3, [r2, #1048]
  68:Core/Src/main.c ****             SET_BIT_Self(GPIOB_BSRR, GPIOB_BSRR_PIN0_RESET);//–≤—ã–∫–ª—é—á–µ–Ω–∏–µ —Å–≤–µ—Ç–æ–¥–∏–æ
 223              		.loc 1 68 13 is_stmt 1 view .LVU50
 224 0148 43F48033 		orr	r3, r3, #65536
 225 014c C2F81834 		str	r3, [r2, #1048]
  69:Core/Src/main.c ****             SET_BIT(GPIOB->BSRR, GPIO_BSRR_BR7);//–≤—ã–∫–ª—é—á–µ–Ω–∏–µ —Å–≤–µ—Ç–æ–¥–∏–æ–¥–∞ 7-–≥–æ 
 226              		.loc 1 69 13 view .LVU51
 227 0150 084B     		ldr	r3, .L17+16
 228 0152 9A69     		ldr	r2, [r3, #24]
 229 0154 42F40002 		orr	r2, r2, #8388608
 230 0158 9A61     		str	r2, [r3, #24]
  70:Core/Src/main.c ****             SET_BIT(GPIOB->BSRR, GPIO_BSRR_BS8);//–≤–∫–ª—é—á–µ–Ω–∏–µ —Å–≤–µ—Ç–æ–¥–∏–æ–¥–∞ 8-–≥–æ –ø
 231              		.loc 1 70 13 view .LVU52
 232 015a 9A69     		ldr	r2, [r3, #24]
 233 015c 42F48072 		orr	r2, r2, #256
 234 0160 9A61     		str	r2, [r3, #24]
 235 0162 84E7     		b	.L3
 236              	.L18:
 237              		.align	2
 238              	.L17:
 239 0164 00000000 		.word	flag
 240 0168 00000000 		.word	counter
 241 016c ABAAAAAA 		.word	-1431655765
 242 0170 00000240 		.word	1073872896
 243 0174 00040240 		.word	1073873920
 244              		.cfi_endproc
 245              	.LFE130:
 247              		.global	flag
 248              		.section	.bss.flag,"aw",%nobits
 251              	flag:
 252 0000 00       		.space	1
 253              		.global	counter
 254              		.section	.data.counter,"aw"
 257              	counter:
 258 0000 FF       		.byte	-1
 259              		.text
 260              	.Letext0:
 261              		.file 2 "D:/DMPT/xpack-arm-none-eabi-gcc-13.2.1-1.1/arm-none-eabi/include/machine/_default_types.h
 262              		.file 3 "D:/DMPT/xpack-arm-none-eabi-gcc-13.2.1-1.1/arm-none-eabi/include/sys/_stdint.h"
 263              		.file 4 "Core/Src/../Inc/../../CMSIS/Devices/stm32f429xx.h"
 264              		.file 5 "Core/Src/../Inc/init.h"
ARM GAS  C:\Users\rpong\AppData\Local\Temp\ccqqa9eP.s 			page 7


DEFINED SYMBOLS
                            *ABS*:00000000 main.c
C:\Users\rpong\AppData\Local\Temp\ccqqa9eP.s:21     .text.main:00000000 $t
C:\Users\rpong\AppData\Local\Temp\ccqqa9eP.s:27     .text.main:00000000 main
C:\Users\rpong\AppData\Local\Temp\ccqqa9eP.s:70     .text.main:00000032 $d
C:\Users\rpong\AppData\Local\Temp\ccqqa9eP.s:76     .text.main:00000038 $t
C:\Users\rpong\AppData\Local\Temp\ccqqa9eP.s:239    .text.main:00000164 $d
C:\Users\rpong\AppData\Local\Temp\ccqqa9eP.s:251    .bss.flag:00000000 flag
C:\Users\rpong\AppData\Local\Temp\ccqqa9eP.s:257    .data.counter:00000000 counter
C:\Users\rpong\AppData\Local\Temp\ccqqa9eP.s:252    .bss.flag:00000000 $d

UNDEFINED SYMBOLS
GPIO_Ini_Self
GPIO_Ini_CMSIS
