ARM GAS  C:\Users\VLED\AppData\Local\Temp\ccdUVfaK.s 			page 1


   1              		.cpu cortex-m4
   2              		.arch armv7e-m
   3              		.fpu fpv4-sp-d16
   4              		.eabi_attribute 27, 1
   5              		.eabi_attribute 28, 1
   6              		.eabi_attribute 20, 1
   7              		.eabi_attribute 21, 1
   8              		.eabi_attribute 23, 3
   9              		.eabi_attribute 24, 1
  10              		.eabi_attribute 25, 1
  11              		.eabi_attribute 26, 1
  12              		.eabi_attribute 30, 1
  13              		.eabi_attribute 34, 1
  14              		.eabi_attribute 18, 4
  15              		.file	"main.c"
  16              		.text
  17              	.Ltext0:
  18              		.cfi_sections	.debug_frame
  19              		.file 1 "Core/Src/main.c"
  20              		.section	.text.LED1_out,"ax",%progbits
  21              		.align	1
  22              		.global	LED1_out
  23              		.syntax unified
  24              		.thumb
  25              		.thumb_func
  27              	LED1_out:
  28              	.LFB130:
  29              		.file 2 "D:\\MK\\aboba\\rep\\Laboratory_Practice\\Core\\Src\\init.c"
   1:D:\MK\aboba\rep\Laboratory_Practice\Core\Src\init.c **** #include "D:\MK\aboba\rep\Laboratory_Practice\Core\Inc\init.h"
   2:D:\MK\aboba\rep\Laboratory_Practice\Core\Src\init.c **** void LED1_out()
   3:D:\MK\aboba\rep\Laboratory_Practice\Core\Src\init.c **** {
  30              		.loc 2 3 1 view -0
  31              		.cfi_startproc
  32              		@ args = 0, pretend = 0, frame = 0
  33              		@ frame_needed = 0, uses_anonymous_args = 0
  34              		@ link register save eliminated.
   4:D:\MK\aboba\rep\Laboratory_Practice\Core\Src\init.c ****     SET_BIT(GPIOA->MODER, GPIO_MODER_MODE3_0); //PA3, указан A0
  35              		.loc 2 4 5 view .LVU1
  36 0000 0A4B     		ldr	r3, .L2
  37 0002 1A68     		ldr	r2, [r3]
  38 0004 42F04002 		orr	r2, r2, #64
  39 0008 1A60     		str	r2, [r3]
   5:D:\MK\aboba\rep\Laboratory_Practice\Core\Src\init.c ****     CLEAR_BIT(GPIOA->OTYPER, GPIO_OTYPER_OT_3);
  40              		.loc 2 5 5 view .LVU2
  41 000a 5A68     		ldr	r2, [r3, #4]
  42 000c 22F00802 		bic	r2, r2, #8
  43 0010 5A60     		str	r2, [r3, #4]
   6:D:\MK\aboba\rep\Laboratory_Practice\Core\Src\init.c ****     SET_BIT(GPIOA->OSPEEDR, GPIO_OSPEEDER_OSPEEDR3_0);
  44              		.loc 2 6 5 view .LVU3
  45 0012 9A68     		ldr	r2, [r3, #8]
  46 0014 42F04002 		orr	r2, r2, #64
  47 0018 9A60     		str	r2, [r3, #8]
   7:D:\MK\aboba\rep\Laboratory_Practice\Core\Src\init.c ****     CLEAR_BIT(GPIOA->PUPDR, GPIO_PUPDR_PUPDR3_0);
  48              		.loc 2 7 5 view .LVU4
  49 001a DA68     		ldr	r2, [r3, #12]
  50 001c 22F04002 		bic	r2, r2, #64
  51 0020 DA60     		str	r2, [r3, #12]
ARM GAS  C:\Users\VLED\AppData\Local\Temp\ccdUVfaK.s 			page 2


   8:D:\MK\aboba\rep\Laboratory_Practice\Core\Src\init.c ****     SET_BIT(GPIOA->BSRR, GPIO_BSRR_BS3);
  52              		.loc 2 8 5 view .LVU5
  53 0022 9A69     		ldr	r2, [r3, #24]
  54 0024 42F00802 		orr	r2, r2, #8
  55 0028 9A61     		str	r2, [r3, #24]
   9:D:\MK\aboba\rep\Laboratory_Practice\Core\Src\init.c ****     return;
  56              		.loc 2 9 5 view .LVU6
  10:D:\MK\aboba\rep\Laboratory_Practice\Core\Src\init.c **** }
  57              		.loc 2 10 1 is_stmt 0 view .LVU7
  58 002a 7047     		bx	lr
  59              	.L3:
  60              		.align	2
  61              	.L2:
  62 002c 00000240 		.word	1073872896
  63              		.cfi_endproc
  64              	.LFE130:
  66              		.section	.text.LED2_out,"ax",%progbits
  67              		.align	1
  68              		.global	LED2_out
  69              		.syntax unified
  70              		.thumb
  71              		.thumb_func
  73              	LED2_out:
  74              	.LFB131:
  11:D:\MK\aboba\rep\Laboratory_Practice\Core\Src\init.c **** void LED2_out()
  12:D:\MK\aboba\rep\Laboratory_Practice\Core\Src\init.c **** {
  75              		.loc 2 12 1 is_stmt 1 view -0
  76              		.cfi_startproc
  77              		@ args = 0, pretend = 0, frame = 0
  78              		@ frame_needed = 0, uses_anonymous_args = 0
  79              		@ link register save eliminated.
  13:D:\MK\aboba\rep\Laboratory_Practice\Core\Src\init.c ****     SET_BIT(GPIOC->MODER, GPIO_MODER_MODE0_0); //PC0 A1
  80              		.loc 2 13 5 view .LVU9
  81 0000 0A4B     		ldr	r3, .L5
  82 0002 1A68     		ldr	r2, [r3]
  83 0004 42F00102 		orr	r2, r2, #1
  84 0008 1A60     		str	r2, [r3]
  14:D:\MK\aboba\rep\Laboratory_Practice\Core\Src\init.c ****     CLEAR_BIT(GPIOC->OTYPER, GPIO_OTYPER_OT_0);
  85              		.loc 2 14 5 view .LVU10
  86 000a 5A68     		ldr	r2, [r3, #4]
  87 000c 22F00102 		bic	r2, r2, #1
  88 0010 5A60     		str	r2, [r3, #4]
  15:D:\MK\aboba\rep\Laboratory_Practice\Core\Src\init.c ****     SET_BIT(GPIOC->OSPEEDR, GPIO_OSPEEDER_OSPEEDR0_0);
  89              		.loc 2 15 5 view .LVU11
  90 0012 9A68     		ldr	r2, [r3, #8]
  91 0014 42F00102 		orr	r2, r2, #1
  92 0018 9A60     		str	r2, [r3, #8]
  16:D:\MK\aboba\rep\Laboratory_Practice\Core\Src\init.c ****     CLEAR_BIT(GPIOC->PUPDR, GPIO_PUPDR_PUPDR0_0);
  93              		.loc 2 16 5 view .LVU12
  94 001a DA68     		ldr	r2, [r3, #12]
  95 001c 22F00102 		bic	r2, r2, #1
  96 0020 DA60     		str	r2, [r3, #12]
  17:D:\MK\aboba\rep\Laboratory_Practice\Core\Src\init.c ****     SET_BIT(GPIOC->BSRR, GPIO_BSRR_BS0);
  97              		.loc 2 17 5 view .LVU13
  98 0022 9A69     		ldr	r2, [r3, #24]
  99 0024 42F00102 		orr	r2, r2, #1
 100 0028 9A61     		str	r2, [r3, #24]
ARM GAS  C:\Users\VLED\AppData\Local\Temp\ccdUVfaK.s 			page 3


  18:D:\MK\aboba\rep\Laboratory_Practice\Core\Src\init.c ****     return;
 101              		.loc 2 18 5 view .LVU14
  19:D:\MK\aboba\rep\Laboratory_Practice\Core\Src\init.c **** }
 102              		.loc 2 19 1 is_stmt 0 view .LVU15
 103 002a 7047     		bx	lr
 104              	.L6:
 105              		.align	2
 106              	.L5:
 107 002c 00080240 		.word	1073874944
 108              		.cfi_endproc
 109              	.LFE131:
 111              		.section	.text.LED3_out,"ax",%progbits
 112              		.align	1
 113              		.global	LED3_out
 114              		.syntax unified
 115              		.thumb
 116              		.thumb_func
 118              	LED3_out:
 119              	.LFB132:
  20:D:\MK\aboba\rep\Laboratory_Practice\Core\Src\init.c **** void LED3_out()
  21:D:\MK\aboba\rep\Laboratory_Practice\Core\Src\init.c **** {
 120              		.loc 2 21 1 is_stmt 1 view -0
 121              		.cfi_startproc
 122              		@ args = 0, pretend = 0, frame = 0
 123              		@ frame_needed = 0, uses_anonymous_args = 0
 124              		@ link register save eliminated.
  22:D:\MK\aboba\rep\Laboratory_Practice\Core\Src\init.c ****     SET_BIT(GPIOC->MODER, GPIO_MODER_MODE3_0); //PC3 A2
 125              		.loc 2 22 5 view .LVU17
 126 0000 0A4B     		ldr	r3, .L8
 127 0002 1A68     		ldr	r2, [r3]
 128 0004 42F04002 		orr	r2, r2, #64
 129 0008 1A60     		str	r2, [r3]
  23:D:\MK\aboba\rep\Laboratory_Practice\Core\Src\init.c ****     CLEAR_BIT(GPIOC->OTYPER, GPIO_OTYPER_OT_3);
 130              		.loc 2 23 5 view .LVU18
 131 000a 5A68     		ldr	r2, [r3, #4]
 132 000c 22F00802 		bic	r2, r2, #8
 133 0010 5A60     		str	r2, [r3, #4]
  24:D:\MK\aboba\rep\Laboratory_Practice\Core\Src\init.c ****     SET_BIT(GPIOC->OSPEEDR, GPIO_OSPEEDER_OSPEEDR3_0);
 134              		.loc 2 24 5 view .LVU19
 135 0012 9A68     		ldr	r2, [r3, #8]
 136 0014 42F04002 		orr	r2, r2, #64
 137 0018 9A60     		str	r2, [r3, #8]
  25:D:\MK\aboba\rep\Laboratory_Practice\Core\Src\init.c ****     CLEAR_BIT(GPIOC->PUPDR, GPIO_PUPDR_PUPDR3_0);
 138              		.loc 2 25 5 view .LVU20
 139 001a DA68     		ldr	r2, [r3, #12]
 140 001c 22F04002 		bic	r2, r2, #64
 141 0020 DA60     		str	r2, [r3, #12]
  26:D:\MK\aboba\rep\Laboratory_Practice\Core\Src\init.c ****     SET_BIT(GPIOC->BSRR, GPIO_BSRR_BS3);
 142              		.loc 2 26 5 view .LVU21
 143 0022 9A69     		ldr	r2, [r3, #24]
 144 0024 42F00802 		orr	r2, r2, #8
 145 0028 9A61     		str	r2, [r3, #24]
  27:D:\MK\aboba\rep\Laboratory_Practice\Core\Src\init.c ****     return;
 146              		.loc 2 27 5 view .LVU22
  28:D:\MK\aboba\rep\Laboratory_Practice\Core\Src\init.c **** }
 147              		.loc 2 28 1 is_stmt 0 view .LVU23
 148 002a 7047     		bx	lr
ARM GAS  C:\Users\VLED\AppData\Local\Temp\ccdUVfaK.s 			page 4


 149              	.L9:
 150              		.align	2
 151              	.L8:
 152 002c 00080240 		.word	1073874944
 153              		.cfi_endproc
 154              	.LFE132:
 156              		.section	.text.LED1_in,"ax",%progbits
 157              		.align	1
 158              		.global	LED1_in
 159              		.syntax unified
 160              		.thumb
 161              		.thumb_func
 163              	LED1_in:
 164              	.LFB133:
  29:D:\MK\aboba\rep\Laboratory_Practice\Core\Src\init.c **** void LED1_in()
  30:D:\MK\aboba\rep\Laboratory_Practice\Core\Src\init.c **** {
 165              		.loc 2 30 1 is_stmt 1 view -0
 166              		.cfi_startproc
 167              		@ args = 0, pretend = 0, frame = 0
 168              		@ frame_needed = 0, uses_anonymous_args = 0
 169              		@ link register save eliminated.
  31:D:\MK\aboba\rep\Laboratory_Practice\Core\Src\init.c ****     SET_BIT(GPIOA->BSRR, GPIO_BSRR_BR3);
 170              		.loc 2 31 5 view .LVU25
 171 0000 044B     		ldr	r3, .L11
 172 0002 9A69     		ldr	r2, [r3, #24]
 173 0004 42F40022 		orr	r2, r2, #524288
 174 0008 9A61     		str	r2, [r3, #24]
  32:D:\MK\aboba\rep\Laboratory_Practice\Core\Src\init.c ****     CLEAR_BIT(GPIOA->MODER, GPIO_MODER_MODE3_0); //PA3
 175              		.loc 2 32 5 view .LVU26
 176 000a 1A68     		ldr	r2, [r3]
 177 000c 22F04002 		bic	r2, r2, #64
 178 0010 1A60     		str	r2, [r3]
  33:D:\MK\aboba\rep\Laboratory_Practice\Core\Src\init.c **** }
 179              		.loc 2 33 1 is_stmt 0 view .LVU27
 180 0012 7047     		bx	lr
 181              	.L12:
 182              		.align	2
 183              	.L11:
 184 0014 00000240 		.word	1073872896
 185              		.cfi_endproc
 186              	.LFE133:
 188              		.section	.text.LED2_in,"ax",%progbits
 189              		.align	1
 190              		.global	LED2_in
 191              		.syntax unified
 192              		.thumb
 193              		.thumb_func
 195              	LED2_in:
 196              	.LFB134:
  34:D:\MK\aboba\rep\Laboratory_Practice\Core\Src\init.c **** void LED2_in()
  35:D:\MK\aboba\rep\Laboratory_Practice\Core\Src\init.c **** {
 197              		.loc 2 35 1 is_stmt 1 view -0
 198              		.cfi_startproc
 199              		@ args = 0, pretend = 0, frame = 0
 200              		@ frame_needed = 0, uses_anonymous_args = 0
 201              		@ link register save eliminated.
  36:D:\MK\aboba\rep\Laboratory_Practice\Core\Src\init.c ****     SET_BIT(GPIOA->BSRR, GPIO_BSRR_BR3);
ARM GAS  C:\Users\VLED\AppData\Local\Temp\ccdUVfaK.s 			page 5


 202              		.loc 2 36 5 view .LVU29
 203 0000 054A     		ldr	r2, .L14
 204 0002 9369     		ldr	r3, [r2, #24]
 205 0004 43F40023 		orr	r3, r3, #524288
 206 0008 9361     		str	r3, [r2, #24]
  37:D:\MK\aboba\rep\Laboratory_Practice\Core\Src\init.c ****     CLEAR_BIT(GPIOC->MODER, GPIO_MODER_MODE0_0); //PC0
 207              		.loc 2 37 5 view .LVU30
 208 000a 02F50062 		add	r2, r2, #2048
 209 000e 1368     		ldr	r3, [r2]
 210 0010 23F00103 		bic	r3, r3, #1
 211 0014 1360     		str	r3, [r2]
  38:D:\MK\aboba\rep\Laboratory_Practice\Core\Src\init.c **** }
 212              		.loc 2 38 1 is_stmt 0 view .LVU31
 213 0016 7047     		bx	lr
 214              	.L15:
 215              		.align	2
 216              	.L14:
 217 0018 00000240 		.word	1073872896
 218              		.cfi_endproc
 219              	.LFE134:
 221              		.section	.text.LED3_in,"ax",%progbits
 222              		.align	1
 223              		.global	LED3_in
 224              		.syntax unified
 225              		.thumb
 226              		.thumb_func
 228              	LED3_in:
 229              	.LFB135:
  39:D:\MK\aboba\rep\Laboratory_Practice\Core\Src\init.c **** void LED3_in()
  40:D:\MK\aboba\rep\Laboratory_Practice\Core\Src\init.c **** {
 230              		.loc 2 40 1 is_stmt 1 view -0
 231              		.cfi_startproc
 232              		@ args = 0, pretend = 0, frame = 0
 233              		@ frame_needed = 0, uses_anonymous_args = 0
 234              		@ link register save eliminated.
  41:D:\MK\aboba\rep\Laboratory_Practice\Core\Src\init.c ****     SET_BIT(GPIOC->BSRR, GPIO_BSRR_BR3);
 235              		.loc 2 41 5 view .LVU33
 236 0000 044B     		ldr	r3, .L17
 237 0002 9A69     		ldr	r2, [r3, #24]
 238 0004 42F40022 		orr	r2, r2, #524288
 239 0008 9A61     		str	r2, [r3, #24]
  42:D:\MK\aboba\rep\Laboratory_Practice\Core\Src\init.c ****     CLEAR_BIT(GPIOC->MODER, GPIO_MODER_MODE3_0); //PC3
 240              		.loc 2 42 5 view .LVU34
 241 000a 1A68     		ldr	r2, [r3]
 242 000c 22F04002 		bic	r2, r2, #64
 243 0010 1A60     		str	r2, [r3]
  43:D:\MK\aboba\rep\Laboratory_Practice\Core\Src\init.c **** }
 244              		.loc 2 43 1 is_stmt 0 view .LVU35
 245 0012 7047     		bx	lr
 246              	.L18:
 247              		.align	2
 248              	.L17:
 249 0014 00080240 		.word	1073874944
 250              		.cfi_endproc
 251              	.LFE135:
 253              		.section	.text.GPIO_Init,"ax",%progbits
 254              		.align	1
ARM GAS  C:\Users\VLED\AppData\Local\Temp\ccdUVfaK.s 			page 6


 255              		.global	GPIO_Init
 256              		.syntax unified
 257              		.thumb
 258              		.thumb_func
 260              	GPIO_Init:
 261              	.LFB136:
  44:D:\MK\aboba\rep\Laboratory_Practice\Core\Src\init.c **** void GPIO_Init(){
 262              		.loc 2 44 17 is_stmt 1 view -0
 263              		.cfi_startproc
 264              		@ args = 0, pretend = 0, frame = 0
 265              		@ frame_needed = 0, uses_anonymous_args = 0
 266              		@ link register save eliminated.
  45:D:\MK\aboba\rep\Laboratory_Practice\Core\Src\init.c ****     SET_BIT(RCC->AHB1ENR, RCC_AHB1ENR_GPIOBEN | RCC_AHB1ENR_GPIOCEN | RCC_AHB1ENR_GPIODEN);
 267              		.loc 2 45 5 view .LVU37
 268 0000 044B     		ldr	r3, .L20
 269 0002 1A6B     		ldr	r2, [r3, #48]
 270 0004 42F00E02 		orr	r2, r2, #14
 271 0008 1A63     		str	r2, [r3, #48]
  46:D:\MK\aboba\rep\Laboratory_Practice\Core\Src\init.c ****     SET_BIT(RCC->AHB1ENR, RCC_AHB1ENR_GPIOAEN); 
 272              		.loc 2 46 5 view .LVU38
 273 000a 1A6B     		ldr	r2, [r3, #48]
 274 000c 42F00102 		orr	r2, r2, #1
 275 0010 1A63     		str	r2, [r3, #48]
  47:D:\MK\aboba\rep\Laboratory_Practice\Core\Src\init.c **** }
 276              		.loc 2 47 1 is_stmt 0 view .LVU39
 277 0012 7047     		bx	lr
 278              	.L21:
 279              		.align	2
 280              	.L20:
 281 0014 00380240 		.word	1073887232
 282              		.cfi_endproc
 283              	.LFE136:
 285              		.section	.text.GPIO_Init_const_LED_button,"ax",%progbits
 286              		.align	1
 287              		.global	GPIO_Init_const_LED_button
 288              		.syntax unified
 289              		.thumb
 290              		.thumb_func
 292              	GPIO_Init_const_LED_button:
 293              	.LFB137:
  48:D:\MK\aboba\rep\Laboratory_Practice\Core\Src\init.c **** 
  49:D:\MK\aboba\rep\Laboratory_Practice\Core\Src\init.c **** void GPIO_Init_const_LED_button()
  50:D:\MK\aboba\rep\Laboratory_Practice\Core\Src\init.c **** {
 294              		.loc 2 50 1 is_stmt 1 view -0
 295              		.cfi_startproc
 296              		@ args = 0, pretend = 0, frame = 0
 297              		@ frame_needed = 0, uses_anonymous_args = 0
 298              		@ link register save eliminated.
  51:D:\MK\aboba\rep\Laboratory_Practice\Core\Src\init.c ****     //LEDS
  52:D:\MK\aboba\rep\Laboratory_Practice\Core\Src\init.c ****     //PB7
  53:D:\MK\aboba\rep\Laboratory_Practice\Core\Src\init.c ****     SET_BIT(GPIOB->MODER, GPIO_MODER_MODE7_0); //настройка в output mode
 299              		.loc 2 53 5 view .LVU41
 300 0000 1B4B     		ldr	r3, .L23
 301 0002 1A68     		ldr	r2, [r3]
 302 0004 42F48042 		orr	r2, r2, #16384
 303 0008 1A60     		str	r2, [r3]
  54:D:\MK\aboba\rep\Laboratory_Practice\Core\Src\init.c ****      CLEAR_BIT(GPIOB->OTYPER, GPIO_OTYPER_OT_7); //настройка на push pull
ARM GAS  C:\Users\VLED\AppData\Local\Temp\ccdUVfaK.s 			page 7


 304              		.loc 2 54 6 view .LVU42
 305 000a 5A68     		ldr	r2, [r3, #4]
 306 000c 22F08002 		bic	r2, r2, #128
 307 0010 5A60     		str	r2, [r3, #4]
  55:D:\MK\aboba\rep\Laboratory_Practice\Core\Src\init.c ****     SET_BIT(GPIOB->OSPEEDR, GPIO_OSPEEDER_OSPEEDR7_0); //настройка скорости раб
 308              		.loc 2 55 5 view .LVU43
 309 0012 9A68     		ldr	r2, [r3, #8]
 310 0014 42F48042 		orr	r2, r2, #16384
 311 0018 9A60     		str	r2, [r3, #8]
  56:D:\MK\aboba\rep\Laboratory_Practice\Core\Src\init.c ****     CLEAR_BIT(GPIOB->PUPDR, GPIO_PUPDR_PUPDR7_0); //отключение pull up pull down рези
 312              		.loc 2 56 5 view .LVU44
 313 001a DA68     		ldr	r2, [r3, #12]
 314 001c 22F48042 		bic	r2, r2, #16384
 315 0020 DA60     		str	r2, [r3, #12]
  57:D:\MK\aboba\rep\Laboratory_Practice\Core\Src\init.c ****     //PB14
  58:D:\MK\aboba\rep\Laboratory_Practice\Core\Src\init.c ****     SET_BIT(GPIOB->MODER, GPIO_MODER_MODE14_0);
 316              		.loc 2 58 5 view .LVU45
 317 0022 1A68     		ldr	r2, [r3]
 318 0024 42F08052 		orr	r2, r2, #268435456
 319 0028 1A60     		str	r2, [r3]
  59:D:\MK\aboba\rep\Laboratory_Practice\Core\Src\init.c ****     CLEAR_BIT(GPIOB->OTYPER, GPIO_OTYPER_OT_14);
 320              		.loc 2 59 5 view .LVU46
 321 002a 5A68     		ldr	r2, [r3, #4]
 322 002c 22F48042 		bic	r2, r2, #16384
 323 0030 5A60     		str	r2, [r3, #4]
  60:D:\MK\aboba\rep\Laboratory_Practice\Core\Src\init.c ****     SET_BIT(GPIOB->OSPEEDR, GPIO_OSPEEDER_OSPEEDR14_0);
 324              		.loc 2 60 5 view .LVU47
 325 0032 9A68     		ldr	r2, [r3, #8]
 326 0034 42F08052 		orr	r2, r2, #268435456
 327 0038 9A60     		str	r2, [r3, #8]
  61:D:\MK\aboba\rep\Laboratory_Practice\Core\Src\init.c ****     CLEAR_BIT(GPIOB->PUPDR, GPIO_PUPDR_PUPDR14_0);
 328              		.loc 2 61 5 view .LVU48
 329 003a DA68     		ldr	r2, [r3, #12]
 330 003c 22F08052 		bic	r2, r2, #268435456
 331 0040 DA60     		str	r2, [r3, #12]
  62:D:\MK\aboba\rep\Laboratory_Practice\Core\Src\init.c ****     //PB0
  63:D:\MK\aboba\rep\Laboratory_Practice\Core\Src\init.c ****     SET_BIT(GPIOB->MODER, GPIO_MODER_MODE0_0);
 332              		.loc 2 63 5 view .LVU49
 333 0042 1A68     		ldr	r2, [r3]
 334 0044 42F00102 		orr	r2, r2, #1
 335 0048 1A60     		str	r2, [r3]
  64:D:\MK\aboba\rep\Laboratory_Practice\Core\Src\init.c ****     CLEAR_BIT(GPIOB->OTYPER, GPIO_OTYPER_OT_0);
 336              		.loc 2 64 5 view .LVU50
 337 004a 5A68     		ldr	r2, [r3, #4]
 338 004c 22F00102 		bic	r2, r2, #1
 339 0050 5A60     		str	r2, [r3, #4]
  65:D:\MK\aboba\rep\Laboratory_Practice\Core\Src\init.c ****     SET_BIT(GPIOB->OSPEEDR, GPIO_OSPEEDER_OSPEEDR0_0);
 340              		.loc 2 65 5 view .LVU51
 341 0052 9A68     		ldr	r2, [r3, #8]
 342 0054 42F00102 		orr	r2, r2, #1
 343 0058 9A60     		str	r2, [r3, #8]
  66:D:\MK\aboba\rep\Laboratory_Practice\Core\Src\init.c ****     CLEAR_BIT(GPIOB->PUPDR, GPIO_PUPDR_PUPDR0_0);
 344              		.loc 2 66 5 view .LVU52
 345 005a DA68     		ldr	r2, [r3, #12]
 346 005c 22F00102 		bic	r2, r2, #1
 347 0060 DA60     		str	r2, [r3, #12]
  67:D:\MK\aboba\rep\Laboratory_Practice\Core\Src\init.c ****     //BUTTON
ARM GAS  C:\Users\VLED\AppData\Local\Temp\ccdUVfaK.s 			page 8


  68:D:\MK\aboba\rep\Laboratory_Practice\Core\Src\init.c ****     //PC13
  69:D:\MK\aboba\rep\Laboratory_Practice\Core\Src\init.c ****     CLEAR_BIT(GPIOC->MODER, GPIO_MODER_MODE13_0); //PC13
 348              		.loc 2 69 5 view .LVU53
 349 0062 044A     		ldr	r2, .L23+4
 350 0064 1368     		ldr	r3, [r2]
 351 0066 23F08063 		bic	r3, r3, #67108864
 352 006a 1360     		str	r3, [r2]
  70:D:\MK\aboba\rep\Laboratory_Practice\Core\Src\init.c **** }...
 353              		.loc 2 70 1 is_stmt 0 view .LVU54
 354 006c 7047     		bx	lr
 355              	.L24:
 356 006e 00BF     		.align	2
 357              	.L23:
 358 0070 00040240 		.word	1073873920
 359 0074 00080240 		.word	1073874944
 360              		.cfi_endproc
 361              	.LFE137:
 363              		.section	.text.main,"ax",%progbits
 364              		.align	1
 365              		.global	main
 366              		.syntax unified
 367              		.thumb
 368              		.thumb_func
 370              	main:
 371              	.LFB138:
   1:Core/Src/main.c **** #include "D:\MK\aboba\rep\Laboratory_Practice\Core\Src\init.c"
   2:Core/Src/main.c **** #include "D:\MK\aboba\rep\Laboratory_Practice\Core\Inc\init.h"
   3:Core/Src/main.c **** uint8_t Q = 0;
   4:Core/Src/main.c **** uint8_t flag1 = 0;
   5:Core/Src/main.c **** uint8_t flag2 = 0;
   6:Core/Src/main.c **** uint8_t flag3 = 0;
   7:Core/Src/main.c **** int main(void)
   8:Core/Src/main.c **** {
 372              		.loc 1 8 1 is_stmt 1 view -0
 373              		.cfi_startproc
 374              		@ args = 0, pretend = 0, frame = 0
 375              		@ frame_needed = 0, uses_anonymous_args = 0
 376 0000 10B5     		push	{r4, lr}
 377              	.LCFI0:
 378              		.cfi_def_cfa_offset 8
 379              		.cfi_offset 4, -8
 380              		.cfi_offset 14, -4
   9:Core/Src/main.c ****     GPIO_Init();
 381              		.loc 1 9 5 view .LVU56
 382 0002 FFF7FEFF 		bl	GPIO_Init
 383              	.LVL0:
  10:Core/Src/main.c ****     GPIO_Init_const_LED_button();
 384              		.loc 1 10 5 view .LVU57
 385 0006 FFF7FEFF 		bl	GPIO_Init_const_LED_button
 386              	.LVL1:
  11:Core/Src/main.c ****     LED1_in();
 387              		.loc 1 11 5 view .LVU58
 388 000a FFF7FEFF 		bl	LED1_in
 389              	.LVL2:
  12:Core/Src/main.c ****     LED2_in();
 390              		.loc 1 12 5 view .LVU59
 391 000e FFF7FEFF 		bl	LED2_in
ARM GAS  C:\Users\VLED\AppData\Local\Temp\ccdUVfaK.s 			page 9


 392              	.LVL3:
  13:Core/Src/main.c ****     LED3_in();
 393              		.loc 1 13 5 view .LVU60
 394 0012 FFF7FEFF 		bl	LED3_in
 395              	.LVL4:
 396 0016 58E0     		b	.L26
 397              	.L44:
 398              	.LBB2:
  14:Core/Src/main.c ****     while(1)
  15:Core/Src/main.c ****     {   
  16:Core/Src/main.c ****         if(READ_BIT(GPIOC->IDR, GPIO_IDR_IDR_13)!=0)
  17:Core/Src/main.c ****         {
  18:Core/Src/main.c ****            Q++;
 399              		.loc 1 18 12 view .LVU61
 400              		.loc 1 18 13 is_stmt 0 view .LVU62
 401 0018 464A     		ldr	r2, .L45
 402 001a 1378     		ldrb	r3, [r2]	@ zero_extendqisi2
 403 001c 0133     		adds	r3, r3, #1
 404 001e D9B2     		uxtb	r1, r3
 405 0020 1170     		strb	r1, [r2]
  19:Core/Src/main.c ****            int i = 0;
 406              		.loc 1 19 12 is_stmt 1 view .LVU63
 407              	.LVL5:
  20:Core/Src/main.c ****            while(i < 1000000)
 408              		.loc 1 20 12 view .LVU64
  19:Core/Src/main.c ****            int i = 0;
 409              		.loc 1 19 16 is_stmt 0 view .LVU65
 410 0022 0023     		movs	r3, #0
 411              		.loc 1 20 17 view .LVU66
 412 0024 00E0     		b	.L28
 413              	.LVL6:
 414              	.L29:
  21:Core/Src/main.c ****            {
  22:Core/Src/main.c ****             i++;
 415              		.loc 1 22 13 is_stmt 1 view .LVU67
 416              		.loc 1 22 14 is_stmt 0 view .LVU68
 417 0026 0133     		adds	r3, r3, #1
 418              	.LVL7:
 419              	.L28:
  20:Core/Src/main.c ****            while(i < 1000000)
 420              		.loc 1 20 20 is_stmt 1 view .LVU69
 421 0028 434A     		ldr	r2, .L45+4
 422 002a 9342     		cmp	r3, r2
 423 002c FBDD     		ble	.L29
 424              	.LVL8:
 425              	.L30:
  23:Core/Src/main.c ****            }
  24:Core/Src/main.c ****            while(READ_BIT(GPIOC->IDR, GPIO_IDR_IDR_13)!=0)
  25:Core/Src/main.c ****            {
  26:Core/Src/main.c ****            }
 426              		.loc 1 26 12 view .LVU70
  24:Core/Src/main.c ****            {
 427              		.loc 1 24 55 discriminator 1 view .LVU71
  24:Core/Src/main.c ****            {
 428              		.loc 1 24 18 is_stmt 0 discriminator 1 view .LVU72
 429 002e 434B     		ldr	r3, .L45+8
 430 0030 1B69     		ldr	r3, [r3, #16]
ARM GAS  C:\Users\VLED\AppData\Local\Temp\ccdUVfaK.s 			page 10


  24:Core/Src/main.c ****            {
 431              		.loc 1 24 55 discriminator 1 view .LVU73
 432 0032 13F4005F 		tst	r3, #8192
 433 0036 FAD1     		bne	.L30
  27:Core/Src/main.c ****         switch(Q)
 434              		.loc 1 27 9 is_stmt 1 view .LVU74
 435 0038 4B1E     		subs	r3, r1, #1
 436 003a 032B     		cmp	r3, #3
 437 003c 4AD8     		bhi	.L27
 438 003e DFE803F0 		tbb	[pc, r3]
 439              	.L32:
 440 0042 02       		.byte	(.L35-.L32)/2
 441 0043 08       		.byte	(.L34-.L32)/2
 442 0044 0E       		.byte	(.L33-.L32)/2
 443 0045 14       		.byte	(.L31-.L32)/2
 444              		.p2align 1
 445              	.L35:
  28:Core/Src/main.c ****         {
  29:Core/Src/main.c ****             case 1:
  30:Core/Src/main.c ****             {
  31:Core/Src/main.c ****                 flag1 = 1;
 446              		.loc 1 31 17 view .LVU75
 447              		.loc 1 31 23 is_stmt 0 view .LVU76
 448 0046 3E4B     		ldr	r3, .L45+12
 449 0048 0122     		movs	r2, #1
 450 004a 1A70     		strb	r2, [r3]
  32:Core/Src/main.c ****                 LED1_out();
 451              		.loc 1 32 17 is_stmt 1 view .LVU77
 452 004c FFF7FEFF 		bl	LED1_out
 453              	.LVL9:
  33:Core/Src/main.c ****                 break;
 454              		.loc 1 33 17 view .LVU78
 455 0050 40E0     		b	.L27
 456              	.L34:
  34:Core/Src/main.c ****             }
  35:Core/Src/main.c ****             case 2:
  36:Core/Src/main.c ****             {
  37:Core/Src/main.c ****                 flag2 = 1;
 457              		.loc 1 37 17 view .LVU79
 458              		.loc 1 37 23 is_stmt 0 view .LVU80
 459 0052 3C4B     		ldr	r3, .L45+16
 460 0054 0122     		movs	r2, #1
 461 0056 1A70     		strb	r2, [r3]
  38:Core/Src/main.c ****                 LED2_out();
 462              		.loc 1 38 17 is_stmt 1 view .LVU81
 463 0058 FFF7FEFF 		bl	LED2_out
 464              	.LVL10:
  39:Core/Src/main.c ****                 break;
 465              		.loc 1 39 17 view .LVU82
 466 005c 3AE0     		b	.L27
 467              	.L33:
  40:Core/Src/main.c ****             }
  41:Core/Src/main.c ****             case 3:
  42:Core/Src/main.c ****             {
  43:Core/Src/main.c ****                 flag3 = 1;
 468              		.loc 1 43 17 view .LVU83
 469              		.loc 1 43 23 is_stmt 0 view .LVU84
ARM GAS  C:\Users\VLED\AppData\Local\Temp\ccdUVfaK.s 			page 11


 470 005e 3A4B     		ldr	r3, .L45+20
 471 0060 0122     		movs	r2, #1
 472 0062 1A70     		strb	r2, [r3]
  44:Core/Src/main.c ****                 LED3_out();
 473              		.loc 1 44 17 is_stmt 1 view .LVU85
 474 0064 FFF7FEFF 		bl	LED3_out
 475              	.LVL11:
  45:Core/Src/main.c ****                 break;
 476              		.loc 1 45 17 view .LVU86
 477 0068 34E0     		b	.L27
 478              	.L31:
  46:Core/Src/main.c ****             }
  47:Core/Src/main.c ****             case 4:
  48:Core/Src/main.c ****             {
  49:Core/Src/main.c ****                 flag1 = 0;
 479              		.loc 1 49 17 view .LVU87
 480              		.loc 1 49 23 is_stmt 0 view .LVU88
 481 006a 0024     		movs	r4, #0
 482 006c 344B     		ldr	r3, .L45+12
 483 006e 1C70     		strb	r4, [r3]
  50:Core/Src/main.c ****                 flag2 = 0;
 484              		.loc 1 50 17 is_stmt 1 view .LVU89
 485              		.loc 1 50 23 is_stmt 0 view .LVU90
 486 0070 344B     		ldr	r3, .L45+16
 487 0072 1C70     		strb	r4, [r3]
  51:Core/Src/main.c ****                 flag3 = 0;
 488              		.loc 1 51 17 is_stmt 1 view .LVU91
 489              		.loc 1 51 23 is_stmt 0 view .LVU92
 490 0074 344B     		ldr	r3, .L45+20
 491 0076 1C70     		strb	r4, [r3]
  52:Core/Src/main.c ****                 LED1_in();
 492              		.loc 1 52 17 is_stmt 1 view .LVU93
 493 0078 FFF7FEFF 		bl	LED1_in
 494              	.LVL12:
  53:Core/Src/main.c ****                 LED2_in();
 495              		.loc 1 53 17 view .LVU94
 496 007c FFF7FEFF 		bl	LED2_in
 497              	.LVL13:
  54:Core/Src/main.c ****                 LED3_in();
 498              		.loc 1 54 17 view .LVU95
 499 0080 FFF7FEFF 		bl	LED3_in
 500              	.LVL14:
  55:Core/Src/main.c ****                 Q = 0;
 501              		.loc 1 55 17 view .LVU96
 502              		.loc 1 55 19 is_stmt 0 view .LVU97
 503 0084 2B4B     		ldr	r3, .L45
 504 0086 1C70     		strb	r4, [r3]
  56:Core/Src/main.c ****                 break;
 505              		.loc 1 56 17 is_stmt 1 view .LVU98
 506 0088 24E0     		b	.L27
 507              	.LVL15:
 508              	.L37:
 509              		.loc 1 56 17 is_stmt 0 view .LVU99
 510              	.LBE2:
  57:Core/Src/main.c ****             }
  58:Core/Src/main.c ****         }
  59:Core/Src/main.c ****         }
ARM GAS  C:\Users\VLED\AppData\Local\Temp\ccdUVfaK.s 			page 12


  60:Core/Src/main.c ****         if(flag1 == 0) //PA3
  61:Core/Src/main.c ****         {
  62:Core/Src/main.c ****             if(READ_BIT(GPIOA->IDR, GPIO_IDR_IDR_3)!=0)
  63:Core/Src/main.c ****             {
  64:Core/Src/main.c ****                 SET_BIT(GPIOB->BSRR, GPIO_BSRR_BS0);
  65:Core/Src/main.c ****             }
  66:Core/Src/main.c ****             else
  67:Core/Src/main.c ****             if(READ_BIT(GPIOA->IDR, GPIO_IDR_IDR_3)==0)
 511              		.loc 1 67 13 is_stmt 1 view .LVU100
 512              		.loc 1 67 16 is_stmt 0 view .LVU101
 513 008a 304B     		ldr	r3, .L45+24
 514 008c 1B69     		ldr	r3, [r3, #16]
 515              		.loc 1 67 15 view .LVU102
 516 008e 13F0080F 		tst	r3, #8
 517 0092 2CD1     		bne	.L36
  68:Core/Src/main.c ****             {
  69:Core/Src/main.c ****                 SET_BIT(GPIOB->BSRR, GPIO_BSRR_BR0);
 518              		.loc 1 69 17 is_stmt 1 view .LVU103
 519 0094 2E4A     		ldr	r2, .L45+28
 520 0096 9369     		ldr	r3, [r2, #24]
 521 0098 43F48033 		orr	r3, r3, #65536
 522 009c 9361     		str	r3, [r2, #24]
 523 009e 26E0     		b	.L36
 524              	.L39:
  70:Core/Src/main.c ****             }
  71:Core/Src/main.c ****         }
  72:Core/Src/main.c ****         if(flag2 == 0) //PC0
  73:Core/Src/main.c ****         {
  74:Core/Src/main.c ****             if(READ_BIT(GPIOC->IDR, GPIO_IDR_IDR_0)!=0)
  75:Core/Src/main.c ****             {
  76:Core/Src/main.c ****                 SET_BIT(GPIOB->BSRR, GPIO_BSRR_BS7);
  77:Core/Src/main.c ****             }
  78:Core/Src/main.c ****             else
  79:Core/Src/main.c ****             if(READ_BIT(GPIOC->IDR, GPIO_IDR_IDR_0)==0)
 525              		.loc 1 79 13 view .LVU104
 526              		.loc 1 79 16 is_stmt 0 view .LVU105
 527 00a0 264B     		ldr	r3, .L45+8
 528 00a2 1B69     		ldr	r3, [r3, #16]
 529              		.loc 1 79 15 view .LVU106
 530 00a4 13F0010F 		tst	r3, #1
 531 00a8 31D1     		bne	.L38
  80:Core/Src/main.c ****             {
  81:Core/Src/main.c ****                 SET_BIT(GPIOB->BSRR, GPIO_BSRR_BR7);
 532              		.loc 1 81 17 is_stmt 1 view .LVU107
 533 00aa 294A     		ldr	r2, .L45+28
 534 00ac 9369     		ldr	r3, [r2, #24]
 535 00ae 43F40003 		orr	r3, r3, #8388608
 536 00b2 9361     		str	r3, [r2, #24]
 537 00b4 2BE0     		b	.L38
 538              	.L41:
  82:Core/Src/main.c ****             }
  83:Core/Src/main.c ****         }
  84:Core/Src/main.c ****         if(flag3 == 0) //PC3
  85:Core/Src/main.c ****         {
  86:Core/Src/main.c ****             if(READ_BIT(GPIOC->IDR, GPIO_IDR_IDR_3)!=0)
  87:Core/Src/main.c ****             {
  88:Core/Src/main.c ****                 SET_BIT(GPIOB->BSRR, GPIO_BSRR_BS14); 
ARM GAS  C:\Users\VLED\AppData\Local\Temp\ccdUVfaK.s 			page 13


  89:Core/Src/main.c ****             }
  90:Core/Src/main.c ****             else
  91:Core/Src/main.c ****             if(READ_BIT(GPIOC->IDR, GPIO_IDR_IDR_3)==0)
 539              		.loc 1 91 13 view .LVU108
 540              		.loc 1 91 16 is_stmt 0 view .LVU109
 541 00b6 214B     		ldr	r3, .L45+8
 542 00b8 1B69     		ldr	r3, [r3, #16]
 543              		.loc 1 91 15 view .LVU110
 544 00ba 13F0080F 		tst	r3, #8
 545 00be 04D1     		bne	.L26
  92:Core/Src/main.c ****             {
  93:Core/Src/main.c ****                 SET_BIT(GPIOB->BSRR, GPIO_BSRR_BR14); 
 546              		.loc 1 93 17 is_stmt 1 view .LVU111
 547 00c0 234A     		ldr	r2, .L45+28
 548 00c2 9369     		ldr	r3, [r2, #24]
 549 00c4 43F08043 		orr	r3, r3, #1073741824
 550 00c8 9361     		str	r3, [r2, #24]
 551              	.L26:
  14:Core/Src/main.c ****     {   
 552              		.loc 1 14 5 view .LVU112
  16:Core/Src/main.c ****         {
 553              		.loc 1 16 9 view .LVU113
  16:Core/Src/main.c ****         {
 554              		.loc 1 16 12 is_stmt 0 view .LVU114
 555 00ca 1C4B     		ldr	r3, .L45+8
 556 00cc 1B69     		ldr	r3, [r3, #16]
  16:Core/Src/main.c ****         {
 557              		.loc 1 16 11 view .LVU115
 558 00ce 13F4005F 		tst	r3, #8192
 559 00d2 A1D1     		bne	.L44
 560              	.L27:
  60:Core/Src/main.c ****         {
 561              		.loc 1 60 9 is_stmt 1 view .LVU116
  60:Core/Src/main.c ****         {
 562              		.loc 1 60 18 is_stmt 0 view .LVU117
 563 00d4 1A4B     		ldr	r3, .L45+12
 564 00d6 1B78     		ldrb	r3, [r3]	@ zero_extendqisi2
  60:Core/Src/main.c ****         {
 565              		.loc 1 60 11 view .LVU118
 566 00d8 4BB9     		cbnz	r3, .L36
  62:Core/Src/main.c ****             {
 567              		.loc 1 62 13 is_stmt 1 view .LVU119
  62:Core/Src/main.c ****             {
 568              		.loc 1 62 16 is_stmt 0 view .LVU120
 569 00da 1C4B     		ldr	r3, .L45+24
 570 00dc 1B69     		ldr	r3, [r3, #16]
  62:Core/Src/main.c ****             {
 571              		.loc 1 62 15 view .LVU121
 572 00de 13F0080F 		tst	r3, #8
 573 00e2 D2D0     		beq	.L37
  64:Core/Src/main.c ****             }
 574              		.loc 1 64 17 is_stmt 1 view .LVU122
 575 00e4 1A4A     		ldr	r2, .L45+28
 576 00e6 9369     		ldr	r3, [r2, #24]
 577 00e8 43F00103 		orr	r3, r3, #1
 578 00ec 9361     		str	r3, [r2, #24]
 579              	.L36:
ARM GAS  C:\Users\VLED\AppData\Local\Temp\ccdUVfaK.s 			page 14


  72:Core/Src/main.c ****         {
 580              		.loc 1 72 9 view .LVU123
  72:Core/Src/main.c ****         {
 581              		.loc 1 72 18 is_stmt 0 view .LVU124
 582 00ee 154B     		ldr	r3, .L45+16
 583 00f0 1B78     		ldrb	r3, [r3]	@ zero_extendqisi2
  72:Core/Src/main.c ****         {
 584              		.loc 1 72 11 view .LVU125
 585 00f2 63B9     		cbnz	r3, .L38
  74:Core/Src/main.c ****             {
 586              		.loc 1 74 13 is_stmt 1 view .LVU126
  74:Core/Src/main.c ****             {
 587              		.loc 1 74 16 is_stmt 0 view .LVU127
 588 00f4 03F18043 		add	r3, r3, #1073741824
 589 00f8 03F50233 		add	r3, r3, #133120
 590 00fc 1B69     		ldr	r3, [r3, #16]
  74:Core/Src/main.c ****             {
 591              		.loc 1 74 15 view .LVU128
 592 00fe 13F0010F 		tst	r3, #1
 593 0102 CDD0     		beq	.L39
  76:Core/Src/main.c ****             }
 594              		.loc 1 76 17 is_stmt 1 view .LVU129
 595 0104 124A     		ldr	r2, .L45+28
 596 0106 9369     		ldr	r3, [r2, #24]
 597 0108 43F08003 		orr	r3, r3, #128
 598 010c 9361     		str	r3, [r2, #24]
 599              	.L38:
  84:Core/Src/main.c ****         {
 600              		.loc 1 84 9 view .LVU130
  84:Core/Src/main.c ****         {
 601              		.loc 1 84 18 is_stmt 0 view .LVU131
 602 010e 0E4B     		ldr	r3, .L45+20
 603 0110 1B78     		ldrb	r3, [r3]	@ zero_extendqisi2
  84:Core/Src/main.c ****         {
 604              		.loc 1 84 11 view .LVU132
 605 0112 002B     		cmp	r3, #0
 606 0114 D9D1     		bne	.L26
  86:Core/Src/main.c ****             {
 607              		.loc 1 86 13 is_stmt 1 view .LVU133
  86:Core/Src/main.c ****             {
 608              		.loc 1 86 16 is_stmt 0 view .LVU134
 609 0116 03F18043 		add	r3, r3, #1073741824
 610 011a 03F50233 		add	r3, r3, #133120
 611 011e 1B69     		ldr	r3, [r3, #16]
  86:Core/Src/main.c ****             {
 612              		.loc 1 86 15 view .LVU135
 613 0120 13F0080F 		tst	r3, #8
 614 0124 C7D0     		beq	.L41
  88:Core/Src/main.c ****             }
 615              		.loc 1 88 17 is_stmt 1 view .LVU136
 616 0126 0A4A     		ldr	r2, .L45+28
 617 0128 9369     		ldr	r3, [r2, #24]
 618 012a 43F48043 		orr	r3, r3, #16384
 619 012e 9361     		str	r3, [r2, #24]
 620 0130 CBE7     		b	.L26
 621              	.L46:
 622 0132 00BF     		.align	2
ARM GAS  C:\Users\VLED\AppData\Local\Temp\ccdUVfaK.s 			page 15


 623              	.L45:
 624 0134 00000000 		.word	Q
 625 0138 3F420F00 		.word	999999
 626 013c 00080240 		.word	1073874944
 627 0140 00000000 		.word	flag1
 628 0144 00000000 		.word	flag2
 629 0148 00000000 		.word	flag3
 630 014c 00000240 		.word	1073872896
 631 0150 00040240 		.word	1073873920
 632              		.cfi_endproc
 633              	.LFE138:
 635              		.global	flag3
 636              		.section	.bss.flag3,"aw",%nobits
 639              	flag3:
 640 0000 00       		.space	1
 641              		.global	flag2
 642              		.section	.bss.flag2,"aw",%nobits
 645              	flag2:
 646 0000 00       		.space	1
 647              		.global	flag1
 648              		.section	.bss.flag1,"aw",%nobits
 651              	flag1:
 652 0000 00       		.space	1
 653              		.global	Q
 654              		.section	.bss.Q,"aw",%nobits
 657              	Q:
 658 0000 00       		.space	1
 659              		.text
 660              	.Letext0:
 661              		.file 3 "D:/MK/aboba/xpack-arm-none-eabi-gcc-13.2.1-1.1/arm-none-eabi/include/machine/_default_typ
 662              		.file 4 "D:/MK/aboba/xpack-arm-none-eabi-gcc-13.2.1-1.1/arm-none-eabi/include/sys/_stdint.h"
 663              		.file 5 "D:/MK/aboba/rep/Laboratory_Practice/CMSIS/Devices/stm32f429xx.h"
ARM GAS  C:\Users\VLED\AppData\Local\Temp\ccdUVfaK.s 			page 16


DEFINED SYMBOLS
                            *ABS*:00000000 main.c
C:\Users\VLED\AppData\Local\Temp\ccdUVfaK.s:21     .text.LED1_out:00000000 $t
C:\Users\VLED\AppData\Local\Temp\ccdUVfaK.s:27     .text.LED1_out:00000000 LED1_out
C:\Users\VLED\AppData\Local\Temp\ccdUVfaK.s:62     .text.LED1_out:0000002c $d
C:\Users\VLED\AppData\Local\Temp\ccdUVfaK.s:67     .text.LED2_out:00000000 $t
C:\Users\VLED\AppData\Local\Temp\ccdUVfaK.s:73     .text.LED2_out:00000000 LED2_out
C:\Users\VLED\AppData\Local\Temp\ccdUVfaK.s:107    .text.LED2_out:0000002c $d
C:\Users\VLED\AppData\Local\Temp\ccdUVfaK.s:112    .text.LED3_out:00000000 $t
C:\Users\VLED\AppData\Local\Temp\ccdUVfaK.s:118    .text.LED3_out:00000000 LED3_out
C:\Users\VLED\AppData\Local\Temp\ccdUVfaK.s:152    .text.LED3_out:0000002c $d
C:\Users\VLED\AppData\Local\Temp\ccdUVfaK.s:157    .text.LED1_in:00000000 $t
C:\Users\VLED\AppData\Local\Temp\ccdUVfaK.s:163    .text.LED1_in:00000000 LED1_in
C:\Users\VLED\AppData\Local\Temp\ccdUVfaK.s:184    .text.LED1_in:00000014 $d
C:\Users\VLED\AppData\Local\Temp\ccdUVfaK.s:189    .text.LED2_in:00000000 $t
C:\Users\VLED\AppData\Local\Temp\ccdUVfaK.s:195    .text.LED2_in:00000000 LED2_in
C:\Users\VLED\AppData\Local\Temp\ccdUVfaK.s:217    .text.LED2_in:00000018 $d
C:\Users\VLED\AppData\Local\Temp\ccdUVfaK.s:222    .text.LED3_in:00000000 $t
C:\Users\VLED\AppData\Local\Temp\ccdUVfaK.s:228    .text.LED3_in:00000000 LED3_in
C:\Users\VLED\AppData\Local\Temp\ccdUVfaK.s:249    .text.LED3_in:00000014 $d
C:\Users\VLED\AppData\Local\Temp\ccdUVfaK.s:254    .text.GPIO_Init:00000000 $t
C:\Users\VLED\AppData\Local\Temp\ccdUVfaK.s:260    .text.GPIO_Init:00000000 GPIO_Init
C:\Users\VLED\AppData\Local\Temp\ccdUVfaK.s:281    .text.GPIO_Init:00000014 $d
C:\Users\VLED\AppData\Local\Temp\ccdUVfaK.s:286    .text.GPIO_Init_const_LED_button:00000000 $t
C:\Users\VLED\AppData\Local\Temp\ccdUVfaK.s:292    .text.GPIO_Init_const_LED_button:00000000 GPIO_Init_const_LED_button
C:\Users\VLED\AppData\Local\Temp\ccdUVfaK.s:358    .text.GPIO_Init_const_LED_button:00000070 $d
C:\Users\VLED\AppData\Local\Temp\ccdUVfaK.s:364    .text.main:00000000 $t
C:\Users\VLED\AppData\Local\Temp\ccdUVfaK.s:370    .text.main:00000000 main
C:\Users\VLED\AppData\Local\Temp\ccdUVfaK.s:440    .text.main:00000042 $d
C:\Users\VLED\AppData\Local\Temp\ccdUVfaK.s:444    .text.main:00000046 $t
C:\Users\VLED\AppData\Local\Temp\ccdUVfaK.s:624    .text.main:00000134 $d
C:\Users\VLED\AppData\Local\Temp\ccdUVfaK.s:657    .bss.Q:00000000 Q
C:\Users\VLED\AppData\Local\Temp\ccdUVfaK.s:651    .bss.flag1:00000000 flag1
C:\Users\VLED\AppData\Local\Temp\ccdUVfaK.s:645    .bss.flag2:00000000 flag2
C:\Users\VLED\AppData\Local\Temp\ccdUVfaK.s:639    .bss.flag3:00000000 flag3
C:\Users\VLED\AppData\Local\Temp\ccdUVfaK.s:640    .bss.flag3:00000000 $d
C:\Users\VLED\AppData\Local\Temp\ccdUVfaK.s:646    .bss.flag2:00000000 $d
C:\Users\VLED\AppData\Local\Temp\ccdUVfaK.s:652    .bss.flag1:00000000 $d
C:\Users\VLED\AppData\Local\Temp\ccdUVfaK.s:658    .bss.Q:00000000 $d

NO UNDEFINED SYMBOLS
