ARM GAS  C:\Users\Admin\AppData\Local\Temp\ccMWOx3y.s 			page 1


   1              		.cpu cortex-m4
   2              		.arch armv7e-m
   3              		.fpu fpv4-sp-d16
   4              		.eabi_attribute 27, 1
   5              		.eabi_attribute 28, 1
   6              		.eabi_attribute 20, 1
   7              		.eabi_attribute 21, 1
   8              		.eabi_attribute 23, 3
   9              		.eabi_attribute 24, 1
  10              		.eabi_attribute 25, 1
  11              		.eabi_attribute 26, 1
  12              		.eabi_attribute 30, 1
  13              		.eabi_attribute 34, 1
  14              		.eabi_attribute 18, 4
  15              		.file	"main.c"
  16              		.text
  17              	.Ltext0:
  18              		.cfi_sections	.debug_frame
  19              		.file 1 "Core/Src/main.c"
  20              		.section	.text.main,"ax",%progbits
  21              		.align	1
  22              		.global	main
  23              		.syntax unified
  24              		.thumb
  25              		.thumb_func
  27              	main:
  28              	.LFB130:
   1:Core/Src/main.c **** #include "../Inc/init.h"
   2:Core/Src/main.c **** 
   3:Core/Src/main.c **** uint8_t flag1;
   4:Core/Src/main.c **** int button_count;
   5:Core/Src/main.c **** int main(void)
   6:Core/Src/main.c **** {
  29              		.loc 1 6 1 view -0
  30              		.cfi_startproc
  31              		@ args = 0, pretend = 0, frame = 0
  32              		@ frame_needed = 0, uses_anonymous_args = 0
  33 0000 08B5     		push	{r3, lr}
  34              	.LCFI0:
  35              		.cfi_def_cfa_offset 8
  36              		.cfi_offset 3, -8
  37              		.cfi_offset 14, -4
   7:Core/Src/main.c ****     GPIO_Ini(); // –∏–Ω–∏—Ü–∏–∞–ª–∏–∑–∞—Ü–∏—è –ø–æ—Ä—Ç–æ–≤
  38              		.loc 1 7 5 view .LVU1
  39 0002 FFF7FEFF 		bl	GPIO_Ini
  40              	.LVL0:
  41 0006 0AE0     		b	.L2
  42              	.LVL1:
  43              	.L3:
  44              	.LBB2:
   8:Core/Src/main.c ****     while (1)
   9:Core/Src/main.c ****     {
  10:Core/Src/main.c ****         int button = READ_BIT(GPIOC->IDR, GPIO_IDR_IDR_13);
  11:Core/Src/main.c ****         // -------------------------------------------------
  12:Core/Src/main.c ****         if (button == 0) // –ø—Ä–æ–≤–µ—Ä–∫–∞ –±–∏—Ç–∞
  13:Core/Src/main.c ****         {
  14:Core/Src/main.c ****             if (button_count < 5)
ARM GAS  C:\Users\Admin\AppData\Local\Temp\ccMWOx3y.s 			page 2


  15:Core/Src/main.c ****             {
  16:Core/Src/main.c ****                 button_count++;
  17:Core/Src/main.c ****             }
  18:Core/Src/main.c ****             if (button_count >= 5)
  19:Core/Src/main.c ****             {
  20:Core/Src/main.c ****                 SET_BIT(GPIOB->BSRR, GPIO_BSRR_BS7); // –£—Å—Ç–∞–Ω–æ–≤–∫–∞ –µ–¥–∏–Ω–∏—Ü—ã –≤ 7-–æ–π
  21:Core/Src/main.c ****                 flag1 = 1;
  22:Core/Src/main.c ****             }
  23:Core/Src/main.c ****         }
  24:Core/Src/main.c ****         else
  25:Core/Src/main.c ****         {
  26:Core/Src/main.c ****             if (button_count > 0)
  45              		.loc 1 26 13 view .LVU2
  46              		.loc 1 26 30 is_stmt 0 view .LVU3
  47 0008 164B     		ldr	r3, .L9
  48              	.LVL2:
  49              		.loc 1 26 30 view .LVU4
  50 000a 1B68     		ldr	r3, [r3]
  51              		.loc 1 26 16 view .LVU5
  52 000c 002B     		cmp	r3, #0
  53 000e 02DD     		ble	.L6
  27:Core/Src/main.c ****             {
  28:Core/Src/main.c ****                 button_count--;
  54              		.loc 1 28 17 is_stmt 1 view .LVU6
  55              		.loc 1 28 29 is_stmt 0 view .LVU7
  56 0010 013B     		subs	r3, r3, #1
  57 0012 144A     		ldr	r2, .L9
  58 0014 1360     		str	r3, [r2]
  59              	.L6:
  29:Core/Src/main.c ****             }
  30:Core/Src/main.c ****             if (button_count <= 0)
  60              		.loc 1 30 13 is_stmt 1 view .LVU8
  61              		.loc 1 30 30 is_stmt 0 view .LVU9
  62 0016 134B     		ldr	r3, .L9
  63 0018 1B68     		ldr	r3, [r3]
  64              		.loc 1 30 16 view .LVU10
  65 001a 002B     		cmp	r3, #0
  66 001c 18DD     		ble	.L8
  67              	.LVL3:
  68              	.L2:
  69              		.loc 1 30 16 view .LVU11
  70              	.LBE2:
   8:Core/Src/main.c ****     {
  71              		.loc 1 8 5 is_stmt 1 view .LVU12
  72              	.LBB3:
  10:Core/Src/main.c ****         // -------------------------------------------------
  73              		.loc 1 10 9 view .LVU13
  10:Core/Src/main.c ****         // -------------------------------------------------
  74              		.loc 1 10 22 is_stmt 0 view .LVU14
  75 001e 124B     		ldr	r3, .L9+4
  76 0020 1B69     		ldr	r3, [r3, #16]
  77              	.LVL4:
  12:Core/Src/main.c ****         {
  78              		.loc 1 12 9 is_stmt 1 view .LVU15
  12:Core/Src/main.c ****         {
  79              		.loc 1 12 12 is_stmt 0 view .LVU16
  80 0022 13F4005F 		tst	r3, #8192
ARM GAS  C:\Users\Admin\AppData\Local\Temp\ccMWOx3y.s 			page 3


  81 0026 EFD1     		bne	.L3
  14:Core/Src/main.c ****             {
  82              		.loc 1 14 13 is_stmt 1 view .LVU17
  14:Core/Src/main.c ****             {
  83              		.loc 1 14 30 is_stmt 0 view .LVU18
  84 0028 0E4B     		ldr	r3, .L9
  85              	.LVL5:
  14:Core/Src/main.c ****             {
  86              		.loc 1 14 30 view .LVU19
  87 002a 1B68     		ldr	r3, [r3]
  14:Core/Src/main.c ****             {
  88              		.loc 1 14 16 view .LVU20
  89 002c 042B     		cmp	r3, #4
  90 002e 02DC     		bgt	.L4
  16:Core/Src/main.c ****             }
  91              		.loc 1 16 17 is_stmt 1 view .LVU21
  16:Core/Src/main.c ****             }
  92              		.loc 1 16 29 is_stmt 0 view .LVU22
  93 0030 0133     		adds	r3, r3, #1
  94 0032 0C4A     		ldr	r2, .L9
  95 0034 1360     		str	r3, [r2]
  96              	.L4:
  18:Core/Src/main.c ****             {
  97              		.loc 1 18 13 is_stmt 1 view .LVU23
  18:Core/Src/main.c ****             {
  98              		.loc 1 18 30 is_stmt 0 view .LVU24
  99 0036 0B4B     		ldr	r3, .L9
 100 0038 1B68     		ldr	r3, [r3]
  18:Core/Src/main.c ****             {
 101              		.loc 1 18 16 view .LVU25
 102 003a 042B     		cmp	r3, #4
 103 003c EFDD     		ble	.L2
  20:Core/Src/main.c ****                 flag1 = 1;
 104              		.loc 1 20 17 is_stmt 1 view .LVU26
 105 003e 0B4A     		ldr	r2, .L9+8
 106 0040 9369     		ldr	r3, [r2, #24]
 107 0042 43F08003 		orr	r3, r3, #128
 108 0046 9361     		str	r3, [r2, #24]
  21:Core/Src/main.c ****             }
 109              		.loc 1 21 17 view .LVU27
  21:Core/Src/main.c ****             }
 110              		.loc 1 21 23 is_stmt 0 view .LVU28
 111 0048 094B     		ldr	r3, .L9+12
 112 004a 0122     		movs	r2, #1
 113 004c 1A70     		strb	r2, [r3]
 114 004e E6E7     		b	.L2
 115              	.L8:
  31:Core/Src/main.c ****             {
  32:Core/Src/main.c ****                 SET_BIT(GPIOB->BSRR, GPIO_BSRR_BR7); // –£—Å—Ç–∞–Ω–æ–≤–∫–∞ –Ω—É–ª—è –≤ 7-–æ–π –±–∏—
 116              		.loc 1 32 17 is_stmt 1 view .LVU29
 117 0050 064A     		ldr	r2, .L9+8
 118 0052 9369     		ldr	r3, [r2, #24]
 119 0054 43F40003 		orr	r3, r3, #8388608
 120 0058 9361     		str	r3, [r2, #24]
  33:Core/Src/main.c ****                 flag1 = 0;
 121              		.loc 1 33 17 view .LVU30
 122              		.loc 1 33 23 is_stmt 0 view .LVU31
ARM GAS  C:\Users\Admin\AppData\Local\Temp\ccMWOx3y.s 			page 4


 123 005a 054B     		ldr	r3, .L9+12
 124 005c 0022     		movs	r2, #0
 125 005e 1A70     		strb	r2, [r3]
 126 0060 DDE7     		b	.L2
 127              	.L10:
 128 0062 00BF     		.align	2
 129              	.L9:
 130 0064 00000000 		.word	button_count
 131 0068 00080240 		.word	1073874944
 132 006c 00040240 		.word	1073873920
 133 0070 00000000 		.word	flag1
 134              	.LBE3:
 135              		.cfi_endproc
 136              	.LFE130:
 138              		.global	button_count
 139              		.section	.bss.button_count,"aw",%nobits
 140              		.align	2
 143              	button_count:
 144 0000 00000000 		.space	4
 145              		.global	flag1
 146              		.section	.bss.flag1,"aw",%nobits
 149              	flag1:
 150 0000 00       		.space	1
 151              		.text
 152              	.Letext0:
 153              		.file 2 "C:/Users/Admin/Desktop/StudioCode_Files/STM_files/xpack-arm-none-eabi-gcc-13.2.1-1.1/arm-
 154              		.file 3 "C:/Users/Admin/Desktop/StudioCode_Files/STM_files/xpack-arm-none-eabi-gcc-13.2.1-1.1/arm-
 155              		.file 4 "Core/Src/../Inc/../../CMSIS/Devices/stm32f429xx.h"
 156              		.file 5 "Core/Src/../Inc/init.h"
ARM GAS  C:\Users\Admin\AppData\Local\Temp\ccMWOx3y.s 			page 5


DEFINED SYMBOLS
                            *ABS*:00000000 main.c
C:\Users\Admin\AppData\Local\Temp\ccMWOx3y.s:21     .text.main:00000000 $t
C:\Users\Admin\AppData\Local\Temp\ccMWOx3y.s:27     .text.main:00000000 main
C:\Users\Admin\AppData\Local\Temp\ccMWOx3y.s:130    .text.main:00000064 $d
C:\Users\Admin\AppData\Local\Temp\ccMWOx3y.s:143    .bss.button_count:00000000 button_count
C:\Users\Admin\AppData\Local\Temp\ccMWOx3y.s:149    .bss.flag1:00000000 flag1
C:\Users\Admin\AppData\Local\Temp\ccMWOx3y.s:140    .bss.button_count:00000000 $d
C:\Users\Admin\AppData\Local\Temp\ccMWOx3y.s:150    .bss.flag1:00000000 $d

UNDEFINED SYMBOLS
GPIO_Ini
