ARM GAS  C:\Users\Admin\AppData\Local\Temp\ccOKpy3a.s 			page 1


   1              		.cpu cortex-m4
   2              		.arch armv7e-m
   3              		.fpu fpv4-sp-d16
   4              		.eabi_attribute 27, 1
   5              		.eabi_attribute 28, 1
   6              		.eabi_attribute 20, 1
   7              		.eabi_attribute 21, 1
   8              		.eabi_attribute 23, 3
   9              		.eabi_attribute 24, 1
  10              		.eabi_attribute 25, 1
  11              		.eabi_attribute 26, 1
  12              		.eabi_attribute 30, 1
  13              		.eabi_attribute 34, 1
  14              		.eabi_attribute 18, 4
  15              		.file	"init.c"
  16              		.text
  17              	.Ltext0:
  18              		.cfi_sections	.debug_frame
  19              		.file 1 "Core/Src/init.c"
  20              		.section	.text.GPIO_Ini,"ax",%progbits
  21              		.align	1
  22              		.global	GPIO_Ini
  23              		.syntax unified
  24              		.thumb
  25              		.thumb_func
  27              	GPIO_Ini:
  28              	.LFB130:
   1:Core/Src/init.c **** #include "../Inc/init.h"
   2:Core/Src/init.c **** 
   3:Core/Src/init.c **** void GPIO_Ini(void)
   4:Core/Src/init.c **** {
  29              		.loc 1 4 1 view -0
  30              		.cfi_startproc
  31              		@ args = 0, pretend = 0, frame = 0
  32              		@ frame_needed = 0, uses_anonymous_args = 0
  33              		@ link register save eliminated.
   5:Core/Src/init.c ****     SET_BIT(RCC->AHB1ENR, RCC_AHB1ENR_GPIOBEN | RCC_AHB1ENR_GPIOCEN | RCC_AHB1ENR_GPIODEN); // –í–∫
  34              		.loc 1 5 5 view .LVU1
  35 0000 354A     		ldr	r2, .L2
  36 0002 136B     		ldr	r3, [r2, #48]
  37 0004 43F00E03 		orr	r3, r3, #14
  38 0008 1363     		str	r3, [r2, #48]
   6:Core/Src/init.c ****     // –Ω–µ —Ä–∞–±–æ—Ç–∞—é—Ç 3-4-5
   7:Core/Src/init.c ****     //  SET_BIT(GPIOB->MODER, GPIO_MODER_MODER4_0);                       // –ù–∞—Å—Ç—Ä–æ–π–∫–∞ —Ä–
   8:Core/Src/init.c ****     //  SET_BIT(GPIOB->MODER, GPIO_MODER_MODER3_0);                       // –ù–∞—Å—Ç—Ä–æ–π–∫–∞ —Ä–
   9:Core/Src/init.c ****     //  SET_BIT(GPIOB->MODER, GPIO_MODER_MODER5_0);                       // –ù–∞—Å—Ç—Ä–æ–π–∫–∞ —Ä–
  10:Core/Src/init.c **** 
  11:Core/Src/init.c ****     SET_BIT(GPIOB->MODER, GPIO_MODER_MODE8_0);         // –ù–∞—Å—Ç—Ä–æ–π–∫–∞ —Ä–∞–±–æ—Ç—ã 14-–≥–æ –
  39              		.loc 1 11 5 view .LVU2
  40 000a 344B     		ldr	r3, .L2+4
  41 000c 1968     		ldr	r1, [r3]
  42 000e 41F48032 		orr	r2, r1, #65536
  43 0012 1A60     		str	r2, [r3]
  12:Core/Src/init.c ****     CLEAR_BIT(GPIOB->OTYPER, GPIO_OTYPER_OT_8);        // –ù–∞—Å—Ç—Ä–æ–π–∫–∞ –Ω–∞ Push-Pull —Ä–∞–±–
  44              		.loc 1 12 5 view .LVU3
  45 0014 5A68     		ldr	r2, [r3, #4]
  46 0016 22F48072 		bic	r2, r2, #256
ARM GAS  C:\Users\Admin\AppData\Local\Temp\ccOKpy3a.s 			page 2


  47 001a 5A60     		str	r2, [r3, #4]
  13:Core/Src/init.c ****     SET_BIT(GPIOB->OSPEEDR, GPIO_OSPEEDER_OSPEEDR8_0); // –ù–∞—Å—Ç—Ä–æ–π–∫–∞ —Å–∫–æ—Ä–æ—Å—Ç–∏ —Ä–∞–
  48              		.loc 1 13 5 view .LVU4
  49 001c 9A68     		ldr	r2, [r3, #8]
  50 001e 42F48032 		orr	r2, r2, #65536
  51 0022 9A60     		str	r2, [r3, #8]
  14:Core/Src/init.c ****     CLEAR_BIT(GPIOB->PUPDR, GPIO_PUPDR_PUPD8_0);
  52              		.loc 1 14 5 view .LVU5
  53 0024 DA68     		ldr	r2, [r3, #12]
  54 0026 22F48032 		bic	r2, r2, #65536
  55 002a DA60     		str	r2, [r3, #12]
  15:Core/Src/init.c ****     int test = 5;
  56              		.loc 1 15 5 view .LVU6
  57              	.LVL0:
  16:Core/Src/init.c ****     (*(uint32_t *)(0x40020400UL + 0x00UL)) |= 0x004000UL; // –ù–∞—Å—Ç—Ä–æ–π–∫–∞ —Ä–∞–±–æ—Ç—ã 7-–≥–æ
  58              		.loc 1 16 5 view .LVU7
  59              		.loc 1 16 44 is_stmt 0 view .LVU8
  60 002c 2C4A     		ldr	r2, .L2+8
  61 002e 41F4A031 		orr	r1, r1, #81920
  62 0032 C2F80014 		str	r1, [r2, #1024]
  17:Core/Src/init.c ****     (*(uint32_t *)(0x40020400UL + 0x04UL)) |= 0x000000UL; // –ù–∞—Å—Ç—Ä–æ–π–∫–∞ –Ω–∞ Push-Pull —Ä–∞
  63              		.loc 1 17 5 is_stmt 1 view .LVU9
  18:Core/Src/init.c ****     (*(uint32_t *)(0x40020400UL + 0x08UL)) |= 0x004000UL; // –ù–∞—Å—Ç—Ä–æ–π–∫–∞ —Å–∫–æ—Ä–æ—Å—Ç–∏ —Ä
  64              		.loc 1 18 5 view .LVU10
  65              		.loc 1 18 6 is_stmt 0 view .LVU11
  66 0036 D2F80814 		ldr	r1, [r2, #1032]
  67              		.loc 1 18 44 view .LVU12
  68 003a 41F48041 		orr	r1, r1, #16384
  69 003e C2F80814 		str	r1, [r2, #1032]
  19:Core/Src/init.c ****     (*(uint32_t *)(0x40020400UL + 0x0CUL)) |= 0x000000UL; // –û—Ç–∫–ª—é—á–µ–Ω–∏–µ PU/PD —Ä–µ–∑–∏—Å—
  70              		.loc 1 19 5 is_stmt 1 view .LVU13
  20:Core/Src/init.c **** 
  21:Core/Src/init.c ****     SET_BIT(GPIOB->MODER, GPIO_MODER_MODE12_0);         // –ù–∞—Å—Ç—Ä–æ–π–∫–∞ —Ä–∞–±–æ—Ç—ã 14-–≥–æ 
  71              		.loc 1 21 5 view .LVU14
  72 0042 1968     		ldr	r1, [r3]
  73 0044 41F08071 		orr	r1, r1, #16777216
  74 0048 1960     		str	r1, [r3]
  22:Core/Src/init.c ****     CLEAR_BIT(GPIOB->OTYPER, GPIO_OTYPER_OT_12);        // –ù–∞—Å—Ç—Ä–æ–π–∫–∞ –Ω–∞ Push-Pull —Ä–∞–±
  75              		.loc 1 22 5 view .LVU15
  76 004a 5968     		ldr	r1, [r3, #4]
  77 004c 21F48051 		bic	r1, r1, #4096
  78 0050 5960     		str	r1, [r3, #4]
  23:Core/Src/init.c ****     SET_BIT(GPIOB->OSPEEDR, GPIO_OSPEEDER_OSPEEDR12_0); // –ù–∞—Å—Ç—Ä–æ–π–∫–∞ —Å–∫–æ—Ä–æ—Å—Ç–∏ —Ä–∞
  79              		.loc 1 23 5 view .LVU16
  80 0052 9968     		ldr	r1, [r3, #8]
  81 0054 41F08071 		orr	r1, r1, #16777216
  82 0058 9960     		str	r1, [r3, #8]
  24:Core/Src/init.c ****     CLEAR_BIT(GPIOB->PUPDR, GPIO_PUPDR_PUPD12_0);       // –û—Ç–∫–ª—é—á–µ–Ω–∏–µ PU/PD —Ä–µ–∑–∏—Å—Ç–
  83              		.loc 1 24 5 view .LVU17
  84 005a D968     		ldr	r1, [r3, #12]
  85 005c 21F08071 		bic	r1, r1, #16777216
  86 0060 D960     		str	r1, [r3, #12]
  25:Core/Src/init.c **** 
  26:Core/Src/init.c ****     SET_BIT(GPIOB->MODER, GPIO_MODER_MODE13_0);         // –ù–∞—Å—Ç—Ä–æ–π–∫–∞ —Ä–∞–±–æ—Ç—ã 14-–≥–æ 
  87              		.loc 1 26 5 view .LVU18
  88 0062 1968     		ldr	r1, [r3]
  89 0064 41F08061 		orr	r1, r1, #67108864
ARM GAS  C:\Users\Admin\AppData\Local\Temp\ccOKpy3a.s 			page 3


  90 0068 1960     		str	r1, [r3]
  27:Core/Src/init.c ****     CLEAR_BIT(GPIOB->OTYPER, GPIO_OTYPER_OT_13);        // –ù–∞—Å—Ç—Ä–æ–π–∫–∞ –Ω–∞ Push-Pull —Ä–∞–±
  91              		.loc 1 27 5 view .LVU19
  92 006a 5968     		ldr	r1, [r3, #4]
  93 006c 21F40051 		bic	r1, r1, #8192
  94 0070 5960     		str	r1, [r3, #4]
  28:Core/Src/init.c ****     SET_BIT(GPIOB->OSPEEDR, GPIO_OSPEEDER_OSPEEDR13_0); // –ù–∞—Å—Ç—Ä–æ–π–∫–∞ —Å–∫–æ—Ä–æ—Å—Ç–∏ —Ä–∞
  95              		.loc 1 28 5 view .LVU20
  96 0072 9968     		ldr	r1, [r3, #8]
  97 0074 41F08061 		orr	r1, r1, #67108864
  98 0078 9960     		str	r1, [r3, #8]
  29:Core/Src/init.c ****     CLEAR_BIT(GPIOB->PUPDR, GPIO_PUPDR_PUPD13_0);
  99              		.loc 1 29 5 view .LVU21
 100 007a D968     		ldr	r1, [r3, #12]
 101 007c 21F08061 		bic	r1, r1, #67108864
 102 0080 D960     		str	r1, [r3, #12]
  30:Core/Src/init.c ****     SET_BIT(GPIOB->MODER, GPIO_MODER_MODE15_0);         // –ù–∞—Å—Ç—Ä–æ–π–∫–∞ —Ä–∞–±–æ—Ç—ã 14-–≥–æ 
 103              		.loc 1 30 5 view .LVU22
 104 0082 1968     		ldr	r1, [r3]
 105 0084 41F08041 		orr	r1, r1, #1073741824
 106 0088 1960     		str	r1, [r3]
  31:Core/Src/init.c ****     CLEAR_BIT(GPIOB->OTYPER, GPIO_OTYPER_OT_15);        // –ù–∞—Å—Ç—Ä–æ–π–∫–∞ –Ω–∞ Push-Pull —Ä–∞–±
 107              		.loc 1 31 5 view .LVU23
 108 008a 5968     		ldr	r1, [r3, #4]
 109 008c 21F40041 		bic	r1, r1, #32768
 110 0090 5960     		str	r1, [r3, #4]
  32:Core/Src/init.c ****     SET_BIT(GPIOB->OSPEEDR, GPIO_OSPEEDER_OSPEEDR15_0); // –ù–∞—Å—Ç—Ä–æ–π–∫–∞ —Å–∫–æ—Ä–æ—Å—Ç–∏ —Ä–∞
 111              		.loc 1 32 5 view .LVU24
 112 0092 9968     		ldr	r1, [r3, #8]
 113 0094 41F08041 		orr	r1, r1, #1073741824
 114 0098 9960     		str	r1, [r3, #8]
  33:Core/Src/init.c ****     CLEAR_BIT(GPIOB->PUPDR, GPIO_PUPDR_PUPD15_0);
 115              		.loc 1 33 5 view .LVU25
 116 009a D968     		ldr	r1, [r3, #12]
 117 009c 21F08041 		bic	r1, r1, #1073741824
 118 00a0 D960     		str	r1, [r3, #12]
  34:Core/Src/init.c **** 
  35:Core/Src/init.c ****     SET_BIT(GPIOB->MODER, GPIO_MODER_MODE8_0);        // –ù–∞—Å—Ç—Ä–æ–π–∫–∞ —Ä–∞–±–æ—Ç—ã 14-–≥–æ –ø
 119              		.loc 1 35 5 view .LVU26
 120 00a2 1968     		ldr	r1, [r3]
 121 00a4 41F48030 		orr	r0, r1, #65536
 122 00a8 1860     		str	r0, [r3]
  36:Core/Src/init.c ****     CLEAR_BIT(GPIOB->OTYPER, GPIO_OTYPER_OT_8);        // –ù–∞—Å—Ç—Ä–æ–π–∫–∞ –Ω–∞ Push-Pull —Ä–∞–±–
 123              		.loc 1 36 5 view .LVU27
 124 00aa 5868     		ldr	r0, [r3, #4]
 125 00ac 20F48070 		bic	r0, r0, #256
 126 00b0 5860     		str	r0, [r3, #4]
  37:Core/Src/init.c ****     SET_BIT(GPIOB->OSPEEDR, GPIO_OSPEEDER_OSPEEDR8_0); // –ù–∞—Å—Ç—Ä–æ–π–∫–∞ —Å–∫–æ—Ä–æ—Å—Ç–∏ —Ä–∞–
 127              		.loc 1 37 5 view .LVU28
 128 00b2 9868     		ldr	r0, [r3, #8]
 129 00b4 40F48030 		orr	r0, r0, #65536
 130 00b8 9860     		str	r0, [r3, #8]
  38:Core/Src/init.c ****     CLEAR_BIT(GPIOB->PUPDR, GPIO_PUPDR_PUPD8_0);
 131              		.loc 1 38 5 view .LVU29
 132 00ba D868     		ldr	r0, [r3, #12]
 133 00bc 20F48030 		bic	r0, r0, #65536
 134 00c0 D860     		str	r0, [r3, #12]
ARM GAS  C:\Users\Admin\AppData\Local\Temp\ccOKpy3a.s 			page 4


  39:Core/Src/init.c ****     (*(uint32_t *)(0x40020400UL + 0x00UL)) |= 0x004000UL; // –ù–∞—Å—Ç—Ä–æ–π–∫–∞ —Ä–∞–±–æ—Ç—ã 7-–≥–æ
 135              		.loc 1 39 5 view .LVU30
 136              		.loc 1 39 44 is_stmt 0 view .LVU31
 137 00c2 41F4A031 		orr	r1, r1, #81920
 138 00c6 C2F80014 		str	r1, [r2, #1024]
  40:Core/Src/init.c ****     (*(uint32_t *)(0x40020400UL + 0x04UL)) |= 0x000000UL; // –ù–∞—Å—Ç—Ä–æ–π–∫–∞ –Ω–∞ Push-Pull —Ä–∞
 139              		.loc 1 40 5 is_stmt 1 view .LVU32
  41:Core/Src/init.c ****     (*(uint32_t *)(0x40020400UL + 0x08UL)) |= 0x004000UL; // –ù–∞—Å—Ç—Ä–æ–π–∫–∞ —Å–∫–æ—Ä–æ—Å—Ç–∏ —Ä
 140              		.loc 1 41 5 view .LVU33
 141              		.loc 1 41 6 is_stmt 0 view .LVU34
 142 00ca D2F80834 		ldr	r3, [r2, #1032]
 143              		.loc 1 41 44 view .LVU35
 144 00ce 43F48043 		orr	r3, r3, #16384
 145 00d2 C2F80834 		str	r3, [r2, #1032]
  42:Core/Src/init.c ****     (*(uint32_t *)(0x40020400UL + 0x0CUL)) |= 0x000000UL; // –û—Ç–∫–ª—é—á–µ–Ω–∏–µ PU/PD —Ä–µ–∑–∏—Å—
 146              		.loc 1 42 5 is_stmt 1 view .LVU36
  43:Core/Src/init.c **** }...
 147              		.loc 1 43 1 is_stmt 0 view .LVU37
 148 00d6 7047     		bx	lr
 149              	.L3:
 150              		.align	2
 151              	.L2:
 152 00d8 00380240 		.word	1073887232
 153 00dc 00040240 		.word	1073873920
 154 00e0 00000240 		.word	1073872896
 155              		.cfi_endproc
 156              	.LFE130:
 158              		.text
 159              	.Letext0:
 160              		.file 2 "C:/Users/Admin/Desktop/StudioCode_Files/STM_files/xpack-arm-none-eabi-gcc-13.2.1-1.1/arm-
 161              		.file 3 "C:/Users/Admin/Desktop/StudioCode_Files/STM_files/xpack-arm-none-eabi-gcc-13.2.1-1.1/arm-
 162              		.file 4 "Core/Src/../Inc/../../CMSIS/Devices/stm32f429xx.h"
ARM GAS  C:\Users\Admin\AppData\Local\Temp\ccOKpy3a.s 			page 5


DEFINED SYMBOLS
                            *ABS*:00000000 init.c
C:\Users\Admin\AppData\Local\Temp\ccOKpy3a.s:21     .text.GPIO_Ini:00000000 $t
C:\Users\Admin\AppData\Local\Temp\ccOKpy3a.s:27     .text.GPIO_Ini:00000000 GPIO_Ini
C:\Users\Admin\AppData\Local\Temp\ccOKpy3a.s:152    .text.GPIO_Ini:000000d8 $d

NO UNDEFINED SYMBOLS
